---
triple:          'x86_64-apple-darwin'
binary-path:     '/Users/dmitrii/Documents/cpp-experiments/Algorhitms/6th_Sprint/Binaries/RailWaysCycle'
relocations:
  - { offsetInCU: 0x576A, offset: 0x576A, size: 0x8, addend: 0x0, symName: __ZNSt3__17advanceB7v160006IP7WayTypellvEEvRT_T0_, symObjAddr: 0x2F50, symBinAddr: 0x1000056F0, symSize: 0x50 }
  - { offsetInCU: 0x6D5F, offset: 0x6D5F, size: 0x8, addend: 0x0, symName: __ZNSt3__124__put_character_sequenceB7v160006IcNS_11char_traitsIcEEEERNS_13basic_ostreamIT_T0_EES7_PKS4_m, symObjAddr: 0x49C0, symBinAddr: 0x100007160, symSize: 0x1F0 }
  - { offsetInCU: 0x8627, offset: 0x8627, size: 0x8, addend: 0x0, symName: __ZNSt3__1rsB7v160006IcNS_11char_traitsIcEENS_9allocatorIcEEEERNS_13basic_istreamIT_T0_EES9_RNS_12basic_stringIS6_S7_T1_EE, symObjAddr: 0x330, symBinAddr: 0x100002AD0, symSize: 0x2F0 }
  - { offsetInCU: 0x86F6, offset: 0x86F6, size: 0x8, addend: 0x0, symName: __ZNSt3__1lsB7v160006INS_11char_traitsIcEEEERNS_13basic_ostreamIcT_EES6_c, symObjAddr: 0xCF0, symBinAddr: 0x100003490, symSize: 0x30 }
  - { offsetInCU: 0x873C, offset: 0x873C, size: 0x8, addend: 0x0, symName: __ZNSt3__1lsB7v160006INS_11char_traitsIcEEEERNS_13basic_ostreamIcT_EES6_PKc, symObjAddr: 0xD20, symBinAddr: 0x1000034C0, symSize: 0x40 }
  - { offsetInCU: 0x8782, offset: 0x8782, size: 0x8, addend: 0x0, symName: __ZNSt3__122__make_exception_guardB7v160006INS_6vectorI7WayTypeNS_9allocatorIS2_EEE16__destroy_vectorEEENS_28__exception_guard_exceptionsIT_EES8_, symObjAddr: 0xE70, symBinAddr: 0x100003610, symSize: 0x40 }
  - { offsetInCU: 0x87B7, offset: 0x87B7, size: 0x8, addend: 0x0, symName: __ZNSt3__119__debug_db_insert_cB7v160006INS_6vectorI7WayTypeNS_9allocatorIS2_EEEEEEvPT_, symObjAddr: 0xEE0, symBinAddr: 0x100003680, symSize: 0x10 }
  - { offsetInCU: 0x87E8, offset: 0x87E8, size: 0x8, addend: 0x0, symName: __ZNSt3__119__allocate_at_leastB7v160006INS_9allocatorI7WayTypeEEEEDaRT_m, symObjAddr: 0x1230, symBinAddr: 0x1000039D0, symSize: 0x40 }
  - { offsetInCU: 0x882B, offset: 0x882B, size: 0x8, addend: 0x0, symName: __ZNSt3__13minB7v160006ImEERKT_S3_S3_, symObjAddr: 0x1360, symBinAddr: 0x100003B00, symSize: 0x30 }
  - { offsetInCU: 0x8A58, offset: 0x8A58, size: 0x8, addend: 0x0, symName: __ZNSt3__13minB7v160006ImNS_6__lessImmEEEERKT_S5_S5_T0_, symObjAddr: 0x13F0, symBinAddr: 0x100003B90, symSize: 0x50 }
  - { offsetInCU: 0x8CD9, offset: 0x8CD9, size: 0x8, addend: 0x0, symName: __ZNSt3__120__throw_length_errorB7v160006EPKc, symObjAddr: 0x14D0, symBinAddr: 0x100003C70, symSize: 0x70 }
  - { offsetInCU: 0x8D01, offset: 0x8D01, size: 0x8, addend: 0x0, symName: __ZNSt3__117allocate_at_leastB7v160006INS_9allocatorI7WayTypeEEEENS_17allocation_resultINS_16allocator_traitsIT_E7pointerEEERS6_m, symObjAddr: 0x15B0, symBinAddr: 0x100003D50, symSize: 0x40 }
  - { offsetInCU: 0x8D44, offset: 0x8D44, size: 0x8, addend: 0x0, symName: __ZNSt3__117__libcpp_allocateB7v160006Emm, symObjAddr: 0x16C0, symBinAddr: 0x100003E60, symSize: 0x60 }
  - { offsetInCU: 0x8D9E, offset: 0x8D9E, size: 0x8, addend: 0x0, symName: __ZNSt3__124__is_overaligned_for_newB7v160006Em, symObjAddr: 0x1720, symBinAddr: 0x100003EC0, symSize: 0x20 }
  - { offsetInCU: 0x8DCC, offset: 0x8DCC, size: 0x8, addend: 0x0, symName: __ZNSt3__121__libcpp_operator_newB7v160006IJmSt11align_val_tEEEPvDpT_, symObjAddr: 0x1740, symBinAddr: 0x100003EE0, symSize: 0x30 }
  - { offsetInCU: 0x8E19, offset: 0x8E19, size: 0x8, addend: 0x0, symName: __ZNSt3__121__libcpp_operator_newB7v160006IJmEEEPvDpT_, symObjAddr: 0x1770, symBinAddr: 0x100003F10, symSize: 0x20 }
  - { offsetInCU: 0x8E52, offset: 0x8E52, size: 0x8, addend: 0x0, symName: __ZNSt3__112__to_addressB7v160006I7WayTypeEEPT_S3_, symObjAddr: 0x1860, symBinAddr: 0x100004000, symSize: 0x10 }
  - { offsetInCU: 0x8EAC, offset: 0x8EAC, size: 0x8, addend: 0x0, symName: __ZNSt3__112construct_atB7v160006I7WayTypeJRKS1_EPS1_EEPT_S6_DpOT0_, symObjAddr: 0x1980, symBinAddr: 0x100004120, symSize: 0x30 }
  - { offsetInCU: 0x8F1C, offset: 0x8F1C, size: 0x8, addend: 0x0, symName: __ZNSt3__118__debug_db_erase_cB7v160006INS_6vectorI7WayTypeNS_9allocatorIS2_EEEEEEvPT_, symObjAddr: 0x1B50, symBinAddr: 0x1000042F0, symSize: 0x10 }
  - { offsetInCU: 0x8F4D, offset: 0x8F4D, size: 0x8, addend: 0x0, symName: __ZNSt3__110destroy_atB7v160006I7WayTypeLi0EEEvPT_, symObjAddr: 0x1C70, symBinAddr: 0x100004410, symSize: 0x20 }
  - { offsetInCU: 0x8F84, offset: 0x8F84, size: 0x8, addend: 0x0, symName: __ZNSt3__112__destroy_atB7v160006I7WayTypeLi0EEEvPT_, symObjAddr: 0x1C90, symBinAddr: 0x100004430, symSize: 0x10 }
  - { offsetInCU: 0x8FBB, offset: 0x8FBB, size: 0x8, addend: 0x0, symName: __ZNSt3__119__libcpp_deallocateB7v160006EPvmm, symObjAddr: 0x1CE0, symBinAddr: 0x100004480, symSize: 0x60 }
  - { offsetInCU: 0x9020, offset: 0x9020, size: 0x8, addend: 0x0, symName: __ZNSt3__127__do_deallocate_handle_sizeB7v160006IJSt11align_val_tEEEvPvmDpT_, symObjAddr: 0x1D40, symBinAddr: 0x1000044E0, symSize: 0x30 }
  - { offsetInCU: 0x9073, offset: 0x9073, size: 0x8, addend: 0x0, symName: __ZNSt3__127__do_deallocate_handle_sizeB7v160006IJEEEvPvmDpT_, symObjAddr: 0x1D70, symBinAddr: 0x100004510, symSize: 0x20 }
  - { offsetInCU: 0x90B1, offset: 0x90B1, size: 0x8, addend: 0x0, symName: __ZNSt3__124__libcpp_operator_deleteB7v160006IJPvSt11align_val_tEEEvDpT_, symObjAddr: 0x1D90, symBinAddr: 0x100004530, symSize: 0x30 }
  - { offsetInCU: 0x90FA, offset: 0x90FA, size: 0x8, addend: 0x0, symName: __ZNSt3__124__libcpp_operator_deleteB7v160006IJPvEEEvDpT_, symObjAddr: 0x1DC0, symBinAddr: 0x100004560, symSize: 0x20 }
  - { offsetInCU: 0x912F, offset: 0x912F, size: 0x8, addend: 0x0, symName: __ZNSt3__122__make_exception_guardB7v160006INS_6vectorINS1_I7WayTypeNS_9allocatorIS2_EEEENS3_IS5_EEE16__destroy_vectorEEENS_28__exception_guard_exceptionsIT_EESA_, symObjAddr: 0x1EF0, symBinAddr: 0x100004690, symSize: 0x40 }
  - { offsetInCU: 0x9164, offset: 0x9164, size: 0x8, addend: 0x0, symName: __ZNSt3__119__debug_db_insert_cB7v160006INS_6vectorINS1_I7WayTypeNS_9allocatorIS2_EEEENS3_IS5_EEEEEEvPT_, symObjAddr: 0x1F60, symBinAddr: 0x100004700, symSize: 0x10 }
  - { offsetInCU: 0x9195, offset: 0x9195, size: 0x8, addend: 0x0, symName: __ZNSt3__119__allocate_at_leastB7v160006INS_9allocatorINS_6vectorI7WayTypeNS1_IS3_EEEEEEEEDaRT_m, symObjAddr: 0x22B0, symBinAddr: 0x100004A50, symSize: 0x40 }
  - { offsetInCU: 0x91D8, offset: 0x91D8, size: 0x8, addend: 0x0, symName: __ZNSt3__117allocate_at_leastB7v160006INS_9allocatorINS_6vectorI7WayTypeNS1_IS3_EEEEEEEENS_17allocation_resultINS_16allocator_traitsIT_E7pointerEEERS9_m, symObjAddr: 0x2450, symBinAddr: 0x100004BF0, symSize: 0x40 }
  - { offsetInCU: 0x921B, offset: 0x921B, size: 0x8, addend: 0x0, symName: __ZNSt3__112__to_addressB7v160006INS_6vectorI7WayTypeNS_9allocatorIS2_EEEEEEPT_S7_, symObjAddr: 0x2600, symBinAddr: 0x100004DA0, symSize: 0x10 }
  - { offsetInCU: 0x9275, offset: 0x9275, size: 0x8, addend: 0x0, symName: __ZNSt3__112construct_atB7v160006INS_6vectorI7WayTypeNS_9allocatorIS2_EEEEJRKS5_EPS5_EEPT_SA_DpOT0_, symObjAddr: 0x2720, symBinAddr: 0x100004EC0, symSize: 0x40 }
  - { offsetInCU: 0x92E5, offset: 0x92E5, size: 0x8, addend: 0x0, symName: __ZNSt3__130__uninitialized_allocator_copyB7v160006INS_9allocatorI7WayTypeEEPS2_S4_S4_EET2_RT_T0_T1_S5_, symObjAddr: 0x29C0, symBinAddr: 0x100005160, symSize: 0x100 }
  - { offsetInCU: 0x9383, offset: 0x9383, size: 0x8, addend: 0x0, symName: __ZNSt3__122__make_exception_guardB7v160006INS_29_AllocatorDestroyRangeReverseINS_9allocatorI7WayTypeEEPS3_EEEENS_28__exception_guard_exceptionsIT_EES8_, symObjAddr: 0x2AC0, symBinAddr: 0x100005260, symSize: 0x60 }
  - { offsetInCU: 0x93B8, offset: 0x93B8, size: 0x8, addend: 0x0, symName: __ZNSt3__112construct_atB7v160006I7WayTypeJRS1_EPS1_EEPT_S5_DpOT0_, symObjAddr: 0x2C80, symBinAddr: 0x100005420, symSize: 0x30 }
  - { offsetInCU: 0x9428, offset: 0x9428, size: 0x8, addend: 0x0, symName: __ZNSt3__119__allocator_destroyB7v160006INS_9allocatorI7WayTypeEENS_16reverse_iteratorIPS2_EES6_EEvRT_T0_T1_, symObjAddr: 0x2D50, symBinAddr: 0x1000054F0, symSize: 0x70 }
  - { offsetInCU: 0x948B, offset: 0x948B, size: 0x8, addend: 0x0, symName: __ZNSt3__1neB7v160006IP7WayTypeS2_EEbRKNS_16reverse_iteratorIT_EERKNS3_IT0_EE, symObjAddr: 0x2DF0, symBinAddr: 0x100005590, symSize: 0x40 }
  - { offsetInCU: 0x94D7, offset: 0x94D7, size: 0x8, addend: 0x0, symName: __ZNSt3__112__to_addressB7v160006INS_16reverse_iteratorIP7WayTypeEEvEENS_5decayIDTclsr19__to_address_helperIT_EE6__callclsr3stdE7declvalIRKS6_EEEEE4typeES8_, symObjAddr: 0x2E30, symBinAddr: 0x1000055D0, symSize: 0x20 }
  - { offsetInCU: 0x9536, offset: 0x9536, size: 0x8, addend: 0x0, symName: __ZNSt3__14prevB7v160006IP7WayTypeEENS_9enable_ifIXsr25__is_cpp17_input_iteratorIT_EE5valueES4_E4typeES4_NS_15iterator_traitsIS4_E15difference_typeE, symObjAddr: 0x2F00, symBinAddr: 0x1000056A0, symSize: 0x50 }
  - { offsetInCU: 0x9579, offset: 0x9579, size: 0x8, addend: 0x0, symName: __ZNSt3__121__convert_to_integralB7v160006El, symObjAddr: 0x2FA0, symBinAddr: 0x100005740, symSize: 0x10 }
  - { offsetInCU: 0x95A5, offset: 0x95A5, size: 0x8, addend: 0x0, symName: __ZNSt3__19__advanceB7v160006IP7WayTypeEEvRT_NS_15iterator_traitsIS3_E15difference_typeENS_26random_access_iterator_tagE, symObjAddr: 0x2FB0, symBinAddr: 0x100005750, symSize: 0x20 }
  - { offsetInCU: 0x95EE, offset: 0x95EE, size: 0x8, addend: 0x0, symName: __ZNSt3__118__debug_db_erase_cB7v160006INS_6vectorINS1_I7WayTypeNS_9allocatorIS2_EEEENS3_IS5_EEEEEEvPT_, symObjAddr: 0x31A0, symBinAddr: 0x100005940, symSize: 0x10 }
  - { offsetInCU: 0x961F, offset: 0x961F, size: 0x8, addend: 0x0, symName: __ZNSt3__110destroy_atB7v160006INS_6vectorI7WayTypeNS_9allocatorIS2_EEEELi0EEEvPT_, symObjAddr: 0x32A0, symBinAddr: 0x100005A40, symSize: 0x20 }
  - { offsetInCU: 0x9656, offset: 0x9656, size: 0x8, addend: 0x0, symName: __ZNSt3__112__destroy_atB7v160006INS_6vectorI7WayTypeNS_9allocatorIS2_EEEELi0EEEvPT_, symObjAddr: 0x32C0, symBinAddr: 0x100005A60, symSize: 0x20 }
  - { offsetInCU: 0x968D, offset: 0x968D, size: 0x8, addend: 0x0, symName: __ZNSt3__119__debug_db_insert_cB7v160006INS_12basic_stringIcNS_11char_traitsIcEENS_9allocatorIcEEEEEEvPT_, symObjAddr: 0x33F0, symBinAddr: 0x100005B90, symSize: 0x10 }
  - { offsetInCU: 0x96BE, offset: 0x96BE, size: 0x8, addend: 0x0, symName: __ZNSt3__120__throw_out_of_rangeB7v160006EPKc, symObjAddr: 0x3530, symBinAddr: 0x100005CD0, symSize: 0x70 }
  - { offsetInCU: 0x96E8, offset: 0x96E8, size: 0x8, addend: 0x0, symName: __ZNSt3__122__make_exception_guardB7v160006INS_6vectorI5ColorNS_9allocatorIS2_EEE16__destroy_vectorEEENS_28__exception_guard_exceptionsIT_EES8_, symObjAddr: 0x3780, symBinAddr: 0x100005F20, symSize: 0x40 }
  - { offsetInCU: 0x971D, offset: 0x971D, size: 0x8, addend: 0x0, symName: __ZNSt3__119__debug_db_insert_cB7v160006INS_6vectorI5ColorNS_9allocatorIS2_EEEEEEvPT_, symObjAddr: 0x37F0, symBinAddr: 0x100005F90, symSize: 0x10 }
  - { offsetInCU: 0x974E, offset: 0x974E, size: 0x8, addend: 0x0, symName: __ZNSt3__119__allocate_at_leastB7v160006INS_9allocatorI5ColorEEEEDaRT_m, symObjAddr: 0x3B40, symBinAddr: 0x1000062E0, symSize: 0x40 }
  - { offsetInCU: 0x9791, offset: 0x9791, size: 0x8, addend: 0x0, symName: __ZNSt3__117allocate_at_leastB7v160006INS_9allocatorI5ColorEEEENS_17allocation_resultINS_16allocator_traitsIT_E7pointerEEERS6_m, symObjAddr: 0x3CE0, symBinAddr: 0x100006480, symSize: 0x40 }
  - { offsetInCU: 0x97D4, offset: 0x97D4, size: 0x8, addend: 0x0, symName: __ZNSt3__112__to_addressB7v160006I5ColorEEPT_S3_, symObjAddr: 0x3E80, symBinAddr: 0x100006620, symSize: 0x10 }
  - { offsetInCU: 0x982E, offset: 0x982E, size: 0x8, addend: 0x0, symName: __ZNSt3__112construct_atB7v160006I5ColorJRKS1_EPS1_EEPT_S6_DpOT0_, symObjAddr: 0x3FA0, symBinAddr: 0x100006740, symSize: 0x30 }
  - { offsetInCU: 0x989E, offset: 0x989E, size: 0x8, addend: 0x0, symName: __ZNSt3__118__debug_db_erase_cB7v160006INS_6vectorI5ColorNS_9allocatorIS2_EEEEEEvPT_, symObjAddr: 0x4170, symBinAddr: 0x100006910, symSize: 0x10 }
  - { offsetInCU: 0x98CF, offset: 0x98CF, size: 0x8, addend: 0x0, symName: __ZNSt3__110destroy_atB7v160006I5ColorLi0EEEvPT_, symObjAddr: 0x4290, symBinAddr: 0x100006A30, symSize: 0x20 }
  - { offsetInCU: 0x9906, offset: 0x9906, size: 0x8, addend: 0x0, symName: __ZNSt3__112__destroy_atB7v160006I5ColorLi0EEEvPT_, symObjAddr: 0x42B0, symBinAddr: 0x100006A50, symSize: 0x10 }
  - { offsetInCU: 0x9ED2, offset: 0x9ED2, size: 0x8, addend: 0x0, symName: __ZNSt3__19use_facetB7v160006INS_5ctypeIcEEEERKT_RKNS_6localeE, symObjAddr: 0x44C0, symBinAddr: 0x100006C60, symSize: 0x30 }
  - { offsetInCU: 0xA2B2, offset: 0xA2B2, size: 0x8, addend: 0x0, symName: __ZNSt3__125__debug_db_invalidate_allB7v160006INS_12basic_stringIcNS_11char_traitsIcEENS_9allocatorIcEEEEEEvPT_, symObjAddr: 0x4740, symBinAddr: 0x100006EE0, symSize: 0x10 }
  - { offsetInCU: 0xA2E3, offset: 0xA2E3, size: 0x8, addend: 0x0, symName: __ZNSt3__116__pad_and_outputB7v160006IcNS_11char_traitsIcEEEENS_19ostreambuf_iteratorIT_T0_EES6_PKS4_S8_S8_RNS_8ios_baseES4_, symObjAddr: 0x4C00, symBinAddr: 0x1000073A0, symSize: 0x220 }
  - { offsetInCU: 0xA3B3, offset: 0xA3B3, size: 0x8, addend: 0x0, symName: __ZNSt3__112__to_addressB7v160006IcEEPT_S2_, symObjAddr: 0x4FE0, symBinAddr: 0x100007780, symSize: 0x10 }
  - { offsetInCU: 0xA3E8, offset: 0xA3E8, size: 0x8, addend: 0x0, symName: __ZNSt3__118__constexpr_strlenB7v160006EPKc, symObjAddr: 0x5140, symBinAddr: 0x1000078E0, symSize: 0x1B }
  - { offsetInCU: 0xA86B, offset: 0xA86B, size: 0x8, addend: 0x0, symName: __ZSt28__throw_bad_array_new_lengthB7v160006v, symObjAddr: 0x1680, symBinAddr: 0x100003E20, symSize: 0x40 }
  - { offsetInCU: 0xD26D, offset: 0xD26D, size: 0x8, addend: 0x0, symName: __Zpl7WayTypeS_, symObjAddr: 0x0, symBinAddr: 0x1000027A0, symSize: 0x30 }
  - { offsetInCU: 0xD2A7, offset: 0xD2A7, size: 0x8, addend: 0x0, symName: __Z13GetEdgeMatrixv, symObjAddr: 0x30, symBinAddr: 0x1000027D0, symSize: 0x260 }
  - { offsetInCU: 0xD329, offset: 0xD329, size: 0x8, addend: 0x0, symName: __ZNSt3__16vectorI7WayTypeNS_9allocatorIS1_EEEC1EmRKS1_, symObjAddr: 0x290, symBinAddr: 0x100002A30, symSize: 0x30 }
  - { offsetInCU: 0xD373, offset: 0xD373, size: 0x8, addend: 0x0, symName: __ZNSt3__16vectorINS0_I7WayTypeNS_9allocatorIS1_EEEENS2_IS4_EEEC1EmRKS4_, symObjAddr: 0x2C0, symBinAddr: 0x100002A60, symSize: 0x30 }
  - { offsetInCU: 0xD3BD, offset: 0xD3BD, size: 0x8, addend: 0x0, symName: __ZNSt3__16vectorI7WayTypeNS_9allocatorIS1_EEED1B7v160006Ev, symObjAddr: 0x2F0, symBinAddr: 0x100002A90, symSize: 0x20 }
  - { offsetInCU: 0xD3E7, offset: 0xD3E7, size: 0x8, addend: 0x0, symName: __ZNSt3__112basic_stringIcNS_11char_traitsIcEENS_9allocatorIcEEEC1B7v160006Ev, symObjAddr: 0x310, symBinAddr: 0x100002AB0, symSize: 0x20 }
  - { offsetInCU: 0xD411, offset: 0xD411, size: 0x8, addend: 0x0, symName: __ZNSt3__16vectorINS0_I7WayTypeNS_9allocatorIS1_EEEENS2_IS4_EEE2atEm, symObjAddr: 0x620, symBinAddr: 0x100002DC0, symSize: 0x60 }
  - { offsetInCU: 0xD448, offset: 0xD448, size: 0x8, addend: 0x0, symName: __ZNSt3__16vectorI7WayTypeNS_9allocatorIS1_EEE2atEm, symObjAddr: 0x680, symBinAddr: 0x100002E20, symSize: 0x60 }
  - { offsetInCU: 0xD47F, offset: 0xD47F, size: 0x8, addend: 0x0, symName: __ZNSt3__16vectorINS0_I7WayTypeNS_9allocatorIS1_EEEENS2_IS4_EEED1B7v160006Ev, symObjAddr: 0x6E0, symBinAddr: 0x100002E80, symSize: 0x20 }
  - { offsetInCU: 0xD4A8, offset: 0xD4A8, size: 0x8, addend: 0x0, symName: __Z13KeepEntryTypeRNSt3__16vectorI7WayTypeNS_9allocatorIS1_EEEES1_m, symObjAddr: 0x700, symBinAddr: 0x100002EA0, symSize: 0x90 }
  - { offsetInCU: 0xD4ED, offset: 0xD4ED, size: 0x8, addend: 0x0, symName: __ZNSt3__16vectorI7WayTypeNS_9allocatorIS1_EEEixB7v160006Em, symObjAddr: 0x790, symBinAddr: 0x100002F30, symSize: 0x20 }
  - { offsetInCU: 0xD523, offset: 0xD523, size: 0x8, addend: 0x0, symName: __Z3DFSRKNSt3__16vectorINS0_I7WayTypeNS_9allocatorIS1_EEEENS2_IS4_EEEEmRNS0_I5ColorNS2_IS9_EEEES1_bRS4_, symObjAddr: 0x7B0, symBinAddr: 0x100002F50, symSize: 0x1B0 }
  - { offsetInCU: 0xD5CE, offset: 0xD5CE, size: 0x8, addend: 0x0, symName: __ZNSt3__16vectorI5ColorNS_9allocatorIS1_EEEixB7v160006Em, symObjAddr: 0x960, symBinAddr: 0x100003100, symSize: 0x20 }
  - { offsetInCU: 0xD605, offset: 0xD605, size: 0x8, addend: 0x0, symName: __ZNKSt3__16vectorINS0_I7WayTypeNS_9allocatorIS1_EEEENS2_IS4_EEE4sizeB7v160006Ev, symObjAddr: 0x980, symBinAddr: 0x100003120, symSize: 0x30 }
  - { offsetInCU: 0xD62B, offset: 0xD62B, size: 0x8, addend: 0x0, symName: __ZNKSt3__16vectorINS0_I7WayTypeNS_9allocatorIS1_EEEENS2_IS4_EEE2atEm, symObjAddr: 0x9B0, symBinAddr: 0x100003150, symSize: 0x60 }
  - { offsetInCU: 0xD662, offset: 0xD662, size: 0x8, addend: 0x0, symName: __ZNKSt3__16vectorI7WayTypeNS_9allocatorIS1_EEE2atEm, symObjAddr: 0xA10, symBinAddr: 0x1000031B0, symSize: 0x60 }
  - { offsetInCU: 0xD698, offset: 0xD698, size: 0x8, addend: 0x0, symName: __Z19CheckIfMapIsOptimalRKNSt3__16vectorINS0_I7WayTypeNS_9allocatorIS1_EEEENS2_IS4_EEEE, symObjAddr: 0xA70, symBinAddr: 0x100003210, symSize: 0x180 }
  - { offsetInCU: 0xD704, offset: 0xD704, size: 0x8, addend: 0x0, symName: __ZNSt3__16vectorI5ColorNS_9allocatorIS1_EEEC1EmRKS1_, symObjAddr: 0xBF0, symBinAddr: 0x100003390, symSize: 0x30 }
  - { offsetInCU: 0xD74E, offset: 0xD74E, size: 0x8, addend: 0x0, symName: __ZNSt3__16vectorI5ColorNS_9allocatorIS1_EEED1B7v160006Ev, symObjAddr: 0xC20, symBinAddr: 0x1000033C0, symSize: 0x20 }
  - { offsetInCU: 0xD778, offset: 0xD778, size: 0x8, addend: 0x0, symName: _main, symObjAddr: 0xC40, symBinAddr: 0x1000033E0, symSize: 0xB0 }
  - { offsetInCU: 0xD7A1, offset: 0xD7A1, size: 0x8, addend: 0x0, symName: __ZNSt3__16vectorI7WayTypeNS_9allocatorIS1_EEEC2EmRKS1_, symObjAddr: 0xD60, symBinAddr: 0x100003500, symSize: 0xE0 }
  - { offsetInCU: 0xD80C, offset: 0xD80C, size: 0x8, addend: 0x0, symName: __ZNSt3__117__compressed_pairIP7WayTypeNS_9allocatorIS1_EEEC1B7v160006IDnNS_18__default_init_tagEEEOT_OT0_, symObjAddr: 0xE40, symBinAddr: 0x1000035E0, symSize: 0x30 }
  - { offsetInCU: 0xD864, offset: 0xD864, size: 0x8, addend: 0x0, symName: __ZNSt3__16vectorI7WayTypeNS_9allocatorIS1_EEE16__destroy_vectorC1ERS4_, symObjAddr: 0xEB0, symBinAddr: 0x100003650, symSize: 0x30 }
  - { offsetInCU: 0xD89D, offset: 0xD89D, size: 0x8, addend: 0x0, symName: __ZNSt3__16vectorI7WayTypeNS_9allocatorIS1_EEE11__vallocateB7v160006Em, symObjAddr: 0xEF0, symBinAddr: 0x100003690, symSize: 0xA0 }
  - { offsetInCU: 0xD8E1, offset: 0xD8E1, size: 0x8, addend: 0x0, symName: __ZNSt3__16vectorI7WayTypeNS_9allocatorIS1_EEE18__construct_at_endEmRKS1_, symObjAddr: 0xF90, symBinAddr: 0x100003730, symSize: 0xC0 }
  - { offsetInCU: 0xD962, offset: 0xD962, size: 0x8, addend: 0x0, symName: __ZNSt3__128__exception_guard_exceptionsINS_6vectorI7WayTypeNS_9allocatorIS2_EEE16__destroy_vectorEE10__completeB7v160006Ev, symObjAddr: 0x1050, symBinAddr: 0x1000037F0, symSize: 0x20 }
  - { offsetInCU: 0xD988, offset: 0xD988, size: 0x8, addend: 0x0, symName: __ZNSt3__128__exception_guard_exceptionsINS_6vectorI7WayTypeNS_9allocatorIS2_EEE16__destroy_vectorEED1B7v160006Ev, symObjAddr: 0x1070, symBinAddr: 0x100003810, symSize: 0x20 }
  - { offsetInCU: 0xD9B2, offset: 0xD9B2, size: 0x8, addend: 0x0, symName: __ZNSt3__117__compressed_pairIP7WayTypeNS_9allocatorIS1_EEEC2B7v160006IDnNS_18__default_init_tagEEEOT_OT0_, symObjAddr: 0x1090, symBinAddr: 0x100003830, symSize: 0x40 }
  - { offsetInCU: 0xDA0A, offset: 0xDA0A, size: 0x8, addend: 0x0, symName: __ZNSt3__122__compressed_pair_elemIP7WayTypeLi0ELb0EEC2B7v160006IDnvEEOT_, symObjAddr: 0x10D0, symBinAddr: 0x100003870, symSize: 0x20 }
  - { offsetInCU: 0xDA4C, offset: 0xDA4C, size: 0x8, addend: 0x0, symName: __ZNSt3__122__compressed_pair_elemINS_9allocatorI7WayTypeEELi1ELb1EEC2B7v160006ENS_18__default_init_tagE, symObjAddr: 0x10F0, symBinAddr: 0x100003890, symSize: 0x20 }
  - { offsetInCU: 0xDA80, offset: 0xDA80, size: 0x8, addend: 0x0, symName: __ZNSt3__19allocatorI7WayTypeEC2B7v160006Ev, symObjAddr: 0x1110, symBinAddr: 0x1000038B0, symSize: 0x20 }
  - { offsetInCU: 0xDAAA, offset: 0xDAAA, size: 0x8, addend: 0x0, symName: __ZNSt3__116__non_trivial_ifILb1ENS_9allocatorI7WayTypeEEEC2B7v160006Ev, symObjAddr: 0x1130, symBinAddr: 0x1000038D0, symSize: 0x10 }
  - { offsetInCU: 0xDAD4, offset: 0xDAD4, size: 0x8, addend: 0x0, symName: __ZNSt3__128__exception_guard_exceptionsINS_6vectorI7WayTypeNS_9allocatorIS2_EEE16__destroy_vectorEEC1B7v160006ES6_, symObjAddr: 0x1140, symBinAddr: 0x1000038E0, symSize: 0x30 }
  - { offsetInCU: 0xDB0C, offset: 0xDB0C, size: 0x8, addend: 0x0, symName: __ZNSt3__128__exception_guard_exceptionsINS_6vectorI7WayTypeNS_9allocatorIS2_EEE16__destroy_vectorEEC2B7v160006ES6_, symObjAddr: 0x1170, symBinAddr: 0x100003910, symSize: 0x20 }
  - { offsetInCU: 0xDB44, offset: 0xDB44, size: 0x8, addend: 0x0, symName: __ZNSt3__16vectorI7WayTypeNS_9allocatorIS1_EEE16__destroy_vectorC2ERS4_, symObjAddr: 0x1190, symBinAddr: 0x100003930, symSize: 0x20 }
  - { offsetInCU: 0xDB7D, offset: 0xDB7D, size: 0x8, addend: 0x0, symName: __ZNKSt3__16vectorI7WayTypeNS_9allocatorIS1_EEE8max_sizeEv, symObjAddr: 0x11B0, symBinAddr: 0x100003950, symSize: 0x60 }
  - { offsetInCU: 0xDBA5, offset: 0xDBA5, size: 0x8, addend: 0x0, symName: __ZNKSt3__16vectorI7WayTypeNS_9allocatorIS1_EEE20__throw_length_errorB7v160006Ev, symObjAddr: 0x1210, symBinAddr: 0x1000039B0, symSize: 0x20 }
  - { offsetInCU: 0xDBCB, offset: 0xDBCB, size: 0x8, addend: 0x0, symName: __ZNSt3__16vectorI7WayTypeNS_9allocatorIS1_EEE7__allocB7v160006Ev, symObjAddr: 0x1270, symBinAddr: 0x100003A10, symSize: 0x20 }
  - { offsetInCU: 0xDBF1, offset: 0xDBF1, size: 0x8, addend: 0x0, symName: __ZNSt3__16vectorI7WayTypeNS_9allocatorIS1_EEE9__end_capB7v160006Ev, symObjAddr: 0x1290, symBinAddr: 0x100003A30, symSize: 0x20 }
  - { offsetInCU: 0xDC17, offset: 0xDC17, size: 0x8, addend: 0x0, symName: __ZNKSt3__16vectorI7WayTypeNS_9allocatorIS1_EEE14__annotate_newB7v160006Em, symObjAddr: 0x12B0, symBinAddr: 0x100003A50, symSize: 0xB0 }
  - { offsetInCU: 0xDC56, offset: 0xDC56, size: 0x8, addend: 0x0, symName: __ZNSt3__116allocator_traitsINS_9allocatorI7WayTypeEEE8max_sizeB7v160006IS3_vvEEmRKS3_, symObjAddr: 0x1390, symBinAddr: 0x100003B30, symSize: 0x20 }
  - { offsetInCU: 0xDC82, offset: 0xDC82, size: 0x8, addend: 0x0, symName: __ZNKSt3__16vectorI7WayTypeNS_9allocatorIS1_EEE7__allocB7v160006Ev, symObjAddr: 0x13B0, symBinAddr: 0x100003B50, symSize: 0x20 }
  - { offsetInCU: 0xDCA8, offset: 0xDCA8, size: 0x8, addend: 0x0, symName: __ZNSt3__114numeric_limitsIlE3maxB7v160006Ev, symObjAddr: 0x13D0, symBinAddr: 0x100003B70, symSize: 0x10 }
  - { offsetInCU: 0xDCD0, offset: 0xDCD0, size: 0x8, addend: 0x0, symName: __ZNKSt3__16__lessImmEclB7v160006ERKmS3_, symObjAddr: 0x1440, symBinAddr: 0x100003BE0, symSize: 0x30 }
  - { offsetInCU: 0xDD12, offset: 0xDD12, size: 0x8, addend: 0x0, symName: __ZNSt3__114numeric_limitsImE3maxB7v160006Ev, symObjAddr: 0x1470, symBinAddr: 0x100003C10, symSize: 0x10 }
  - { offsetInCU: 0xDD26, offset: 0xDD26, size: 0x8, addend: 0x0, symName: __ZNSt3__123__libcpp_numeric_limitsImLb1EE3maxB7v160006Ev, symObjAddr: 0x1480, symBinAddr: 0x100003C20, symSize: 0x10 }
  - { offsetInCU: 0xDD3A, offset: 0xDD3A, size: 0x8, addend: 0x0, symName: __ZNKSt3__117__compressed_pairIP7WayTypeNS_9allocatorIS1_EEE6secondB7v160006Ev, symObjAddr: 0x1490, symBinAddr: 0x100003C30, symSize: 0x20 }
  - { offsetInCU: 0xDD60, offset: 0xDD60, size: 0x8, addend: 0x0, symName: __ZNKSt3__122__compressed_pair_elemINS_9allocatorI7WayTypeEELi1ELb1EE5__getB7v160006Ev, symObjAddr: 0x14B0, symBinAddr: 0x100003C50, symSize: 0x10 }
  - { offsetInCU: 0xDD86, offset: 0xDD86, size: 0x8, addend: 0x0, symName: __ZNSt3__123__libcpp_numeric_limitsIlLb1EE3maxB7v160006Ev, symObjAddr: 0x14C0, symBinAddr: 0x100003C60, symSize: 0x10 }
  - { offsetInCU: 0xDD9A, offset: 0xDD9A, size: 0x8, addend: 0x0, symName: __ZNSt12length_errorC1B7v160006EPKc, symObjAddr: 0x1540, symBinAddr: 0x100003CE0, symSize: 0x30 }
  - { offsetInCU: 0xDDD2, offset: 0xDDD2, size: 0x8, addend: 0x0, symName: __ZNSt12length_errorC2B7v160006EPKc, symObjAddr: 0x1570, symBinAddr: 0x100003D10, symSize: 0x40 }
  - { offsetInCU: 0xDE0A, offset: 0xDE0A, size: 0x8, addend: 0x0, symName: __ZNSt3__19allocatorI7WayTypeE17allocate_at_leastB7v160006Em, symObjAddr: 0x15F0, symBinAddr: 0x100003D90, symSize: 0x40 }
  - { offsetInCU: 0xDE3E, offset: 0xDE3E, size: 0x8, addend: 0x0, symName: __ZNSt3__19allocatorI7WayTypeE8allocateB7v160006Em, symObjAddr: 0x1630, symBinAddr: 0x100003DD0, symSize: 0x50 }
  - { offsetInCU: 0xDE72, offset: 0xDE72, size: 0x8, addend: 0x0, symName: __ZNSt3__117__compressed_pairIP7WayTypeNS_9allocatorIS1_EEE6secondB7v160006Ev, symObjAddr: 0x1790, symBinAddr: 0x100003F30, symSize: 0x20 }
  - { offsetInCU: 0xDE98, offset: 0xDE98, size: 0x8, addend: 0x0, symName: __ZNSt3__122__compressed_pair_elemINS_9allocatorI7WayTypeEELi1ELb1EE5__getB7v160006Ev, symObjAddr: 0x17B0, symBinAddr: 0x100003F50, symSize: 0x10 }
  - { offsetInCU: 0xDEBE, offset: 0xDEBE, size: 0x8, addend: 0x0, symName: __ZNSt3__117__compressed_pairIP7WayTypeNS_9allocatorIS1_EEE5firstB7v160006Ev, symObjAddr: 0x17C0, symBinAddr: 0x100003F60, symSize: 0x20 }
  - { offsetInCU: 0xDEE4, offset: 0xDEE4, size: 0x8, addend: 0x0, symName: __ZNSt3__122__compressed_pair_elemIP7WayTypeLi0ELb0EE5__getB7v160006Ev, symObjAddr: 0x17E0, symBinAddr: 0x100003F80, symSize: 0x10 }
  - { offsetInCU: 0xDF0A, offset: 0xDF0A, size: 0x8, addend: 0x0, symName: __ZNKSt3__16vectorI7WayTypeNS_9allocatorIS1_EEE31__annotate_contiguous_containerB7v160006EPKvS6_S6_S6_, symObjAddr: 0x17F0, symBinAddr: 0x100003F90, symSize: 0x20 }
  - { offsetInCU: 0xDF60, offset: 0xDF60, size: 0x8, addend: 0x0, symName: __ZNKSt3__16vectorI7WayTypeNS_9allocatorIS1_EEE4dataB7v160006Ev, symObjAddr: 0x1810, symBinAddr: 0x100003FB0, symSize: 0x20 }
  - { offsetInCU: 0xDF86, offset: 0xDF86, size: 0x8, addend: 0x0, symName: __ZNKSt3__16vectorI7WayTypeNS_9allocatorIS1_EEE8capacityB7v160006Ev, symObjAddr: 0x1830, symBinAddr: 0x100003FD0, symSize: 0x30 }
  - { offsetInCU: 0xDFAC, offset: 0xDFAC, size: 0x8, addend: 0x0, symName: __ZNKSt3__16vectorI7WayTypeNS_9allocatorIS1_EEE9__end_capB7v160006Ev, symObjAddr: 0x1870, symBinAddr: 0x100004010, symSize: 0x20 }
  - { offsetInCU: 0xDFD2, offset: 0xDFD2, size: 0x8, addend: 0x0, symName: __ZNKSt3__117__compressed_pairIP7WayTypeNS_9allocatorIS1_EEE5firstB7v160006Ev, symObjAddr: 0x1890, symBinAddr: 0x100004030, symSize: 0x20 }
  - { offsetInCU: 0xDFF8, offset: 0xDFF8, size: 0x8, addend: 0x0, symName: __ZNKSt3__122__compressed_pair_elemIP7WayTypeLi0ELb0EE5__getB7v160006Ev, symObjAddr: 0x18B0, symBinAddr: 0x100004050, symSize: 0x10 }
  - { offsetInCU: 0xE037, offset: 0xE037, size: 0x8, addend: 0x0, symName: __ZNSt3__16vectorI7WayTypeNS_9allocatorIS1_EEE21_ConstructTransactionC1B7v160006ERS4_m, symObjAddr: 0x18C0, symBinAddr: 0x100004060, symSize: 0x30 }
  - { offsetInCU: 0xE084, offset: 0xE084, size: 0x8, addend: 0x0, symName: __ZNSt3__116allocator_traitsINS_9allocatorI7WayTypeEEE9constructB7v160006IS2_JRKS2_EvvEEvRS3_PT_DpOT0_, symObjAddr: 0x18F0, symBinAddr: 0x100004090, symSize: 0x30 }
  - { offsetInCU: 0xE0D9, offset: 0xE0D9, size: 0x8, addend: 0x0, symName: __ZNSt3__16vectorI7WayTypeNS_9allocatorIS1_EEE21_ConstructTransactionD1B7v160006Ev, symObjAddr: 0x1920, symBinAddr: 0x1000040C0, symSize: 0x20 }
  - { offsetInCU: 0xE103, offset: 0xE103, size: 0x8, addend: 0x0, symName: __ZNSt3__16vectorI7WayTypeNS_9allocatorIS1_EEE21_ConstructTransactionC2B7v160006ERS4_m, symObjAddr: 0x1940, symBinAddr: 0x1000040E0, symSize: 0x40 }
  - { offsetInCU: 0xE14B, offset: 0xE14B, size: 0x8, addend: 0x0, symName: __ZNSt3__16vectorI7WayTypeNS_9allocatorIS1_EEE21_ConstructTransactionD2B7v160006Ev, symObjAddr: 0x19B0, symBinAddr: 0x100004150, symSize: 0x20 }
  - { offsetInCU: 0xE175, offset: 0xE175, size: 0x8, addend: 0x0, symName: __ZNSt3__128__exception_guard_exceptionsINS_6vectorI7WayTypeNS_9allocatorIS2_EEE16__destroy_vectorEED2B7v160006Ev, symObjAddr: 0x19D0, symBinAddr: 0x100004170, symSize: 0x40 }
  - { offsetInCU: 0xE19F, offset: 0xE19F, size: 0x8, addend: 0x0, symName: __ZNSt3__16vectorI7WayTypeNS_9allocatorIS1_EEE16__destroy_vectorclB7v160006Ev, symObjAddr: 0x1A10, symBinAddr: 0x1000041B0, symSize: 0x90 }
  - { offsetInCU: 0xE1C5, offset: 0xE1C5, size: 0x8, addend: 0x0, symName: __ZNKSt3__16vectorI7WayTypeNS_9allocatorIS1_EEE17__annotate_deleteB7v160006Ev, symObjAddr: 0x1AA0, symBinAddr: 0x100004240, symSize: 0xB0 }
  - { offsetInCU: 0xE1EB, offset: 0xE1EB, size: 0x8, addend: 0x0, symName: __ZNSt3__16vectorI7WayTypeNS_9allocatorIS1_EEE7__clearB7v160006Ev, symObjAddr: 0x1B60, symBinAddr: 0x100004300, symSize: 0x20 }
  - { offsetInCU: 0xE211, offset: 0xE211, size: 0x8, addend: 0x0, symName: __ZNSt3__116allocator_traitsINS_9allocatorI7WayTypeEEE10deallocateB7v160006ERS3_PS2_m, symObjAddr: 0x1B80, symBinAddr: 0x100004320, symSize: 0x30 }
  - { offsetInCU: 0xE253, offset: 0xE253, size: 0x8, addend: 0x0, symName: __ZNKSt3__16vectorI7WayTypeNS_9allocatorIS1_EEE4sizeB7v160006Ev, symObjAddr: 0x1BB0, symBinAddr: 0x100004350, symSize: 0x20 }
  - { offsetInCU: 0xE279, offset: 0xE279, size: 0x8, addend: 0x0, symName: __ZNSt3__16vectorI7WayTypeNS_9allocatorIS1_EEE22__base_destruct_at_endB7v160006EPS1_, symObjAddr: 0x1BD0, symBinAddr: 0x100004370, symSize: 0x80 }
  - { offsetInCU: 0xE2BD, offset: 0xE2BD, size: 0x8, addend: 0x0, symName: __ZNSt3__116allocator_traitsINS_9allocatorI7WayTypeEEE7destroyB7v160006IS2_vvEEvRS3_PT_, symObjAddr: 0x1C50, symBinAddr: 0x1000043F0, symSize: 0x20 }
  - { offsetInCU: 0xE2F8, offset: 0xE2F8, size: 0x8, addend: 0x0, symName: __ZNSt3__19allocatorI7WayTypeE10deallocateB7v160006EPS1_m, symObjAddr: 0x1CA0, symBinAddr: 0x100004440, symSize: 0x40 }
  - { offsetInCU: 0xE33A, offset: 0xE33A, size: 0x8, addend: 0x0, symName: __ZNSt3__16vectorINS0_I7WayTypeNS_9allocatorIS1_EEEENS2_IS4_EEEC2EmRKS4_, symObjAddr: 0x1DE0, symBinAddr: 0x100004580, symSize: 0xE0 }
  - { offsetInCU: 0xE399, offset: 0xE399, size: 0x8, addend: 0x0, symName: __ZNSt3__117__compressed_pairIPNS_6vectorI7WayTypeNS_9allocatorIS2_EEEENS3_IS5_EEEC1B7v160006IDnNS_18__default_init_tagEEEOT_OT0_, symObjAddr: 0x1EC0, symBinAddr: 0x100004660, symSize: 0x30 }
  - { offsetInCU: 0xE3F1, offset: 0xE3F1, size: 0x8, addend: 0x0, symName: __ZNSt3__16vectorINS0_I7WayTypeNS_9allocatorIS1_EEEENS2_IS4_EEE16__destroy_vectorC1ERS6_, symObjAddr: 0x1F30, symBinAddr: 0x1000046D0, symSize: 0x30 }
  - { offsetInCU: 0xE42A, offset: 0xE42A, size: 0x8, addend: 0x0, symName: __ZNSt3__16vectorINS0_I7WayTypeNS_9allocatorIS1_EEEENS2_IS4_EEE11__vallocateB7v160006Em, symObjAddr: 0x1F70, symBinAddr: 0x100004710, symSize: 0xA0 }
  - { offsetInCU: 0xE46E, offset: 0xE46E, size: 0x8, addend: 0x0, symName: __ZNSt3__16vectorINS0_I7WayTypeNS_9allocatorIS1_EEEENS2_IS4_EEE18__construct_at_endEmRKS4_, symObjAddr: 0x2010, symBinAddr: 0x1000047B0, symSize: 0xC0 }
  - { offsetInCU: 0xE4EF, offset: 0xE4EF, size: 0x8, addend: 0x0, symName: __ZNSt3__128__exception_guard_exceptionsINS_6vectorINS1_I7WayTypeNS_9allocatorIS2_EEEENS3_IS5_EEE16__destroy_vectorEE10__completeB7v160006Ev, symObjAddr: 0x20D0, symBinAddr: 0x100004870, symSize: 0x20 }
  - { offsetInCU: 0xE515, offset: 0xE515, size: 0x8, addend: 0x0, symName: __ZNSt3__128__exception_guard_exceptionsINS_6vectorINS1_I7WayTypeNS_9allocatorIS2_EEEENS3_IS5_EEE16__destroy_vectorEED1B7v160006Ev, symObjAddr: 0x20F0, symBinAddr: 0x100004890, symSize: 0x20 }
  - { offsetInCU: 0xE53F, offset: 0xE53F, size: 0x8, addend: 0x0, symName: __ZNSt3__117__compressed_pairIPNS_6vectorI7WayTypeNS_9allocatorIS2_EEEENS3_IS5_EEEC2B7v160006IDnNS_18__default_init_tagEEEOT_OT0_, symObjAddr: 0x2110, symBinAddr: 0x1000048B0, symSize: 0x40 }
  - { offsetInCU: 0xE597, offset: 0xE597, size: 0x8, addend: 0x0, symName: __ZNSt3__122__compressed_pair_elemIPNS_6vectorI7WayTypeNS_9allocatorIS2_EEEELi0ELb0EEC2B7v160006IDnvEEOT_, symObjAddr: 0x2150, symBinAddr: 0x1000048F0, symSize: 0x20 }
  - { offsetInCU: 0xE5D9, offset: 0xE5D9, size: 0x8, addend: 0x0, symName: __ZNSt3__122__compressed_pair_elemINS_9allocatorINS_6vectorI7WayTypeNS1_IS3_EEEEEELi1ELb1EEC2B7v160006ENS_18__default_init_tagE, symObjAddr: 0x2170, symBinAddr: 0x100004910, symSize: 0x20 }
  - { offsetInCU: 0xE60D, offset: 0xE60D, size: 0x8, addend: 0x0, symName: __ZNSt3__19allocatorINS_6vectorI7WayTypeNS0_IS2_EEEEEC2B7v160006Ev, symObjAddr: 0x2190, symBinAddr: 0x100004930, symSize: 0x20 }
  - { offsetInCU: 0xE637, offset: 0xE637, size: 0x8, addend: 0x0, symName: __ZNSt3__116__non_trivial_ifILb1ENS_9allocatorINS_6vectorI7WayTypeNS1_IS3_EEEEEEEC2B7v160006Ev, symObjAddr: 0x21B0, symBinAddr: 0x100004950, symSize: 0x10 }
  - { offsetInCU: 0xE661, offset: 0xE661, size: 0x8, addend: 0x0, symName: __ZNSt3__128__exception_guard_exceptionsINS_6vectorINS1_I7WayTypeNS_9allocatorIS2_EEEENS3_IS5_EEE16__destroy_vectorEEC1B7v160006ES8_, symObjAddr: 0x21C0, symBinAddr: 0x100004960, symSize: 0x30 }
  - { offsetInCU: 0xE699, offset: 0xE699, size: 0x8, addend: 0x0, symName: __ZNSt3__128__exception_guard_exceptionsINS_6vectorINS1_I7WayTypeNS_9allocatorIS2_EEEENS3_IS5_EEE16__destroy_vectorEEC2B7v160006ES8_, symObjAddr: 0x21F0, symBinAddr: 0x100004990, symSize: 0x20 }
  - { offsetInCU: 0xE6D1, offset: 0xE6D1, size: 0x8, addend: 0x0, symName: __ZNSt3__16vectorINS0_I7WayTypeNS_9allocatorIS1_EEEENS2_IS4_EEE16__destroy_vectorC2ERS6_, symObjAddr: 0x2210, symBinAddr: 0x1000049B0, symSize: 0x20 }
  - { offsetInCU: 0xE70A, offset: 0xE70A, size: 0x8, addend: 0x0, symName: __ZNKSt3__16vectorINS0_I7WayTypeNS_9allocatorIS1_EEEENS2_IS4_EEE8max_sizeEv, symObjAddr: 0x2230, symBinAddr: 0x1000049D0, symSize: 0x60 }
  - { offsetInCU: 0xE732, offset: 0xE732, size: 0x8, addend: 0x0, symName: __ZNKSt3__16vectorINS0_I7WayTypeNS_9allocatorIS1_EEEENS2_IS4_EEE20__throw_length_errorB7v160006Ev, symObjAddr: 0x2290, symBinAddr: 0x100004A30, symSize: 0x20 }
  - { offsetInCU: 0xE758, offset: 0xE758, size: 0x8, addend: 0x0, symName: __ZNSt3__16vectorINS0_I7WayTypeNS_9allocatorIS1_EEEENS2_IS4_EEE7__allocB7v160006Ev, symObjAddr: 0x22F0, symBinAddr: 0x100004A90, symSize: 0x20 }
  - { offsetInCU: 0xE77E, offset: 0xE77E, size: 0x8, addend: 0x0, symName: __ZNSt3__16vectorINS0_I7WayTypeNS_9allocatorIS1_EEEENS2_IS4_EEE9__end_capB7v160006Ev, symObjAddr: 0x2310, symBinAddr: 0x100004AB0, symSize: 0x20 }
  - { offsetInCU: 0xE7A4, offset: 0xE7A4, size: 0x8, addend: 0x0, symName: __ZNKSt3__16vectorINS0_I7WayTypeNS_9allocatorIS1_EEEENS2_IS4_EEE14__annotate_newB7v160006Em, symObjAddr: 0x2330, symBinAddr: 0x100004AD0, symSize: 0xA0 }
  - { offsetInCU: 0xE7E3, offset: 0xE7E3, size: 0x8, addend: 0x0, symName: __ZNSt3__116allocator_traitsINS_9allocatorINS_6vectorI7WayTypeNS1_IS3_EEEEEEE8max_sizeB7v160006IS6_vvEEmRKS6_, symObjAddr: 0x23D0, symBinAddr: 0x100004B70, symSize: 0x30 }
  - { offsetInCU: 0xE80F, offset: 0xE80F, size: 0x8, addend: 0x0, symName: __ZNKSt3__16vectorINS0_I7WayTypeNS_9allocatorIS1_EEEENS2_IS4_EEE7__allocB7v160006Ev, symObjAddr: 0x2400, symBinAddr: 0x100004BA0, symSize: 0x20 }
  - { offsetInCU: 0xE835, offset: 0xE835, size: 0x8, addend: 0x0, symName: __ZNKSt3__117__compressed_pairIPNS_6vectorI7WayTypeNS_9allocatorIS2_EEEENS3_IS5_EEE6secondB7v160006Ev, symObjAddr: 0x2420, symBinAddr: 0x100004BC0, symSize: 0x20 }
  - { offsetInCU: 0xE85B, offset: 0xE85B, size: 0x8, addend: 0x0, symName: __ZNKSt3__122__compressed_pair_elemINS_9allocatorINS_6vectorI7WayTypeNS1_IS3_EEEEEELi1ELb1EE5__getB7v160006Ev, symObjAddr: 0x2440, symBinAddr: 0x100004BE0, symSize: 0x10 }
  - { offsetInCU: 0xE881, offset: 0xE881, size: 0x8, addend: 0x0, symName: __ZNSt3__19allocatorINS_6vectorI7WayTypeNS0_IS2_EEEEE17allocate_at_leastB7v160006Em, symObjAddr: 0x2490, symBinAddr: 0x100004C30, symSize: 0x40 }
  - { offsetInCU: 0xE8B5, offset: 0xE8B5, size: 0x8, addend: 0x0, symName: __ZNSt3__19allocatorINS_6vectorI7WayTypeNS0_IS2_EEEEE8allocateB7v160006Em, symObjAddr: 0x24D0, symBinAddr: 0x100004C70, symSize: 0x50 }
  - { offsetInCU: 0xE8E9, offset: 0xE8E9, size: 0x8, addend: 0x0, symName: __ZNSt3__117__compressed_pairIPNS_6vectorI7WayTypeNS_9allocatorIS2_EEEENS3_IS5_EEE6secondB7v160006Ev, symObjAddr: 0x2520, symBinAddr: 0x100004CC0, symSize: 0x20 }
  - { offsetInCU: 0xE90F, offset: 0xE90F, size: 0x8, addend: 0x0, symName: __ZNSt3__122__compressed_pair_elemINS_9allocatorINS_6vectorI7WayTypeNS1_IS3_EEEEEELi1ELb1EE5__getB7v160006Ev, symObjAddr: 0x2540, symBinAddr: 0x100004CE0, symSize: 0x10 }
  - { offsetInCU: 0xE935, offset: 0xE935, size: 0x8, addend: 0x0, symName: __ZNSt3__117__compressed_pairIPNS_6vectorI7WayTypeNS_9allocatorIS2_EEEENS3_IS5_EEE5firstB7v160006Ev, symObjAddr: 0x2550, symBinAddr: 0x100004CF0, symSize: 0x20 }
  - { offsetInCU: 0xE95B, offset: 0xE95B, size: 0x8, addend: 0x0, symName: __ZNSt3__122__compressed_pair_elemIPNS_6vectorI7WayTypeNS_9allocatorIS2_EEEELi0ELb0EE5__getB7v160006Ev, symObjAddr: 0x2570, symBinAddr: 0x100004D10, symSize: 0x10 }
  - { offsetInCU: 0xE981, offset: 0xE981, size: 0x8, addend: 0x0, symName: __ZNKSt3__16vectorINS0_I7WayTypeNS_9allocatorIS1_EEEENS2_IS4_EEE31__annotate_contiguous_containerB7v160006EPKvS8_S8_S8_, symObjAddr: 0x2580, symBinAddr: 0x100004D20, symSize: 0x20 }
  - { offsetInCU: 0xE9D7, offset: 0xE9D7, size: 0x8, addend: 0x0, symName: __ZNKSt3__16vectorINS0_I7WayTypeNS_9allocatorIS1_EEEENS2_IS4_EEE4dataB7v160006Ev, symObjAddr: 0x25A0, symBinAddr: 0x100004D40, symSize: 0x20 }
  - { offsetInCU: 0xE9FD, offset: 0xE9FD, size: 0x8, addend: 0x0, symName: __ZNKSt3__16vectorINS0_I7WayTypeNS_9allocatorIS1_EEEENS2_IS4_EEE8capacityB7v160006Ev, symObjAddr: 0x25C0, symBinAddr: 0x100004D60, symSize: 0x40 }
  - { offsetInCU: 0xEA23, offset: 0xEA23, size: 0x8, addend: 0x0, symName: __ZNKSt3__16vectorINS0_I7WayTypeNS_9allocatorIS1_EEEENS2_IS4_EEE9__end_capB7v160006Ev, symObjAddr: 0x2610, symBinAddr: 0x100004DB0, symSize: 0x20 }
  - { offsetInCU: 0xEA49, offset: 0xEA49, size: 0x8, addend: 0x0, symName: __ZNKSt3__117__compressed_pairIPNS_6vectorI7WayTypeNS_9allocatorIS2_EEEENS3_IS5_EEE5firstB7v160006Ev, symObjAddr: 0x2630, symBinAddr: 0x100004DD0, symSize: 0x20 }
  - { offsetInCU: 0xEA6F, offset: 0xEA6F, size: 0x8, addend: 0x0, symName: __ZNKSt3__122__compressed_pair_elemIPNS_6vectorI7WayTypeNS_9allocatorIS2_EEEELi0ELb0EE5__getB7v160006Ev, symObjAddr: 0x2650, symBinAddr: 0x100004DF0, symSize: 0x10 }
  - { offsetInCU: 0xEAAE, offset: 0xEAAE, size: 0x8, addend: 0x0, symName: __ZNSt3__16vectorINS0_I7WayTypeNS_9allocatorIS1_EEEENS2_IS4_EEE21_ConstructTransactionC1B7v160006ERS6_m, symObjAddr: 0x2660, symBinAddr: 0x100004E00, symSize: 0x30 }
  - { offsetInCU: 0xEAF6, offset: 0xEAF6, size: 0x8, addend: 0x0, symName: __ZNSt3__116allocator_traitsINS_9allocatorINS_6vectorI7WayTypeNS1_IS3_EEEEEEE9constructB7v160006IS5_JRKS5_EvvEEvRS6_PT_DpOT0_, symObjAddr: 0x2690, symBinAddr: 0x100004E30, symSize: 0x30 }
  - { offsetInCU: 0xEB4B, offset: 0xEB4B, size: 0x8, addend: 0x0, symName: __ZNSt3__16vectorINS0_I7WayTypeNS_9allocatorIS1_EEEENS2_IS4_EEE21_ConstructTransactionD1B7v160006Ev, symObjAddr: 0x26C0, symBinAddr: 0x100004E60, symSize: 0x20 }
  - { offsetInCU: 0xEB75, offset: 0xEB75, size: 0x8, addend: 0x0, symName: __ZNSt3__16vectorINS0_I7WayTypeNS_9allocatorIS1_EEEENS2_IS4_EEE21_ConstructTransactionC2B7v160006ERS6_m, symObjAddr: 0x26E0, symBinAddr: 0x100004E80, symSize: 0x40 }
  - { offsetInCU: 0xEBBD, offset: 0xEBBD, size: 0x8, addend: 0x0, symName: __ZNSt3__16vectorI7WayTypeNS_9allocatorIS1_EEEC1ERKS4_, symObjAddr: 0x2760, symBinAddr: 0x100004F00, symSize: 0x30 }
  - { offsetInCU: 0xEBF8, offset: 0xEBF8, size: 0x8, addend: 0x0, symName: __ZNSt3__16vectorI7WayTypeNS_9allocatorIS1_EEEC2ERKS4_, symObjAddr: 0x2790, symBinAddr: 0x100004F30, symSize: 0x110 }
  - { offsetInCU: 0xEC58, offset: 0xEC58, size: 0x8, addend: 0x0, symName: __ZNSt3__116allocator_traitsINS_9allocatorI7WayTypeEEE37select_on_container_copy_constructionB7v160006IS3_vvEES3_RKS3_, symObjAddr: 0x28A0, symBinAddr: 0x100005040, symSize: 0x10 }
  - { offsetInCU: 0xEC8D, offset: 0xEC8D, size: 0x8, addend: 0x0, symName: __ZNSt3__117__compressed_pairIP7WayTypeNS_9allocatorIS1_EEEC1B7v160006IDnS4_EEOT_OT0_, symObjAddr: 0x28B0, symBinAddr: 0x100005050, symSize: 0x30 }
  - { offsetInCU: 0xECE5, offset: 0xECE5, size: 0x8, addend: 0x0, symName: __ZNSt3__16vectorI7WayTypeNS_9allocatorIS1_EEE18__construct_at_endIPS1_Li0EEEvT_S7_m, symObjAddr: 0x28E0, symBinAddr: 0x100005080, symSize: 0x90 }
  - { offsetInCU: 0xED58, offset: 0xED58, size: 0x8, addend: 0x0, symName: __ZNSt3__117__compressed_pairIP7WayTypeNS_9allocatorIS1_EEEC2B7v160006IDnS4_EEOT_OT0_, symObjAddr: 0x2970, symBinAddr: 0x100005110, symSize: 0x40 }
  - { offsetInCU: 0xEDB0, offset: 0xEDB0, size: 0x8, addend: 0x0, symName: __ZNSt3__122__compressed_pair_elemINS_9allocatorI7WayTypeEELi1ELb1EEC2B7v160006IS3_vEEOT_, symObjAddr: 0x29B0, symBinAddr: 0x100005150, symSize: 0x10 }
  - { offsetInCU: 0xEDF2, offset: 0xEDF2, size: 0x8, addend: 0x0, symName: __ZNSt3__129_AllocatorDestroyRangeReverseINS_9allocatorI7WayTypeEEPS2_EC1B7v160006ERS3_RS4_S7_, symObjAddr: 0x2B20, symBinAddr: 0x1000052C0, symSize: 0x40 }
  - { offsetInCU: 0xEE49, offset: 0xEE49, size: 0x8, addend: 0x0, symName: __ZNSt3__116allocator_traitsINS_9allocatorI7WayTypeEEE9constructB7v160006IS2_JRS2_EvvEEvRS3_PT_DpOT0_, symObjAddr: 0x2B60, symBinAddr: 0x100005300, symSize: 0x30 }
  - { offsetInCU: 0xEE9E, offset: 0xEE9E, size: 0x8, addend: 0x0, symName: __ZNSt3__128__exception_guard_exceptionsINS_29_AllocatorDestroyRangeReverseINS_9allocatorI7WayTypeEEPS3_EEE10__completeB7v160006Ev, symObjAddr: 0x2B90, symBinAddr: 0x100005330, symSize: 0x20 }
  - { offsetInCU: 0xEEC4, offset: 0xEEC4, size: 0x8, addend: 0x0, symName: __ZNSt3__128__exception_guard_exceptionsINS_29_AllocatorDestroyRangeReverseINS_9allocatorI7WayTypeEEPS3_EEED1B7v160006Ev, symObjAddr: 0x2BB0, symBinAddr: 0x100005350, symSize: 0x20 }
  - { offsetInCU: 0xEEEE, offset: 0xEEEE, size: 0x8, addend: 0x0, symName: __ZNSt3__128__exception_guard_exceptionsINS_29_AllocatorDestroyRangeReverseINS_9allocatorI7WayTypeEEPS3_EEEC1B7v160006ES6_, symObjAddr: 0x2BD0, symBinAddr: 0x100005370, symSize: 0x40 }
  - { offsetInCU: 0xEF26, offset: 0xEF26, size: 0x8, addend: 0x0, symName: __ZNSt3__128__exception_guard_exceptionsINS_29_AllocatorDestroyRangeReverseINS_9allocatorI7WayTypeEEPS3_EEEC2B7v160006ES6_, symObjAddr: 0x2C10, symBinAddr: 0x1000053B0, symSize: 0x30 }
  - { offsetInCU: 0xEF5E, offset: 0xEF5E, size: 0x8, addend: 0x0, symName: __ZNSt3__129_AllocatorDestroyRangeReverseINS_9allocatorI7WayTypeEEPS2_EC2B7v160006ERS3_RS4_S7_, symObjAddr: 0x2C40, symBinAddr: 0x1000053E0, symSize: 0x40 }
  - { offsetInCU: 0xEFB5, offset: 0xEFB5, size: 0x8, addend: 0x0, symName: __ZNSt3__128__exception_guard_exceptionsINS_29_AllocatorDestroyRangeReverseINS_9allocatorI7WayTypeEEPS3_EEED2B7v160006Ev, symObjAddr: 0x2CB0, symBinAddr: 0x100005450, symSize: 0x40 }
  - { offsetInCU: 0xEFDF, offset: 0xEFDF, size: 0x8, addend: 0x0, symName: __ZNKSt3__129_AllocatorDestroyRangeReverseINS_9allocatorI7WayTypeEEPS2_EclB7v160006Ev, symObjAddr: 0x2CF0, symBinAddr: 0x100005490, symSize: 0x60 }
  - { offsetInCU: 0xF005, offset: 0xF005, size: 0x8, addend: 0x0, symName: __ZNSt3__116reverse_iteratorIP7WayTypeEC1B7v160006ES2_, symObjAddr: 0x2DC0, symBinAddr: 0x100005560, symSize: 0x30 }
  - { offsetInCU: 0xF03D, offset: 0xF03D, size: 0x8, addend: 0x0, symName: __ZNSt3__116reverse_iteratorIP7WayTypeEppB7v160006Ev, symObjAddr: 0x2E50, symBinAddr: 0x1000055F0, symSize: 0x20 }
  - { offsetInCU: 0xF063, offset: 0xF063, size: 0x8, addend: 0x0, symName: __ZNKSt3__116reverse_iteratorIP7WayTypeE4baseB7v160006Ev, symObjAddr: 0x2E70, symBinAddr: 0x100005610, symSize: 0x20 }
  - { offsetInCU: 0xF08E, offset: 0xF08E, size: 0x8, addend: 0x0, symName: __ZNSt3__119__to_address_helperINS_16reverse_iteratorIP7WayTypeEEvE6__callB7v160006ERKS4_, symObjAddr: 0x2E90, symBinAddr: 0x100005630, symSize: 0x40 }
  - { offsetInCU: 0xF0B1, offset: 0xF0B1, size: 0x8, addend: 0x0, symName: __ZNKSt3__116reverse_iteratorIP7WayTypeEptB7v160006Ev, symObjAddr: 0x2ED0, symBinAddr: 0x100005670, symSize: 0x30 }
  - { offsetInCU: 0xF0D7, offset: 0xF0D7, size: 0x8, addend: 0x0, symName: __ZNSt3__116reverse_iteratorIP7WayTypeEC2B7v160006ES2_, symObjAddr: 0x2FD0, symBinAddr: 0x100005770, symSize: 0x30 }
  - { offsetInCU: 0xF10F, offset: 0xF10F, size: 0x8, addend: 0x0, symName: __ZNSt3__16vectorINS0_I7WayTypeNS_9allocatorIS1_EEEENS2_IS4_EEE21_ConstructTransactionD2B7v160006Ev, symObjAddr: 0x3000, symBinAddr: 0x1000057A0, symSize: 0x20 }
  - { offsetInCU: 0xF139, offset: 0xF139, size: 0x8, addend: 0x0, symName: __ZNSt3__128__exception_guard_exceptionsINS_6vectorINS1_I7WayTypeNS_9allocatorIS2_EEEENS3_IS5_EEE16__destroy_vectorEED2B7v160006Ev, symObjAddr: 0x3020, symBinAddr: 0x1000057C0, symSize: 0x40 }
  - { offsetInCU: 0xF163, offset: 0xF163, size: 0x8, addend: 0x0, symName: __ZNSt3__16vectorINS0_I7WayTypeNS_9allocatorIS1_EEEENS2_IS4_EEE16__destroy_vectorclB7v160006Ev, symObjAddr: 0x3060, symBinAddr: 0x100005800, symSize: 0x90 }
  - { offsetInCU: 0xF189, offset: 0xF189, size: 0x8, addend: 0x0, symName: __ZNKSt3__16vectorINS0_I7WayTypeNS_9allocatorIS1_EEEENS2_IS4_EEE17__annotate_deleteB7v160006Ev, symObjAddr: 0x30F0, symBinAddr: 0x100005890, symSize: 0xB0 }
  - { offsetInCU: 0xF1AF, offset: 0xF1AF, size: 0x8, addend: 0x0, symName: __ZNSt3__16vectorINS0_I7WayTypeNS_9allocatorIS1_EEEENS2_IS4_EEE7__clearB7v160006Ev, symObjAddr: 0x31B0, symBinAddr: 0x100005950, symSize: 0x20 }
  - { offsetInCU: 0xF1D5, offset: 0xF1D5, size: 0x8, addend: 0x0, symName: __ZNSt3__116allocator_traitsINS_9allocatorINS_6vectorI7WayTypeNS1_IS3_EEEEEEE10deallocateB7v160006ERS6_PS5_m, symObjAddr: 0x31D0, symBinAddr: 0x100005970, symSize: 0x30 }
  - { offsetInCU: 0xF217, offset: 0xF217, size: 0x8, addend: 0x0, symName: __ZNSt3__16vectorINS0_I7WayTypeNS_9allocatorIS1_EEEENS2_IS4_EEE22__base_destruct_at_endB7v160006EPS4_, symObjAddr: 0x3200, symBinAddr: 0x1000059A0, symSize: 0x80 }
  - { offsetInCU: 0xF25B, offset: 0xF25B, size: 0x8, addend: 0x0, symName: __ZNSt3__116allocator_traitsINS_9allocatorINS_6vectorI7WayTypeNS1_IS3_EEEEEEE7destroyB7v160006IS5_vvEEvRS6_PT_, symObjAddr: 0x3280, symBinAddr: 0x100005A20, symSize: 0x20 }
  - { offsetInCU: 0xF296, offset: 0xF296, size: 0x8, addend: 0x0, symName: __ZNSt3__19allocatorINS_6vectorI7WayTypeNS0_IS2_EEEEE10deallocateB7v160006EPS4_m, symObjAddr: 0x32E0, symBinAddr: 0x100005A80, symSize: 0x50 }
  - { offsetInCU: 0xF2D8, offset: 0xF2D8, size: 0x8, addend: 0x0, symName: __ZNSt3__16vectorI7WayTypeNS_9allocatorIS1_EEED2B7v160006Ev, symObjAddr: 0x3330, symBinAddr: 0x100005AD0, symSize: 0x40 }
  - { offsetInCU: 0xF302, offset: 0xF302, size: 0x8, addend: 0x0, symName: __ZNSt3__112basic_stringIcNS_11char_traitsIcEENS_9allocatorIcEEEC2B7v160006Ev, symObjAddr: 0x3370, symBinAddr: 0x100005B10, symSize: 0x50 }
  - { offsetInCU: 0xF32C, offset: 0xF32C, size: 0x8, addend: 0x0, symName: __ZNSt3__117__compressed_pairINS_12basic_stringIcNS_11char_traitsIcEENS_9allocatorIcEEE5__repES5_EC1B7v160006INS_18__default_init_tagESA_EEOT_OT0_, symObjAddr: 0x33C0, symBinAddr: 0x100005B60, symSize: 0x30 }
  - { offsetInCU: 0xF384, offset: 0xF384, size: 0x8, addend: 0x0, symName: __ZNSt3__112basic_stringIcNS_11char_traitsIcEENS_9allocatorIcEEE14__default_initB7v160006Ev, symObjAddr: 0x3400, symBinAddr: 0x100005BA0, symSize: 0x50 }
  - { offsetInCU: 0xF3AA, offset: 0xF3AA, size: 0x8, addend: 0x0, symName: __ZNSt3__117__compressed_pairINS_12basic_stringIcNS_11char_traitsIcEENS_9allocatorIcEEE5__repES5_EC2B7v160006INS_18__default_init_tagESA_EEOT_OT0_, symObjAddr: 0x3450, symBinAddr: 0x100005BF0, symSize: 0x30 }
  - { offsetInCU: 0xF402, offset: 0xF402, size: 0x8, addend: 0x0, symName: __ZNSt3__122__compressed_pair_elemINS_12basic_stringIcNS_11char_traitsIcEENS_9allocatorIcEEE5__repELi0ELb0EEC2B7v160006ENS_18__default_init_tagE, symObjAddr: 0x3480, symBinAddr: 0x100005C20, symSize: 0x10 }
  - { offsetInCU: 0xF436, offset: 0xF436, size: 0x8, addend: 0x0, symName: __ZNSt3__122__compressed_pair_elemINS_9allocatorIcEELi1ELb1EEC2B7v160006ENS_18__default_init_tagE, symObjAddr: 0x3490, symBinAddr: 0x100005C30, symSize: 0x20 }
  - { offsetInCU: 0xF46A, offset: 0xF46A, size: 0x8, addend: 0x0, symName: __ZNSt3__19allocatorIcEC2B7v160006Ev, symObjAddr: 0x34B0, symBinAddr: 0x100005C50, symSize: 0x20 }
  - { offsetInCU: 0xF494, offset: 0xF494, size: 0x8, addend: 0x0, symName: __ZNSt3__116__non_trivial_ifILb1ENS_9allocatorIcEEEC2B7v160006Ev, symObjAddr: 0x34D0, symBinAddr: 0x100005C70, symSize: 0x10 }
  - { offsetInCU: 0xF4BE, offset: 0xF4BE, size: 0x8, addend: 0x0, symName: __ZNSt3__117__compressed_pairINS_12basic_stringIcNS_11char_traitsIcEENS_9allocatorIcEEE5__repES5_E5firstB7v160006Ev, symObjAddr: 0x34E0, symBinAddr: 0x100005C80, symSize: 0x20 }
  - { offsetInCU: 0xF4E4, offset: 0xF4E4, size: 0x8, addend: 0x0, symName: __ZNSt3__122__compressed_pair_elemINS_12basic_stringIcNS_11char_traitsIcEENS_9allocatorIcEEE5__repELi0ELb0EE5__getB7v160006Ev, symObjAddr: 0x3500, symBinAddr: 0x100005CA0, symSize: 0x10 }
  - { offsetInCU: 0xF50A, offset: 0xF50A, size: 0x8, addend: 0x0, symName: __ZNKSt3__16vectorINS0_I7WayTypeNS_9allocatorIS1_EEEENS2_IS4_EEE20__throw_out_of_rangeB7v160006Ev, symObjAddr: 0x3510, symBinAddr: 0x100005CB0, symSize: 0x20 }
  - { offsetInCU: 0xF530, offset: 0xF530, size: 0x8, addend: 0x0, symName: __ZNSt12out_of_rangeC1B7v160006EPKc, symObjAddr: 0x35A0, symBinAddr: 0x100005D40, symSize: 0x30 }
  - { offsetInCU: 0xF568, offset: 0xF568, size: 0x8, addend: 0x0, symName: __ZNSt12out_of_rangeC2B7v160006EPKc, symObjAddr: 0x35D0, symBinAddr: 0x100005D70, symSize: 0x40 }
  - { offsetInCU: 0xF5A0, offset: 0xF5A0, size: 0x8, addend: 0x0, symName: __ZNKSt3__16vectorI7WayTypeNS_9allocatorIS1_EEE20__throw_out_of_rangeB7v160006Ev, symObjAddr: 0x3610, symBinAddr: 0x100005DB0, symSize: 0x20 }
  - { offsetInCU: 0xF5C6, offset: 0xF5C6, size: 0x8, addend: 0x0, symName: __ZNSt3__16vectorINS0_I7WayTypeNS_9allocatorIS1_EEEENS2_IS4_EEED2B7v160006Ev, symObjAddr: 0x3630, symBinAddr: 0x100005DD0, symSize: 0x40 }
  - { offsetInCU: 0xF5F0, offset: 0xF5F0, size: 0x8, addend: 0x0, symName: __ZNSt3__16vectorI5ColorNS_9allocatorIS1_EEEC2EmRKS1_, symObjAddr: 0x3670, symBinAddr: 0x100005E10, symSize: 0xE0 }
  - { offsetInCU: 0xF64F, offset: 0xF64F, size: 0x8, addend: 0x0, symName: __ZNSt3__117__compressed_pairIP5ColorNS_9allocatorIS1_EEEC1B7v160006IDnNS_18__default_init_tagEEEOT_OT0_, symObjAddr: 0x3750, symBinAddr: 0x100005EF0, symSize: 0x30 }
  - { offsetInCU: 0xF6A7, offset: 0xF6A7, size: 0x8, addend: 0x0, symName: __ZNSt3__16vectorI5ColorNS_9allocatorIS1_EEE16__destroy_vectorC1ERS4_, symObjAddr: 0x37C0, symBinAddr: 0x100005F60, symSize: 0x30 }
  - { offsetInCU: 0xF6E0, offset: 0xF6E0, size: 0x8, addend: 0x0, symName: __ZNSt3__16vectorI5ColorNS_9allocatorIS1_EEE11__vallocateB7v160006Em, symObjAddr: 0x3800, symBinAddr: 0x100005FA0, symSize: 0xA0 }
  - { offsetInCU: 0xF724, offset: 0xF724, size: 0x8, addend: 0x0, symName: __ZNSt3__16vectorI5ColorNS_9allocatorIS1_EEE18__construct_at_endEmRKS1_, symObjAddr: 0x38A0, symBinAddr: 0x100006040, symSize: 0xC0 }
  - { offsetInCU: 0xF7A5, offset: 0xF7A5, size: 0x8, addend: 0x0, symName: __ZNSt3__128__exception_guard_exceptionsINS_6vectorI5ColorNS_9allocatorIS2_EEE16__destroy_vectorEE10__completeB7v160006Ev, symObjAddr: 0x3960, symBinAddr: 0x100006100, symSize: 0x20 }
  - { offsetInCU: 0xF7CB, offset: 0xF7CB, size: 0x8, addend: 0x0, symName: __ZNSt3__128__exception_guard_exceptionsINS_6vectorI5ColorNS_9allocatorIS2_EEE16__destroy_vectorEED1B7v160006Ev, symObjAddr: 0x3980, symBinAddr: 0x100006120, symSize: 0x20 }
  - { offsetInCU: 0xF7F5, offset: 0xF7F5, size: 0x8, addend: 0x0, symName: __ZNSt3__117__compressed_pairIP5ColorNS_9allocatorIS1_EEEC2B7v160006IDnNS_18__default_init_tagEEEOT_OT0_, symObjAddr: 0x39A0, symBinAddr: 0x100006140, symSize: 0x40 }
  - { offsetInCU: 0xF84D, offset: 0xF84D, size: 0x8, addend: 0x0, symName: __ZNSt3__122__compressed_pair_elemIP5ColorLi0ELb0EEC2B7v160006IDnvEEOT_, symObjAddr: 0x39E0, symBinAddr: 0x100006180, symSize: 0x20 }
  - { offsetInCU: 0xF88F, offset: 0xF88F, size: 0x8, addend: 0x0, symName: __ZNSt3__122__compressed_pair_elemINS_9allocatorI5ColorEELi1ELb1EEC2B7v160006ENS_18__default_init_tagE, symObjAddr: 0x3A00, symBinAddr: 0x1000061A0, symSize: 0x20 }
  - { offsetInCU: 0xF8C3, offset: 0xF8C3, size: 0x8, addend: 0x0, symName: __ZNSt3__19allocatorI5ColorEC2B7v160006Ev, symObjAddr: 0x3A20, symBinAddr: 0x1000061C0, symSize: 0x20 }
  - { offsetInCU: 0xF8ED, offset: 0xF8ED, size: 0x8, addend: 0x0, symName: __ZNSt3__116__non_trivial_ifILb1ENS_9allocatorI5ColorEEEC2B7v160006Ev, symObjAddr: 0x3A40, symBinAddr: 0x1000061E0, symSize: 0x10 }
  - { offsetInCU: 0xF917, offset: 0xF917, size: 0x8, addend: 0x0, symName: __ZNSt3__128__exception_guard_exceptionsINS_6vectorI5ColorNS_9allocatorIS2_EEE16__destroy_vectorEEC1B7v160006ES6_, symObjAddr: 0x3A50, symBinAddr: 0x1000061F0, symSize: 0x30 }
  - { offsetInCU: 0xF94F, offset: 0xF94F, size: 0x8, addend: 0x0, symName: __ZNSt3__128__exception_guard_exceptionsINS_6vectorI5ColorNS_9allocatorIS2_EEE16__destroy_vectorEEC2B7v160006ES6_, symObjAddr: 0x3A80, symBinAddr: 0x100006220, symSize: 0x20 }
  - { offsetInCU: 0xF987, offset: 0xF987, size: 0x8, addend: 0x0, symName: __ZNSt3__16vectorI5ColorNS_9allocatorIS1_EEE16__destroy_vectorC2ERS4_, symObjAddr: 0x3AA0, symBinAddr: 0x100006240, symSize: 0x20 }
  - { offsetInCU: 0xF9C0, offset: 0xF9C0, size: 0x8, addend: 0x0, symName: __ZNKSt3__16vectorI5ColorNS_9allocatorIS1_EEE8max_sizeEv, symObjAddr: 0x3AC0, symBinAddr: 0x100006260, symSize: 0x60 }
  - { offsetInCU: 0xF9E8, offset: 0xF9E8, size: 0x8, addend: 0x0, symName: __ZNKSt3__16vectorI5ColorNS_9allocatorIS1_EEE20__throw_length_errorB7v160006Ev, symObjAddr: 0x3B20, symBinAddr: 0x1000062C0, symSize: 0x20 }
  - { offsetInCU: 0xFA0E, offset: 0xFA0E, size: 0x8, addend: 0x0, symName: __ZNSt3__16vectorI5ColorNS_9allocatorIS1_EEE7__allocB7v160006Ev, symObjAddr: 0x3B80, symBinAddr: 0x100006320, symSize: 0x20 }
  - { offsetInCU: 0xFA34, offset: 0xFA34, size: 0x8, addend: 0x0, symName: __ZNSt3__16vectorI5ColorNS_9allocatorIS1_EEE9__end_capB7v160006Ev, symObjAddr: 0x3BA0, symBinAddr: 0x100006340, symSize: 0x20 }
  - { offsetInCU: 0xFA5A, offset: 0xFA5A, size: 0x8, addend: 0x0, symName: __ZNKSt3__16vectorI5ColorNS_9allocatorIS1_EEE14__annotate_newB7v160006Em, symObjAddr: 0x3BC0, symBinAddr: 0x100006360, symSize: 0xB0 }
  - { offsetInCU: 0xFA99, offset: 0xFA99, size: 0x8, addend: 0x0, symName: __ZNSt3__116allocator_traitsINS_9allocatorI5ColorEEE8max_sizeB7v160006IS3_vvEEmRKS3_, symObjAddr: 0x3C70, symBinAddr: 0x100006410, symSize: 0x20 }
  - { offsetInCU: 0xFAC5, offset: 0xFAC5, size: 0x8, addend: 0x0, symName: __ZNKSt3__16vectorI5ColorNS_9allocatorIS1_EEE7__allocB7v160006Ev, symObjAddr: 0x3C90, symBinAddr: 0x100006430, symSize: 0x20 }
  - { offsetInCU: 0xFAEB, offset: 0xFAEB, size: 0x8, addend: 0x0, symName: __ZNKSt3__117__compressed_pairIP5ColorNS_9allocatorIS1_EEE6secondB7v160006Ev, symObjAddr: 0x3CB0, symBinAddr: 0x100006450, symSize: 0x20 }
  - { offsetInCU: 0xFB11, offset: 0xFB11, size: 0x8, addend: 0x0, symName: __ZNKSt3__122__compressed_pair_elemINS_9allocatorI5ColorEELi1ELb1EE5__getB7v160006Ev, symObjAddr: 0x3CD0, symBinAddr: 0x100006470, symSize: 0x10 }
  - { offsetInCU: 0xFB37, offset: 0xFB37, size: 0x8, addend: 0x0, symName: __ZNSt3__19allocatorI5ColorE17allocate_at_leastB7v160006Em, symObjAddr: 0x3D20, symBinAddr: 0x1000064C0, symSize: 0x40 }
  - { offsetInCU: 0xFB6B, offset: 0xFB6B, size: 0x8, addend: 0x0, symName: __ZNSt3__19allocatorI5ColorE8allocateB7v160006Em, symObjAddr: 0x3D60, symBinAddr: 0x100006500, symSize: 0x50 }
  - { offsetInCU: 0xFB9F, offset: 0xFB9F, size: 0x8, addend: 0x0, symName: __ZNSt3__117__compressed_pairIP5ColorNS_9allocatorIS1_EEE6secondB7v160006Ev, symObjAddr: 0x3DB0, symBinAddr: 0x100006550, symSize: 0x20 }
  - { offsetInCU: 0xFBC5, offset: 0xFBC5, size: 0x8, addend: 0x0, symName: __ZNSt3__122__compressed_pair_elemINS_9allocatorI5ColorEELi1ELb1EE5__getB7v160006Ev, symObjAddr: 0x3DD0, symBinAddr: 0x100006570, symSize: 0x10 }
  - { offsetInCU: 0xFBEB, offset: 0xFBEB, size: 0x8, addend: 0x0, symName: __ZNSt3__117__compressed_pairIP5ColorNS_9allocatorIS1_EEE5firstB7v160006Ev, symObjAddr: 0x3DE0, symBinAddr: 0x100006580, symSize: 0x20 }
  - { offsetInCU: 0xFC11, offset: 0xFC11, size: 0x8, addend: 0x0, symName: __ZNSt3__122__compressed_pair_elemIP5ColorLi0ELb0EE5__getB7v160006Ev, symObjAddr: 0x3E00, symBinAddr: 0x1000065A0, symSize: 0x10 }
  - { offsetInCU: 0xFC37, offset: 0xFC37, size: 0x8, addend: 0x0, symName: __ZNKSt3__16vectorI5ColorNS_9allocatorIS1_EEE31__annotate_contiguous_containerB7v160006EPKvS6_S6_S6_, symObjAddr: 0x3E10, symBinAddr: 0x1000065B0, symSize: 0x20 }
  - { offsetInCU: 0xFC8D, offset: 0xFC8D, size: 0x8, addend: 0x0, symName: __ZNKSt3__16vectorI5ColorNS_9allocatorIS1_EEE4dataB7v160006Ev, symObjAddr: 0x3E30, symBinAddr: 0x1000065D0, symSize: 0x20 }
  - { offsetInCU: 0xFCB3, offset: 0xFCB3, size: 0x8, addend: 0x0, symName: __ZNKSt3__16vectorI5ColorNS_9allocatorIS1_EEE8capacityB7v160006Ev, symObjAddr: 0x3E50, symBinAddr: 0x1000065F0, symSize: 0x30 }
  - { offsetInCU: 0xFCD9, offset: 0xFCD9, size: 0x8, addend: 0x0, symName: __ZNKSt3__16vectorI5ColorNS_9allocatorIS1_EEE9__end_capB7v160006Ev, symObjAddr: 0x3E90, symBinAddr: 0x100006630, symSize: 0x20 }
  - { offsetInCU: 0xFCFF, offset: 0xFCFF, size: 0x8, addend: 0x0, symName: __ZNKSt3__117__compressed_pairIP5ColorNS_9allocatorIS1_EEE5firstB7v160006Ev, symObjAddr: 0x3EB0, symBinAddr: 0x100006650, symSize: 0x20 }
  - { offsetInCU: 0xFD25, offset: 0xFD25, size: 0x8, addend: 0x0, symName: __ZNKSt3__122__compressed_pair_elemIP5ColorLi0ELb0EE5__getB7v160006Ev, symObjAddr: 0x3ED0, symBinAddr: 0x100006670, symSize: 0x10 }
  - { offsetInCU: 0xFD64, offset: 0xFD64, size: 0x8, addend: 0x0, symName: __ZNSt3__16vectorI5ColorNS_9allocatorIS1_EEE21_ConstructTransactionC1B7v160006ERS4_m, symObjAddr: 0x3EE0, symBinAddr: 0x100006680, symSize: 0x30 }
  - { offsetInCU: 0xFDB1, offset: 0xFDB1, size: 0x8, addend: 0x0, symName: __ZNSt3__116allocator_traitsINS_9allocatorI5ColorEEE9constructB7v160006IS2_JRKS2_EvvEEvRS3_PT_DpOT0_, symObjAddr: 0x3F10, symBinAddr: 0x1000066B0, symSize: 0x30 }
  - { offsetInCU: 0xFE06, offset: 0xFE06, size: 0x8, addend: 0x0, symName: __ZNSt3__16vectorI5ColorNS_9allocatorIS1_EEE21_ConstructTransactionD1B7v160006Ev, symObjAddr: 0x3F40, symBinAddr: 0x1000066E0, symSize: 0x20 }
  - { offsetInCU: 0xFE30, offset: 0xFE30, size: 0x8, addend: 0x0, symName: __ZNSt3__16vectorI5ColorNS_9allocatorIS1_EEE21_ConstructTransactionC2B7v160006ERS4_m, symObjAddr: 0x3F60, symBinAddr: 0x100006700, symSize: 0x40 }
  - { offsetInCU: 0xFE78, offset: 0xFE78, size: 0x8, addend: 0x0, symName: __ZNSt3__16vectorI5ColorNS_9allocatorIS1_EEE21_ConstructTransactionD2B7v160006Ev, symObjAddr: 0x3FD0, symBinAddr: 0x100006770, symSize: 0x20 }
  - { offsetInCU: 0xFEA2, offset: 0xFEA2, size: 0x8, addend: 0x0, symName: __ZNSt3__128__exception_guard_exceptionsINS_6vectorI5ColorNS_9allocatorIS2_EEE16__destroy_vectorEED2B7v160006Ev, symObjAddr: 0x3FF0, symBinAddr: 0x100006790, symSize: 0x40 }
  - { offsetInCU: 0xFECC, offset: 0xFECC, size: 0x8, addend: 0x0, symName: __ZNSt3__16vectorI5ColorNS_9allocatorIS1_EEE16__destroy_vectorclB7v160006Ev, symObjAddr: 0x4030, symBinAddr: 0x1000067D0, symSize: 0x90 }
  - { offsetInCU: 0xFEF2, offset: 0xFEF2, size: 0x8, addend: 0x0, symName: __ZNKSt3__16vectorI5ColorNS_9allocatorIS1_EEE17__annotate_deleteB7v160006Ev, symObjAddr: 0x40C0, symBinAddr: 0x100006860, symSize: 0xB0 }
  - { offsetInCU: 0xFF18, offset: 0xFF18, size: 0x8, addend: 0x0, symName: __ZNSt3__16vectorI5ColorNS_9allocatorIS1_EEE7__clearB7v160006Ev, symObjAddr: 0x4180, symBinAddr: 0x100006920, symSize: 0x20 }
  - { offsetInCU: 0xFF3E, offset: 0xFF3E, size: 0x8, addend: 0x0, symName: __ZNSt3__116allocator_traitsINS_9allocatorI5ColorEEE10deallocateB7v160006ERS3_PS2_m, symObjAddr: 0x41A0, symBinAddr: 0x100006940, symSize: 0x30 }
  - { offsetInCU: 0xFF80, offset: 0xFF80, size: 0x8, addend: 0x0, symName: __ZNKSt3__16vectorI5ColorNS_9allocatorIS1_EEE4sizeB7v160006Ev, symObjAddr: 0x41D0, symBinAddr: 0x100006970, symSize: 0x20 }
  - { offsetInCU: 0xFFA6, offset: 0xFFA6, size: 0x8, addend: 0x0, symName: __ZNSt3__16vectorI5ColorNS_9allocatorIS1_EEE22__base_destruct_at_endB7v160006EPS1_, symObjAddr: 0x41F0, symBinAddr: 0x100006990, symSize: 0x80 }
  - { offsetInCU: 0xFFEA, offset: 0xFFEA, size: 0x8, addend: 0x0, symName: __ZNSt3__116allocator_traitsINS_9allocatorI5ColorEEE7destroyB7v160006IS2_vvEEvRS3_PT_, symObjAddr: 0x4270, symBinAddr: 0x100006A10, symSize: 0x20 }
  - { offsetInCU: 0x10025, offset: 0x10025, size: 0x8, addend: 0x0, symName: __ZNSt3__19allocatorI5ColorE10deallocateB7v160006EPS1_m, symObjAddr: 0x42C0, symBinAddr: 0x100006A60, symSize: 0x40 }
  - { offsetInCU: 0x10067, offset: 0x10067, size: 0x8, addend: 0x0, symName: __ZNSt3__16vectorI5ColorNS_9allocatorIS1_EEED2B7v160006Ev, symObjAddr: 0x4300, symBinAddr: 0x100006AA0, symSize: 0x40 }
  - { offsetInCU: 0x1013B, offset: 0x1013B, size: 0x8, addend: 0x0, symName: __ZNKSt3__113basic_istreamIcNS_11char_traitsIcEEE6sentrycvbB7v160006Ev, symObjAddr: 0x4340, symBinAddr: 0x100006AE0, symSize: 0x20 }
  - { offsetInCU: 0x10161, offset: 0x10161, size: 0x8, addend: 0x0, symName: __ZNSt3__112basic_stringIcNS_11char_traitsIcEENS_9allocatorIcEEE5clearB7v160006Ev, symObjAddr: 0x4360, symBinAddr: 0x100006B00, symSize: 0xA0 }
  - { offsetInCU: 0x10189, offset: 0x10189, size: 0x8, addend: 0x0, symName: __ZNKSt3__18ios_base5widthB7v160006Ev, symObjAddr: 0x4400, symBinAddr: 0x100006BA0, symSize: 0x20 }
  - { offsetInCU: 0x101B1, offset: 0x101B1, size: 0x8, addend: 0x0, symName: __ZNKSt3__112basic_stringIcNS_11char_traitsIcEENS_9allocatorIcEEE8max_sizeB7v160006Ev, symObjAddr: 0x4420, symBinAddr: 0x100006BC0, symSize: 0xA0 }
  - { offsetInCU: 0x10203, offset: 0x10203, size: 0x8, addend: 0x0, symName: __ZNKSt3__19basic_iosIcNS_11char_traitsIcEEE5rdbufB7v160006Ev, symObjAddr: 0x44F0, symBinAddr: 0x100006C90, symSize: 0x20 }
  - { offsetInCU: 0x1022B, offset: 0x1022B, size: 0x8, addend: 0x0, symName: __ZNSt3__115basic_streambufIcNS_11char_traitsIcEEE5sgetcB7v160006Ev, symObjAddr: 0x4510, symBinAddr: 0x100006CB0, symSize: 0x50 }
  - { offsetInCU: 0x10251, offset: 0x10251, size: 0x8, addend: 0x0, symName: __ZNSt3__111char_traitsIcE11eq_int_typeEii, symObjAddr: 0x4560, symBinAddr: 0x100006D00, symSize: 0x20 }
  - { offsetInCU: 0x10282, offset: 0x10282, size: 0x8, addend: 0x0, symName: __ZNSt3__111char_traitsIcE3eofEv, symObjAddr: 0x4580, symBinAddr: 0x100006D20, symSize: 0x10 }
  - { offsetInCU: 0x10296, offset: 0x10296, size: 0x8, addend: 0x0, symName: __ZNSt3__111char_traitsIcE12to_char_typeEi, symObjAddr: 0x4590, symBinAddr: 0x100006D30, symSize: 0x10 }
  - { offsetInCU: 0x102E6, offset: 0x102E6, size: 0x8, addend: 0x0, symName: __ZNKSt3__15ctypeIcE2isB7v160006Ejc, symObjAddr: 0x45A0, symBinAddr: 0x100006D40, symSize: 0x70 }
  - { offsetInCU: 0x1032A, offset: 0x1032A, size: 0x8, addend: 0x0, symName: __ZNSt3__115basic_streambufIcNS_11char_traitsIcEEE6sbumpcB7v160006Ev, symObjAddr: 0x4610, symBinAddr: 0x100006DB0, symSize: 0x60 }
  - { offsetInCU: 0x10350, offset: 0x10350, size: 0x8, addend: 0x0, symName: __ZNSt3__18ios_base5widthB7v160006El, symObjAddr: 0x4670, symBinAddr: 0x100006E10, symSize: 0x30 }
  - { offsetInCU: 0x10396, offset: 0x10396, size: 0x8, addend: 0x0, symName: __ZNSt3__18ios_base18__setstate_nothrowB7v160006Ej, symObjAddr: 0x46A0, symBinAddr: 0x100006E40, symSize: 0x50 }
  - { offsetInCU: 0x103CB, offset: 0x103CB, size: 0x8, addend: 0x0, symName: __ZNKSt3__19basic_iosIcNS_11char_traitsIcEEE10exceptionsB7v160006Ev, symObjAddr: 0x46F0, symBinAddr: 0x100006E90, symSize: 0x20 }
  - { offsetInCU: 0x103F1, offset: 0x103F1, size: 0x8, addend: 0x0, symName: __ZNSt3__19basic_iosIcNS_11char_traitsIcEEE8setstateB7v160006Ej, symObjAddr: 0x4710, symBinAddr: 0x100006EB0, symSize: 0x30 }
  - { offsetInCU: 0x10426, offset: 0x10426, size: 0x8, addend: 0x0, symName: __ZNKSt3__112basic_stringIcNS_11char_traitsIcEENS_9allocatorIcEEE9__is_longB7v160006Ev, symObjAddr: 0x4750, symBinAddr: 0x100006EF0, symSize: 0x30 }
  - { offsetInCU: 0x1044C, offset: 0x1044C, size: 0x8, addend: 0x0, symName: __ZNSt3__111char_traitsIcE6assignERcRKc, symObjAddr: 0x4780, symBinAddr: 0x100006F20, symSize: 0x20 }
  - { offsetInCU: 0x1047D, offset: 0x1047D, size: 0x8, addend: 0x0, symName: __ZNSt3__112basic_stringIcNS_11char_traitsIcEENS_9allocatorIcEEE18__get_long_pointerB7v160006Ev, symObjAddr: 0x47A0, symBinAddr: 0x100006F40, symSize: 0x20 }
  - { offsetInCU: 0x104A3, offset: 0x104A3, size: 0x8, addend: 0x0, symName: __ZNSt3__112basic_stringIcNS_11char_traitsIcEENS_9allocatorIcEEE15__set_long_sizeB7v160006Em, symObjAddr: 0x47C0, symBinAddr: 0x100006F60, symSize: 0x30 }
  - { offsetInCU: 0x104D8, offset: 0x104D8, size: 0x8, addend: 0x0, symName: __ZNSt3__112basic_stringIcNS_11char_traitsIcEENS_9allocatorIcEEE19__get_short_pointerB7v160006Ev, symObjAddr: 0x47F0, symBinAddr: 0x100006F90, symSize: 0x30 }
  - { offsetInCU: 0x104FE, offset: 0x104FE, size: 0x8, addend: 0x0, symName: __ZNSt3__112basic_stringIcNS_11char_traitsIcEENS_9allocatorIcEEE16__set_short_sizeB7v160006Em, symObjAddr: 0x4820, symBinAddr: 0x100006FC0, symSize: 0x50 }
  - { offsetInCU: 0x10533, offset: 0x10533, size: 0x8, addend: 0x0, symName: __ZNKSt3__117__compressed_pairINS_12basic_stringIcNS_11char_traitsIcEENS_9allocatorIcEEE5__repES5_E5firstB7v160006Ev, symObjAddr: 0x4870, symBinAddr: 0x100007010, symSize: 0x20 }
  - { offsetInCU: 0x10559, offset: 0x10559, size: 0x8, addend: 0x0, symName: __ZNKSt3__122__compressed_pair_elemINS_12basic_stringIcNS_11char_traitsIcEENS_9allocatorIcEEE5__repELi0ELb0EE5__getB7v160006Ev, symObjAddr: 0x4890, symBinAddr: 0x100007030, symSize: 0x10 }
  - { offsetInCU: 0x1057F, offset: 0x1057F, size: 0x8, addend: 0x0, symName: __ZNSt3__114pointer_traitsIPcE10pointer_toB7v160006ERc, symObjAddr: 0x48A0, symBinAddr: 0x100007040, symSize: 0x10 }
  - { offsetInCU: 0x105AC, offset: 0x105AC, size: 0x8, addend: 0x0, symName: __ZNSt3__116allocator_traitsINS_9allocatorIcEEE8max_sizeB7v160006IS2_vvEEmRKS2_, symObjAddr: 0x48B0, symBinAddr: 0x100007050, symSize: 0x20 }
  - { offsetInCU: 0x105D8, offset: 0x105D8, size: 0x8, addend: 0x0, symName: __ZNKSt3__112basic_stringIcNS_11char_traitsIcEENS_9allocatorIcEEE7__allocB7v160006Ev, symObjAddr: 0x48D0, symBinAddr: 0x100007070, symSize: 0x20 }
  - { offsetInCU: 0x105FE, offset: 0x105FE, size: 0x8, addend: 0x0, symName: __ZNKSt3__117__compressed_pairINS_12basic_stringIcNS_11char_traitsIcEENS_9allocatorIcEEE5__repES5_E6secondB7v160006Ev, symObjAddr: 0x48F0, symBinAddr: 0x100007090, symSize: 0x20 }
  - { offsetInCU: 0x10624, offset: 0x10624, size: 0x8, addend: 0x0, symName: __ZNKSt3__122__compressed_pair_elemINS_9allocatorIcEELi1ELb1EE5__getB7v160006Ev, symObjAddr: 0x4910, symBinAddr: 0x1000070B0, symSize: 0x10 }
  - { offsetInCU: 0x1064A, offset: 0x1064A, size: 0x8, addend: 0x0, symName: __ZNKSt3__18ios_base5rdbufB7v160006Ev, symObjAddr: 0x4920, symBinAddr: 0x1000070C0, symSize: 0x20 }
  - { offsetInCU: 0x10670, offset: 0x10670, size: 0x8, addend: 0x0, symName: __ZNSt3__111char_traitsIcE11to_int_typeEc, symObjAddr: 0x4940, symBinAddr: 0x1000070E0, symSize: 0x10 }
  - { offsetInCU: 0x10692, offset: 0x10692, size: 0x8, addend: 0x0, symName: __Z7isasciii, symObjAddr: 0x4950, symBinAddr: 0x1000070F0, symSize: 0x20 }
  - { offsetInCU: 0x106BF, offset: 0x106BF, size: 0x8, addend: 0x0, symName: __ZNKSt3__18ios_base10exceptionsB7v160006Ev, symObjAddr: 0x4970, symBinAddr: 0x100007110, symSize: 0x20 }
  - { offsetInCU: 0x106E7, offset: 0x106E7, size: 0x8, addend: 0x0, symName: __ZNSt3__18ios_base8setstateB7v160006Ej, symObjAddr: 0x4990, symBinAddr: 0x100007130, symSize: 0x30 }
  - { offsetInCU: 0x1071E, offset: 0x1071E, size: 0x8, addend: 0x0, symName: __ZNSt3__111char_traitsIcE6lengthEPKc, symObjAddr: 0x4BB0, symBinAddr: 0x100007350, symSize: 0x30 }
  - { offsetInCU: 0x1075F, offset: 0x1075F, size: 0x8, addend: 0x0, symName: __ZNKSt3__113basic_ostreamIcNS_11char_traitsIcEEE6sentrycvbB7v160006Ev, symObjAddr: 0x4BE0, symBinAddr: 0x100007380, symSize: 0x20 }
  - { offsetInCU: 0x10785, offset: 0x10785, size: 0x8, addend: 0x0, symName: __ZNSt3__119ostreambuf_iteratorIcNS_11char_traitsIcEEEC1B7v160006ERNS_13basic_ostreamIcS2_EE, symObjAddr: 0x4E20, symBinAddr: 0x1000075C0, symSize: 0x30 }
  - { offsetInCU: 0x107BD, offset: 0x107BD, size: 0x8, addend: 0x0, symName: __ZNKSt3__18ios_base5flagsB7v160006Ev, symObjAddr: 0x4E50, symBinAddr: 0x1000075F0, symSize: 0x20 }
  - { offsetInCU: 0x107E5, offset: 0x107E5, size: 0x8, addend: 0x0, symName: __ZNKSt3__19basic_iosIcNS_11char_traitsIcEEE4fillB7v160006Ev, symObjAddr: 0x4E70, symBinAddr: 0x100007610, symSize: 0x70 }
  - { offsetInCU: 0x1080D, offset: 0x1080D, size: 0x8, addend: 0x0, symName: __ZNKSt3__119ostreambuf_iteratorIcNS_11char_traitsIcEEE6failedB7v160006Ev, symObjAddr: 0x4EE0, symBinAddr: 0x100007680, symSize: 0x20 }
  - { offsetInCU: 0x10833, offset: 0x10833, size: 0x8, addend: 0x0, symName: __ZNSt3__115basic_streambufIcNS_11char_traitsIcEEE5sputnB7v160006EPKcl, symObjAddr: 0x4F00, symBinAddr: 0x1000076A0, symSize: 0x30 }
  - { offsetInCU: 0x10875, offset: 0x10875, size: 0x8, addend: 0x0, symName: __ZNSt3__112basic_stringIcNS_11char_traitsIcEENS_9allocatorIcEEEC1B7v160006Emc, symObjAddr: 0x4F30, symBinAddr: 0x1000076D0, symSize: 0x30 }
  - { offsetInCU: 0x108BD, offset: 0x108BD, size: 0x8, addend: 0x0, symName: __ZNSt3__112basic_stringIcNS_11char_traitsIcEENS_9allocatorIcEEE4dataB7v160006Ev, symObjAddr: 0x4F60, symBinAddr: 0x100007700, symSize: 0x30 }
  - { offsetInCU: 0x108E3, offset: 0x108E3, size: 0x8, addend: 0x0, symName: __ZNSt3__112basic_stringIcNS_11char_traitsIcEENS_9allocatorIcEEEC2B7v160006Emc, symObjAddr: 0x4F90, symBinAddr: 0x100007730, symSize: 0x50 }
  - { offsetInCU: 0x1092B, offset: 0x1092B, size: 0x8, addend: 0x0, symName: __ZNSt3__112basic_stringIcNS_11char_traitsIcEENS_9allocatorIcEEE13__get_pointerB7v160006Ev, symObjAddr: 0x4FF0, symBinAddr: 0x100007790, symSize: 0x50 }
  - { offsetInCU: 0x10951, offset: 0x10951, size: 0x8, addend: 0x0, symName: __ZNSt3__119ostreambuf_iteratorIcNS_11char_traitsIcEEEC2B7v160006ERNS_13basic_ostreamIcS2_EE, symObjAddr: 0x5040, symBinAddr: 0x1000077E0, symSize: 0x50 }
  - { offsetInCU: 0x10989, offset: 0x10989, size: 0x8, addend: 0x0, symName: __ZNKSt3__19basic_iosIcNS_11char_traitsIcEEE5widenB7v160006Ec, symObjAddr: 0x5090, symBinAddr: 0x100007830, symSize: 0x80 }
  - { offsetInCU: 0x109C0, offset: 0x109C0, size: 0x8, addend: 0x0, symName: __ZNKSt3__15ctypeIcE5widenB7v160006Ec, symObjAddr: 0x5110, symBinAddr: 0x1000078B0, symSize: 0x30 }
...
