---
triple:          'x86_64-apple-darwin'
binary-path:     '/Users/dmitrii/Documents/cpp-experiments/Algorhitms/6th_Sprint/Binaries/MaximalSpanningTree'
relocations:
  - { offsetInCU: 0x5C, offset: 0x5C, size: 0x8, addend: 0x0, symName: __ZNSt3__18in_placeE, symObjAddr: 0xD50A, symBinAddr: 0x10000FAD2, symSize: 0x0 }
  - { offsetInCU: 0x8C, offset: 0x8C, size: 0x8, addend: 0x0, symName: __ZNSt3__17nulloptE, symObjAddr: 0xD509, symBinAddr: 0x10000FAD1, symSize: 0x0 }
  - { offsetInCU: 0xE7, offset: 0xE7, size: 0x8, addend: 0x0, symName: __ZNSt3__16ranges5__cpo9iter_moveE, symObjAddr: 0xD50B, symBinAddr: 0x10000FAD3, symSize: 0x0 }
  - { offsetInCU: 0x6256, offset: 0x6256, size: 0x8, addend: 0x0, symName: __ZNSt3__17advanceB7v160006IP4EdgellvEEvRT_T0_, symObjAddr: 0x42D0, symBinAddr: 0x100006700, symSize: 0x50 }
  - { offsetInCU: 0x9FA1, offset: 0x9FA1, size: 0x8, addend: 0x0, symName: '__ZNSt3__117__floyd_sift_downB7v160006INS_17_ClassicAlgPolicyERZ24GetMaxSpanningTreeWeightRKNS_6vectorINS2_I4EdgeNS_9allocatorIS3_EEEENS4_IS6_EEEEE3$_0NS_11__wrap_iterIPS3_EEEET1_SG_OT0_NS_15iterator_traitsISG_E15difference_typeE', symObjAddr: 0x8D60, symBinAddr: 0x10000B190, symSize: 0x140 }
  - { offsetInCU: 0xA943, offset: 0xA943, size: 0x8, addend: 0x0, symName: __ZNSt3__124__put_character_sequenceB7v160006IcNS_11char_traitsIcEEEERNS_13basic_ostreamIT_T0_EES7_PKS4_m, symObjAddr: 0xC4C0, symBinAddr: 0x10000E8F0, symSize: 0x1F0 }
  - { offsetInCU: 0xEC7B, offset: 0xEC7B, size: 0x8, addend: 0x0, symName: __ZNSt3__1neB7v160006IPK4EdgeEEbRKNS_11__wrap_iterIT_EES8_, symObjAddr: 0xBB0, symBinAddr: 0x100002FE0, symSize: 0x30 }
  - { offsetInCU: 0xECBE, offset: 0xECBE, size: 0x8, addend: 0x0, symName: __ZNSt3__1lsB7v160006INS_11char_traitsIcEEEERNS_13basic_ostreamIcT_EES6_c, symObjAddr: 0xEE0, symBinAddr: 0x100003310, symSize: 0x30 }
  - { offsetInCU: 0xED04, offset: 0xED04, size: 0x8, addend: 0x0, symName: __ZNSt3__1lsB7v160006INS_11char_traitsIcEEEERNS_13basic_ostreamIcT_EES6_PKc, symObjAddr: 0xF10, symBinAddr: 0x100003340, symSize: 0x40 }
  - { offsetInCU: 0xED4A, offset: 0xED4A, size: 0x8, addend: 0x0, symName: __ZNSt3__122__make_exception_guardB7v160006INS_6vectorINS1_I4EdgeNS_9allocatorIS2_EEEENS3_IS5_EEE16__destroy_vectorEEENS_28__exception_guard_exceptionsIT_EESA_, symObjAddr: 0x1060, symBinAddr: 0x100003490, symSize: 0x40 }
  - { offsetInCU: 0xED7F, offset: 0xED7F, size: 0x8, addend: 0x0, symName: __ZNSt3__119__debug_db_insert_cB7v160006INS_6vectorINS1_I4EdgeNS_9allocatorIS2_EEEENS3_IS5_EEEEEEvPT_, symObjAddr: 0x10D0, symBinAddr: 0x100003500, symSize: 0x10 }
  - { offsetInCU: 0xEDB0, offset: 0xEDB0, size: 0x8, addend: 0x0, symName: __ZNSt3__119__allocate_at_leastB7v160006INS_9allocatorINS_6vectorI4EdgeNS1_IS3_EEEEEEEEDaRT_m, symObjAddr: 0x1420, symBinAddr: 0x100003850, symSize: 0x40 }
  - { offsetInCU: 0xEDF3, offset: 0xEDF3, size: 0x8, addend: 0x0, symName: __ZNSt3__13minB7v160006ImEERKT_S3_S3_, symObjAddr: 0x1540, symBinAddr: 0x100003970, symSize: 0x30 }
  - { offsetInCU: 0xF020, offset: 0xF020, size: 0x8, addend: 0x0, symName: __ZNSt3__13minB7v160006ImNS_6__lessImmEEEERKT_S5_S5_T0_, symObjAddr: 0x15E0, symBinAddr: 0x100003A10, symSize: 0x50 }
  - { offsetInCU: 0xF0B6, offset: 0xF0B6, size: 0x8, addend: 0x0, symName: __ZNSt3__120__throw_length_errorB7v160006EPKc, symObjAddr: 0x16C0, symBinAddr: 0x100003AF0, symSize: 0x70 }
  - { offsetInCU: 0xF0DD, offset: 0xF0DD, size: 0x8, addend: 0x0, symName: __ZNSt3__117allocate_at_leastB7v160006INS_9allocatorINS_6vectorI4EdgeNS1_IS3_EEEEEEEENS_17allocation_resultINS_16allocator_traitsIT_E7pointerEEERS9_m, symObjAddr: 0x17A0, symBinAddr: 0x100003BD0, symSize: 0x40 }
  - { offsetInCU: 0xF120, offset: 0xF120, size: 0x8, addend: 0x0, symName: __ZNSt3__117__libcpp_allocateB7v160006Emm, symObjAddr: 0x18B0, symBinAddr: 0x100003CE0, symSize: 0x60 }
  - { offsetInCU: 0xF17A, offset: 0xF17A, size: 0x8, addend: 0x0, symName: __ZNSt3__124__is_overaligned_for_newB7v160006Em, symObjAddr: 0x1910, symBinAddr: 0x100003D40, symSize: 0x20 }
  - { offsetInCU: 0xF1A8, offset: 0xF1A8, size: 0x8, addend: 0x0, symName: __ZNSt3__121__libcpp_operator_newB7v160006IJmSt11align_val_tEEEPvDpT_, symObjAddr: 0x1930, symBinAddr: 0x100003D60, symSize: 0x30 }
  - { offsetInCU: 0xF1F5, offset: 0xF1F5, size: 0x8, addend: 0x0, symName: __ZNSt3__121__libcpp_operator_newB7v160006IJmEEEPvDpT_, symObjAddr: 0x1960, symBinAddr: 0x100003D90, symSize: 0x20 }
  - { offsetInCU: 0xF22E, offset: 0xF22E, size: 0x8, addend: 0x0, symName: __ZNSt3__112__to_addressB7v160006INS_6vectorI4EdgeNS_9allocatorIS2_EEEEEEPT_S7_, symObjAddr: 0x1A60, symBinAddr: 0x100003E90, symSize: 0x10 }
  - { offsetInCU: 0xF288, offset: 0xF288, size: 0x8, addend: 0x0, symName: __ZNSt3__112construct_atB7v160006INS_6vectorI4EdgeNS_9allocatorIS2_EEEEJEPS5_EEPT_S8_DpOT0_, symObjAddr: 0x1B70, symBinAddr: 0x100003FA0, symSize: 0x30 }
  - { offsetInCU: 0xF2E6, offset: 0xF2E6, size: 0x8, addend: 0x0, symName: __ZNSt3__119__debug_db_insert_cB7v160006INS_6vectorI4EdgeNS_9allocatorIS2_EEEEEEvPT_, symObjAddr: 0x1C50, symBinAddr: 0x100004080, symSize: 0x10 }
  - { offsetInCU: 0xF317, offset: 0xF317, size: 0x8, addend: 0x0, symName: __ZNSt3__118__debug_db_erase_cB7v160006INS_6vectorINS1_I4EdgeNS_9allocatorIS2_EEEENS3_IS5_EEEEEEvPT_, symObjAddr: 0x1EB0, symBinAddr: 0x1000042E0, symSize: 0x10 }
  - { offsetInCU: 0xF348, offset: 0xF348, size: 0x8, addend: 0x0, symName: __ZNSt3__110destroy_atB7v160006INS_6vectorI4EdgeNS_9allocatorIS2_EEEELi0EEEvPT_, symObjAddr: 0x1FB0, symBinAddr: 0x1000043E0, symSize: 0x20 }
  - { offsetInCU: 0xF37F, offset: 0xF37F, size: 0x8, addend: 0x0, symName: __ZNSt3__112__destroy_atB7v160006INS_6vectorI4EdgeNS_9allocatorIS2_EEEELi0EEEvPT_, symObjAddr: 0x1FD0, symBinAddr: 0x100004400, symSize: 0x20 }
  - { offsetInCU: 0xF3B7, offset: 0xF3B7, size: 0x8, addend: 0x0, symName: __ZNSt3__119__libcpp_deallocateB7v160006EPvmm, symObjAddr: 0x2040, symBinAddr: 0x100004470, symSize: 0x60 }
  - { offsetInCU: 0xF41D, offset: 0xF41D, size: 0x8, addend: 0x0, symName: __ZNSt3__127__do_deallocate_handle_sizeB7v160006IJSt11align_val_tEEEvPvmDpT_, symObjAddr: 0x20A0, symBinAddr: 0x1000044D0, symSize: 0x30 }
  - { offsetInCU: 0xF471, offset: 0xF471, size: 0x8, addend: 0x0, symName: __ZNSt3__127__do_deallocate_handle_sizeB7v160006IJEEEvPvmDpT_, symObjAddr: 0x20D0, symBinAddr: 0x100004500, symSize: 0x20 }
  - { offsetInCU: 0xF4B0, offset: 0xF4B0, size: 0x8, addend: 0x0, symName: __ZNSt3__124__libcpp_operator_deleteB7v160006IJPvSt11align_val_tEEEvDpT_, symObjAddr: 0x20F0, symBinAddr: 0x100004520, symSize: 0x30 }
  - { offsetInCU: 0xF4FA, offset: 0xF4FA, size: 0x8, addend: 0x0, symName: __ZNSt3__124__libcpp_operator_deleteB7v160006IJPvEEEvDpT_, symObjAddr: 0x2120, symBinAddr: 0x100004550, symSize: 0x20 }
  - { offsetInCU: 0xF52F, offset: 0xF52F, size: 0x8, addend: 0x0, symName: __ZNSt3__112__to_addressB7v160006I4EdgeEEPT_S3_, symObjAddr: 0x2370, symBinAddr: 0x1000047A0, symSize: 0x10 }
  - { offsetInCU: 0xF589, offset: 0xF589, size: 0x8, addend: 0x0, symName: __ZNSt3__112construct_atB7v160006I4EdgeJS1_EPS1_EEPT_S4_DpOT0_, symObjAddr: 0x23E0, symBinAddr: 0x100004810, symSize: 0x30 }
  - { offsetInCU: 0xF5FB, offset: 0xF5FB, size: 0x8, addend: 0x0, symName: __ZNSt3__13maxB7v160006ImEERKT_S3_S3_, symObjAddr: 0x2780, symBinAddr: 0x100004BB0, symSize: 0x30 }
  - { offsetInCU: 0xF63E, offset: 0xF63E, size: 0x8, addend: 0x0, symName: __ZNSt3__13maxB7v160006ImNS_6__lessImmEEEERKT_S5_S5_T0_, symObjAddr: 0x2880, symBinAddr: 0x100004CB0, symSize: 0x50 }
  - { offsetInCU: 0xF698, offset: 0xF698, size: 0x8, addend: 0x0, symName: __ZNSt3__119__allocate_at_leastB7v160006INS_9allocatorI4EdgeEEEEDaRT_m, symObjAddr: 0x29C0, symBinAddr: 0x100004DF0, symSize: 0x40 }
  - { offsetInCU: 0xF6DB, offset: 0xF6DB, size: 0x8, addend: 0x0, symName: __ZNSt3__117allocate_at_leastB7v160006INS_9allocatorI4EdgeEEEENS_17allocation_resultINS_16allocator_traitsIT_E7pointerEEERS6_m, symObjAddr: 0x2AA0, symBinAddr: 0x100004ED0, symSize: 0x40 }
  - { offsetInCU: 0xF71E, offset: 0xF71E, size: 0x8, addend: 0x0, symName: __ZNSt3__142__uninitialized_allocator_move_if_noexceptB7v160006INS_9allocatorI4EdgeEENS_16reverse_iteratorIPS2_EES6_S2_vEET1_RT_T0_SA_S7_, symObjAddr: 0x2C80, symBinAddr: 0x1000050B0, symSize: 0x70 }
  - { offsetInCU: 0xF79B, offset: 0xF79B, size: 0x8, addend: 0x0, symName: __ZNSt3__14swapB7v160006IP4EdgeEENS_9enable_ifIXaasr21is_move_constructibleIT_EE5valuesr18is_move_assignableIS4_EE5valueEvE4typeERS4_S7_, symObjAddr: 0x2D40, symBinAddr: 0x100005170, symSize: 0x40 }
  - { offsetInCU: 0xF7EC, offset: 0xF7EC, size: 0x8, addend: 0x0, symName: __ZNSt3__125__debug_db_invalidate_allB7v160006INS_6vectorI4EdgeNS_9allocatorIS2_EEEEEEvPT_, symObjAddr: 0x2E20, symBinAddr: 0x100005250, symSize: 0x10 }
  - { offsetInCU: 0xF81D, offset: 0xF81D, size: 0x8, addend: 0x0, symName: __ZNSt3__14moveB7v160006INS_16reverse_iteratorIP4EdgeEES4_EET0_T_S6_S5_, symObjAddr: 0x2E70, symBinAddr: 0x1000052A0, symSize: 0x80 }
  - { offsetInCU: 0xF877, offset: 0xF877, size: 0x8, addend: 0x0, symName: __ZNSt3__16__moveB7v160006INS_17_ClassicAlgPolicyENS_16reverse_iteratorIP4EdgeEES5_S5_EENS_4pairIT0_T2_EES7_T1_S8_, symObjAddr: 0x2EF0, symBinAddr: 0x100005320, symSize: 0x90 }
  - { offsetInCU: 0xF8E3, offset: 0xF8E3, size: 0x8, addend: 0x0, symName: __ZNSt3__123__dispatch_copy_or_moveB7v160006INS_17_ClassicAlgPolicyENS_11__move_loopIS1_EENS_14__move_trivialENS_16reverse_iteratorIP4EdgeEES8_S8_EENS_4pairIT2_T4_EESA_T3_SB_, symObjAddr: 0x2F80, symBinAddr: 0x1000053B0, symSize: 0x90 }
  - { offsetInCU: 0xF961, offset: 0xF961, size: 0x8, addend: 0x0, symName: __ZNSt3__121__unwrap_and_dispatchB7v160006INS_10__overloadINS_11__move_loopINS_17_ClassicAlgPolicyEEENS_14__move_trivialEEENS_16reverse_iteratorIP4EdgeEESA_SA_Li0EEENS_4pairIT0_T2_EESC_T1_SD_, symObjAddr: 0x3010, symBinAddr: 0x100005440, symSize: 0x210 }
  - { offsetInCU: 0xF9F0, offset: 0xF9F0, size: 0x8, addend: 0x0, symName: __ZNSt3__114__unwrap_rangeB7v160006INS_16reverse_iteratorIP4EdgeEES4_EEDaT_T0_, symObjAddr: 0x3220, symBinAddr: 0x100005650, symSize: 0x60 }
  - { offsetInCU: 0xFBB8, offset: 0xFBB8, size: 0x8, addend: 0x0, symName: __ZNSt3__113__unwrap_iterB7v160006INS_16reverse_iteratorIP4EdgeEENS_18__unwrap_iter_implIS4_Lb0EEELi0EEEDTclsrT0_8__unwrapclsr3stdE7declvalIT_EEEES8_, symObjAddr: 0x3320, symBinAddr: 0x100005750, symSize: 0x40 }
  - { offsetInCU: 0xFBFC, offset: 0xFBFC, size: 0x8, addend: 0x0, symName: __ZNSt3__19make_pairB7v160006INS_16reverse_iteratorIP4EdgeEES4_EENS_4pairINS_18__unwrap_ref_decayIT_E4typeENS6_IT0_E4typeEEEOS7_OSA_, symObjAddr: 0x3360, symBinAddr: 0x100005790, symSize: 0x30 }
  - { offsetInCU: 0xFC4B, offset: 0xFC4B, size: 0x8, addend: 0x0, symName: __ZNSt3__114__rewrap_rangeB7v160006INS_16reverse_iteratorIP4EdgeEES4_S4_EET0_S5_T1_, symObjAddr: 0x3390, symBinAddr: 0x1000057C0, symSize: 0x60 }
  - { offsetInCU: 0xFCA0, offset: 0xFCA0, size: 0x8, addend: 0x0, symName: __ZNSt3__113__rewrap_iterB7v160006INS_16reverse_iteratorIP4EdgeEES4_NS_18__unwrap_iter_implIS4_Lb0EEEEET_S7_T0_, symObjAddr: 0x33F0, symBinAddr: 0x100005820, symSize: 0x70 }
  - { offsetInCU: 0xFD45, offset: 0xFD45, size: 0x8, addend: 0x0, symName: __ZNSt3__1neB7v160006IP4EdgeS2_EEbRKNS_16reverse_iteratorIT_EERKNS3_IT0_EE, symObjAddr: 0x3560, symBinAddr: 0x100005990, symSize: 0x40 }
  - { offsetInCU: 0xFE76, offset: 0xFE76, size: 0x8, addend: 0x0, symName: __ZNSt3__110destroy_atB7v160006I4EdgeLi0EEEvPT_, symObjAddr: 0x38D0, symBinAddr: 0x100005D00, symSize: 0x20 }
  - { offsetInCU: 0xFEAD, offset: 0xFEAD, size: 0x8, addend: 0x0, symName: __ZNSt3__112__destroy_atB7v160006I4EdgeLi0EEEvPT_, symObjAddr: 0x38F0, symBinAddr: 0x100005D20, symSize: 0x10 }
  - { offsetInCU: 0xFEE4, offset: 0xFEE4, size: 0x8, addend: 0x0, symName: __ZNSt3__122__make_exception_guardB7v160006INS_6vectorI4EdgeNS_9allocatorIS2_EEE16__destroy_vectorEEENS_28__exception_guard_exceptionsIT_EES8_, symObjAddr: 0x3B50, symBinAddr: 0x100005F80, symSize: 0x40 }
  - { offsetInCU: 0xFF19, offset: 0xFF19, size: 0x8, addend: 0x0, symName: __ZNSt3__130__uninitialized_allocator_copyB7v160006INS_9allocatorI4EdgeEEPS2_S4_S4_EET2_RT_T0_T1_S5_, symObjAddr: 0x3DF0, symBinAddr: 0x100006220, symSize: 0x100 }
  - { offsetInCU: 0xFFB7, offset: 0xFFB7, size: 0x8, addend: 0x0, symName: __ZNSt3__122__make_exception_guardB7v160006INS_29_AllocatorDestroyRangeReverseINS_9allocatorI4EdgeEEPS3_EEEENS_28__exception_guard_exceptionsIT_EES8_, symObjAddr: 0x3EF0, symBinAddr: 0x100006320, symSize: 0x60 }
  - { offsetInCU: 0xFFEC, offset: 0xFFEC, size: 0x8, addend: 0x0, symName: __ZNSt3__112construct_atB7v160006I4EdgeJRS1_EPS1_EEPT_S5_DpOT0_, symObjAddr: 0x40B0, symBinAddr: 0x1000064E0, symSize: 0x30 }
  - { offsetInCU: 0x1005F, offset: 0x1005F, size: 0x8, addend: 0x0, symName: __ZNSt3__119__allocator_destroyB7v160006INS_9allocatorI4EdgeEENS_16reverse_iteratorIPS2_EES6_EEvRT_T0_T1_, symObjAddr: 0x4180, symBinAddr: 0x1000065B0, symSize: 0x70 }
  - { offsetInCU: 0x100C2, offset: 0x100C2, size: 0x8, addend: 0x0, symName: __ZNSt3__112__to_addressB7v160006INS_16reverse_iteratorIP4EdgeEEvEENS_5decayIDTclsr19__to_address_helperIT_EE6__callclsr3stdE7declvalIRKS6_EEEEE4typeES8_, symObjAddr: 0x41F0, symBinAddr: 0x100006620, symSize: 0x20 }
  - { offsetInCU: 0x10121, offset: 0x10121, size: 0x8, addend: 0x0, symName: __ZNSt3__14prevB7v160006IP4EdgeEENS_9enable_ifIXsr25__is_cpp17_input_iteratorIT_EE5valueES4_E4typeES4_NS_15iterator_traitsIS4_E15difference_typeE, symObjAddr: 0x4280, symBinAddr: 0x1000066B0, symSize: 0x50 }
  - { offsetInCU: 0x10164, offset: 0x10164, size: 0x8, addend: 0x0, symName: __ZNSt3__121__convert_to_integralB7v160006El, symObjAddr: 0x4320, symBinAddr: 0x100006750, symSize: 0x10 }
  - { offsetInCU: 0x10190, offset: 0x10190, size: 0x8, addend: 0x0, symName: __ZNSt3__19__advanceB7v160006IP4EdgeEEvRT_NS_15iterator_traitsIS3_E15difference_typeENS_26random_access_iterator_tagE, symObjAddr: 0x4330, symBinAddr: 0x100006760, symSize: 0x20 }
  - { offsetInCU: 0x101DA, offset: 0x101DA, size: 0x8, addend: 0x0, symName: __ZNSt3__118__debug_db_erase_cB7v160006INS_6vectorI4EdgeNS_9allocatorIS2_EEEEEEvPT_, symObjAddr: 0x4420, symBinAddr: 0x100006850, symSize: 0x10 }
  - { offsetInCU: 0x1020C, offset: 0x1020C, size: 0x8, addend: 0x0, symName: __ZNSt3__127__throw_bad_optional_accessB7v160006Ev, symObjAddr: 0x4530, symBinAddr: 0x100006960, symSize: 0x40 }
  - { offsetInCU: 0x10225, offset: 0x10225, size: 0x8, addend: 0x0, symName: __ZNSt3__1eqB7v160006IPK4EdgeEEbRKNS_11__wrap_iterIT_EES8_, symObjAddr: 0x46A0, symBinAddr: 0x100006AD0, symSize: 0x40 }
  - { offsetInCU: 0x10268, offset: 0x10268, size: 0x8, addend: 0x0, symName: __ZNSt3__1neB7v160006ERKNS_16__deque_iteratorIiPiRiPS1_lLl1024EEES6_, symObjAddr: 0x4B50, symBinAddr: 0x100006F80, symSize: 0x30 }
  - { offsetInCU: 0x102A5, offset: 0x102A5, size: 0x8, addend: 0x0, symName: __ZNSt3__1eqB7v160006ERKNS_16__deque_iteratorIiPiRiPS1_lLl1024EEES6_, symObjAddr: 0x4DA0, symBinAddr: 0x1000071D0, symSize: 0x30 }
  - { offsetInCU: 0x102E2, offset: 0x102E2, size: 0x8, addend: 0x0, symName: __ZNSt3__110destroy_atB7v160006IiLi0EEEvPT_, symObjAddr: 0x4DD0, symBinAddr: 0x100007200, symSize: 0x20 }
  - { offsetInCU: 0x10319, offset: 0x10319, size: 0x8, addend: 0x0, symName: __ZNSt3__112__destroy_atB7v160006IiLi0EEEvPT_, symObjAddr: 0x4DF0, symBinAddr: 0x100007220, symSize: 0x10 }
  - { offsetInCU: 0x10350, offset: 0x10350, size: 0x8, addend: 0x0, symName: __ZNSt3__112__to_addressB7v160006IPiEEPT_S3_, symObjAddr: 0x50D0, symBinAddr: 0x100007500, symSize: 0x10 }
  - { offsetInCU: 0x10385, offset: 0x10385, size: 0x8, addend: 0x0, symName: __ZNSt3__110destroy_atB7v160006IPiLi0EEEvPT_, symObjAddr: 0x50E0, symBinAddr: 0x100007510, symSize: 0x20 }
  - { offsetInCU: 0x103BC, offset: 0x103BC, size: 0x8, addend: 0x0, symName: __ZNSt3__112__destroy_atB7v160006IPiLi0EEEvPT_, symObjAddr: 0x5100, symBinAddr: 0x100007530, symSize: 0x10 }
  - { offsetInCU: 0x103F3, offset: 0x103F3, size: 0x8, addend: 0x0, symName: __ZNSt3__122__make_exception_guardB7v160006INS_6vectorIiNS_9allocatorIiEEE16__destroy_vectorEEENS_28__exception_guard_exceptionsIT_EES7_, symObjAddr: 0x52E0, symBinAddr: 0x100007710, symSize: 0x40 }
  - { offsetInCU: 0x10428, offset: 0x10428, size: 0x8, addend: 0x0, symName: __ZNSt3__119__debug_db_insert_cB7v160006INS_6vectorIiNS_9allocatorIiEEEEEEvPT_, symObjAddr: 0x5350, symBinAddr: 0x100007780, symSize: 0x10 }
  - { offsetInCU: 0x10459, offset: 0x10459, size: 0x8, addend: 0x0, symName: __ZNSt3__119__allocate_at_leastB7v160006INS_9allocatorIiEEEEDaRT_m, symObjAddr: 0x56A0, symBinAddr: 0x100007AD0, symSize: 0x40 }
  - { offsetInCU: 0x1049C, offset: 0x1049C, size: 0x8, addend: 0x0, symName: __ZNSt3__117allocate_at_leastB7v160006INS_9allocatorIiEEEENS_17allocation_resultINS_16allocator_traitsIT_E7pointerEEERS5_m, symObjAddr: 0x5840, symBinAddr: 0x100007C70, symSize: 0x40 }
  - { offsetInCU: 0x104DF, offset: 0x104DF, size: 0x8, addend: 0x0, symName: __ZNSt3__112__to_addressB7v160006IiEEPT_S2_, symObjAddr: 0x59D0, symBinAddr: 0x100007E00, symSize: 0x10 }
  - { offsetInCU: 0x10539, offset: 0x10539, size: 0x8, addend: 0x0, symName: __ZNSt3__112construct_atB7v160006IiJRKiEPiEEPT_S5_DpOT0_, symObjAddr: 0x5AF0, symBinAddr: 0x100007F20, symSize: 0x30 }
  - { offsetInCU: 0x105AB, offset: 0x105AB, size: 0x8, addend: 0x0, symName: __ZNSt3__118__debug_db_erase_cB7v160006INS_6vectorIiNS_9allocatorIiEEEEEEvPT_, symObjAddr: 0x5CC0, symBinAddr: 0x1000080F0, symSize: 0x10 }
  - { offsetInCU: 0x105DC, offset: 0x105DC, size: 0x8, addend: 0x0, symName: __ZNSt3__119__debug_db_insert_cB7v160006INS_13unordered_setIiNS_4hashIiEENS_8equal_toIiEENS_9allocatorIiEEEEEEvPT_, symObjAddr: 0x5E50, symBinAddr: 0x100008280, symSize: 0x10 }
  - { offsetInCU: 0x1060D, offset: 0x1060D, size: 0x8, addend: 0x0, symName: __ZNSt3__118__debug_db_erase_cB7v160006INS_12__hash_tableIiNS_4hashIiEENS_8equal_toIiEENS_9allocatorIiEEEEEEvPT_, symObjAddr: 0x6490, symBinAddr: 0x1000088C0, symSize: 0x10 }
  - { offsetInCU: 0x10671, offset: 0x10671, size: 0x8, addend: 0x0, symName: __ZNSt3__1neB7v160006ERKNS_21__hash_const_iteratorIPNS_11__hash_nodeIiPvEEEES7_, symObjAddr: 0x6900, symBinAddr: 0x100008D30, symSize: 0x30 }
  - { offsetInCU: 0x106AE, offset: 0x106AE, size: 0x8, addend: 0x0, symName: __ZNSt3__1eqB7v160006ERKNS_21__hash_const_iteratorIPNS_11__hash_nodeIiPvEEEES7_, symObjAddr: 0x6AF0, symBinAddr: 0x100008F20, symSize: 0x30 }
  - { offsetInCU: 0x106EB, offset: 0x106EB, size: 0x8, addend: 0x0, symName: __ZNSt3__116__constrain_hashB7v160006Emm, symObjAddr: 0x6B90, symBinAddr: 0x100008FC0, symSize: 0x80 }
  - { offsetInCU: 0x10726, offset: 0x10726, size: 0x8, addend: 0x0, symName: '__ZNSt3__19push_heapB7v160006INS_11__wrap_iterIP4EdgeEEZ24GetMaxSpanningTreeWeightRKNS_6vectorINS5_IS2_NS_9allocatorIS2_EEEENS6_IS8_EEEEE3$_0EEvT_SE_T0_', symObjAddr: 0x6E80, symBinAddr: 0x1000092B0, symSize: 0x40 }
  - { offsetInCU: 0x1077C, offset: 0x1077C, size: 0x8, addend: 0x0, symName: __ZNSt3__112construct_atB7v160006I4EdgeJRKS1_EPS1_EEPT_S6_DpOT0_, symObjAddr: 0x70B0, symBinAddr: 0x1000094E0, symSize: 0x30 }
  - { offsetInCU: 0x107EF, offset: 0x107EF, size: 0x8, addend: 0x0, symName: '__ZNSt3__111__push_heapB7v160006INS_17_ClassicAlgPolicyENS_11__wrap_iterIP4EdgeEEZ24GetMaxSpanningTreeWeightRKNS_6vectorINS6_IS3_NS_9allocatorIS3_EEEENS7_IS9_EEEEE3$_0EEvT0_SF_RT1_', symObjAddr: 0x70E0, symBinAddr: 0x100009510, symSize: 0x50 }
  - { offsetInCU: 0x1085C, offset: 0x1085C, size: 0x8, addend: 0x0, symName: __ZNSt3__1miB7v160006IP4EdgeS2_EEDTmicldtfp_4baseEcldtfp0_4baseEERKNS_11__wrap_iterIT_EERKNS4_IT0_EE, symObjAddr: 0x7130, symBinAddr: 0x100009560, symSize: 0x40 }
  - { offsetInCU: 0x108A9, offset: 0x108A9, size: 0x8, addend: 0x0, symName: '__ZNSt3__19__sift_upB7v160006INS_17_ClassicAlgPolicyERZ24GetMaxSpanningTreeWeightRKNS_6vectorINS2_I4EdgeNS_9allocatorIS3_EEEENS4_IS6_EEEEE3$_0NS_11__wrap_iterIPS3_EEEEvT1_SG_OT0_NS_15iterator_traitsISG_E15difference_typeE', symObjAddr: 0x7170, symBinAddr: 0x1000095A0, symSize: 0x160 }
  - { offsetInCU: 0x10959, offset: 0x10959, size: 0x8, addend: 0x0, symName: __ZNSt3__116__is_hash_power2B7v160006Em, symObjAddr: 0x7C90, symBinAddr: 0x10000A0C0, symSize: 0x40 }
  - { offsetInCU: 0x109A3, offset: 0x109A3, size: 0x8, addend: 0x0, symName: __ZNSt3__112construct_atB7v160006IiJiEPiEEPT_S3_DpOT0_, symObjAddr: 0x8110, symBinAddr: 0x10000A540, symSize: 0x30 }
  - { offsetInCU: 0x10A15, offset: 0x10A15, size: 0x8, addend: 0x0, symName: __ZNSt3__116__next_hash_pow2B7v160006Em, symObjAddr: 0x8650, symBinAddr: 0x10000AA80, symSize: 0x60 }
  - { offsetInCU: 0x10A41, offset: 0x10A41, size: 0x8, addend: 0x0, symName: __ZNSt3__125__debug_db_invalidate_allB7v160006INS_12__hash_tableIiNS_4hashIiEENS_8equal_toIiEENS_9allocatorIiEEEEEEvPT_, symObjAddr: 0x86B0, symBinAddr: 0x10000AAE0, symSize: 0x10 }
  - { offsetInCU: 0x10A90, offset: 0x10A90, size: 0x8, addend: 0x0, symName: __ZNSt3__112__libcpp_clzB7v160006Em, symObjAddr: 0x87F0, symBinAddr: 0x10000AC20, symSize: 0x20 }
  - { offsetInCU: 0x10ABD, offset: 0x10ABD, size: 0x8, addend: 0x0, symName: '__ZNSt3__18pop_heapB7v160006INS_11__wrap_iterIP4EdgeEEZ24GetMaxSpanningTreeWeightRKNS_6vectorINS5_IS2_NS_9allocatorIS2_EEEENS6_IS8_EEEEE3$_0EEvT_SE_T0_', symObjAddr: 0x8BB0, symBinAddr: 0x10000AFE0, symSize: 0x50 }
  - { offsetInCU: 0x10B22, offset: 0x10B22, size: 0x8, addend: 0x0, symName: '__ZNSt3__110__pop_heapB7v160006INS_17_ClassicAlgPolicyEZ24GetMaxSpanningTreeWeightRKNS_6vectorINS2_I4EdgeNS_9allocatorIS3_EEEENS4_IS6_EEEEE3$_0NS_11__wrap_iterIPS3_EEEEvT1_SF_RT0_NS_15iterator_traitsISF_E15difference_typeE', symObjAddr: 0x8C30, symBinAddr: 0x10000B060, symSize: 0x130 }
  - { offsetInCU: 0x10BD2, offset: 0x10BD2, size: 0x8, addend: 0x0, symName: __ZNSt3__1eqB7v160006IP4EdgeEEbRKNS_11__wrap_iterIT_EES7_, symObjAddr: 0x8EA0, symBinAddr: 0x10000B2D0, symSize: 0x40 }
  - { offsetInCU: 0x10FBA, offset: 0x10FBA, size: 0x8, addend: 0x0, symName: __ZNSt3__14swapB7v160006IPPiEENS_9enable_ifIXaasr21is_move_constructibleIT_EE5valuesr18is_move_assignableIS4_EE5valueEvE4typeERS4_S7_, symObjAddr: 0xAEC0, symBinAddr: 0x10000D2F0, symSize: 0x40 }
  - { offsetInCU: 0x1100B, offset: 0x1100B, size: 0x8, addend: 0x0, symName: __ZNSt3__14moveB7v160006IPPiS2_EET0_T_S4_S3_, symObjAddr: 0xAF80, symBinAddr: 0x10000D3B0, symSize: 0x40 }
  - { offsetInCU: 0x11065, offset: 0x11065, size: 0x8, addend: 0x0, symName: __ZNSt3__16__moveB7v160006INS_17_ClassicAlgPolicyEPPiS3_S3_EENS_4pairIT0_T2_EES5_T1_S6_, symObjAddr: 0xB120, symBinAddr: 0x10000D550, symSize: 0x40 }
  - { offsetInCU: 0x110D1, offset: 0x110D1, size: 0x8, addend: 0x0, symName: __ZNSt3__123__dispatch_copy_or_moveB7v160006INS_17_ClassicAlgPolicyENS_11__move_loopIS1_EENS_14__move_trivialEPPiS6_S6_EENS_4pairIT2_T4_EES8_T3_S9_, symObjAddr: 0xB160, symBinAddr: 0x10000D590, symSize: 0x40 }
  - { offsetInCU: 0x1114F, offset: 0x1114F, size: 0x8, addend: 0x0, symName: __ZNSt3__121__unwrap_and_dispatchB7v160006INS_10__overloadINS_11__move_loopINS_17_ClassicAlgPolicyEEENS_14__move_trivialEEEPPiS8_S8_Li0EEENS_4pairIT0_T2_EESA_T1_SB_, symObjAddr: 0xB1A0, symBinAddr: 0x10000D5D0, symSize: 0xB0 }
  - { offsetInCU: 0x111DE, offset: 0x111DE, size: 0x8, addend: 0x0, symName: __ZNSt3__114__unwrap_rangeB7v160006IPPiS2_EEDaT_T0_, symObjAddr: 0xB250, symBinAddr: 0x10000D680, symSize: 0x40 }
  - { offsetInCU: 0x113EF, offset: 0x113EF, size: 0x8, addend: 0x0, symName: __ZNSt3__113__unwrap_iterB7v160006IPPiNS_18__unwrap_iter_implIS2_Lb1EEELi0EEEDTclsrT0_8__unwrapclsr3stdE7declvalIT_EEEES6_, symObjAddr: 0xB2D0, symBinAddr: 0x10000D700, symSize: 0x20 }
  - { offsetInCU: 0x11433, offset: 0x11433, size: 0x8, addend: 0x0, symName: __ZNSt3__19make_pairB7v160006IPPiS2_EENS_4pairINS_18__unwrap_ref_decayIT_E4typeENS4_IT0_E4typeEEEOS5_OS8_, symObjAddr: 0xB2F0, symBinAddr: 0x10000D720, symSize: 0x30 }
  - { offsetInCU: 0x11482, offset: 0x11482, size: 0x8, addend: 0x0, symName: __ZNSt3__114__rewrap_rangeB7v160006IPPiS2_S2_EET0_S3_T1_, symObjAddr: 0xB320, symBinAddr: 0x10000D750, symSize: 0x30 }
  - { offsetInCU: 0x114D7, offset: 0x114D7, size: 0x8, addend: 0x0, symName: __ZNSt3__113__rewrap_iterB7v160006IPPiS2_NS_18__unwrap_iter_implIS2_Lb1EEEEET_S5_T0_, symObjAddr: 0xB350, symBinAddr: 0x10000D780, symSize: 0x40 }
  - { offsetInCU: 0x1157C, offset: 0x1157C, size: 0x8, addend: 0x0, symName: __ZNSt3__119__copy_trivial_implB7v160006IPiS1_EENS_4pairIPT_PT0_EES4_S4_S6_, symObjAddr: 0xB440, symBinAddr: 0x10000D870, symSize: 0x70 }
  - { offsetInCU: 0x115E4, offset: 0x115E4, size: 0x8, addend: 0x0, symName: __ZNSt3__19make_pairB7v160006IRPPiS2_EENS_4pairINS_18__unwrap_ref_decayIT_E4typeENS5_IT0_E4typeEEEOS6_OS9_, symObjAddr: 0xB4B0, symBinAddr: 0x10000D8E0, symSize: 0x30 }
  - { offsetInCU: 0x11686, offset: 0x11686, size: 0x8, addend: 0x0, symName: __ZNSt3__18distanceB7v160006INS_13move_iteratorIPPiEEEENS_15iterator_traitsIT_E15difference_typeES6_S6_, symObjAddr: 0xB5E0, symBinAddr: 0x10000DA10, symSize: 0x40 }
  - { offsetInCU: 0x116C9, offset: 0x116C9, size: 0x8, addend: 0x0, symName: __ZNSt3__110__distanceB7v160006INS_13move_iteratorIPPiEEEENS_15iterator_traitsIT_E15difference_typeES6_S6_NS_26random_access_iterator_tagE, symObjAddr: 0xB710, symBinAddr: 0x10000DB40, symSize: 0x30 }
  - { offsetInCU: 0x11717, offset: 0x11717, size: 0x8, addend: 0x0, symName: __ZNSt3__1miB7v160006IPPiS2_EEDTmicldtfp_4baseEcldtfp0_4baseEERKNS_13move_iteratorIT_EERKNS4_IT0_EE, symObjAddr: 0xB740, symBinAddr: 0x10000DB70, symSize: 0x40 }
  - { offsetInCU: 0x1178B, offset: 0x1178B, size: 0x8, addend: 0x0, symName: __ZNSt3__112construct_atB7v160006IPiJS1_EPS1_EEPT_S4_DpOT0_, symObjAddr: 0xB7D0, symBinAddr: 0x10000DC00, symSize: 0x30 }
  - { offsetInCU: 0x117FD, offset: 0x117FD, size: 0x8, addend: 0x0, symName: __ZNSt3__112construct_atB7v160006IPiJRKS1_EPS1_EEPT_S6_DpOT0_, symObjAddr: 0xB8A0, symBinAddr: 0x10000DCD0, symSize: 0x30 }
  - { offsetInCU: 0x1186F, offset: 0x1186F, size: 0x8, addend: 0x0, symName: __ZNSt3__113move_backwardB7v160006IPPiS2_EET0_T_S4_S3_, symObjAddr: 0xB8D0, symBinAddr: 0x10000DD00, symSize: 0x40 }
  - { offsetInCU: 0x118C9, offset: 0x118C9, size: 0x8, addend: 0x0, symName: __ZNSt3__115__move_backwardB7v160006INS_17_ClassicAlgPolicyEPPiS3_S3_EENS_4pairIT0_T2_EES5_T1_S6_, symObjAddr: 0xB910, symBinAddr: 0x10000DD40, symSize: 0x40 }
  - { offsetInCU: 0x11935, offset: 0x11935, size: 0x8, addend: 0x0, symName: __ZNSt3__123__dispatch_copy_or_moveB7v160006INS_17_ClassicAlgPolicyENS_20__move_backward_loopIS1_EENS_23__move_backward_trivialEPPiS6_S6_EENS_4pairIT2_T4_EES8_T3_S9_, symObjAddr: 0xB950, symBinAddr: 0x10000DD80, symSize: 0x40 }
  - { offsetInCU: 0x119B3, offset: 0x119B3, size: 0x8, addend: 0x0, symName: __ZNSt3__121__unwrap_and_dispatchB7v160006INS_10__overloadINS_20__move_backward_loopINS_17_ClassicAlgPolicyEEENS_23__move_backward_trivialEEEPPiS8_S8_Li0EEENS_4pairIT0_T2_EESA_T1_SB_, symObjAddr: 0xB990, symBinAddr: 0x10000DDC0, symSize: 0xB0 }
  - { offsetInCU: 0x11A88, offset: 0x11A88, size: 0x8, addend: 0x0, symName: __ZNSt3__128__copy_backward_trivial_implB7v160006IPiS1_EENS_4pairIPT_PT0_EES4_S4_S6_, symObjAddr: 0xBA80, symBinAddr: 0x10000DEB0, symSize: 0x80 }
  - { offsetInCU: 0x11AF0, offset: 0x11AF0, size: 0x8, addend: 0x0, symName: __ZNSt3__19make_pairB7v160006IRPPiS3_EENS_4pairINS_18__unwrap_ref_decayIT_E4typeENS5_IT0_E4typeEEEOS6_OS9_, symObjAddr: 0xBB00, symBinAddr: 0x10000DF30, symSize: 0x30 }
  - { offsetInCU: 0x11B3F, offset: 0x11B3F, size: 0x8, addend: 0x0, symName: __ZNSt3__119__allocate_at_leastB7v160006INS_9allocatorIPiEEEEDaRT_m, symObjAddr: 0xBC90, symBinAddr: 0x10000E0C0, symSize: 0x40 }
  - { offsetInCU: 0x11B82, offset: 0x11B82, size: 0x8, addend: 0x0, symName: __ZNSt3__117allocate_at_leastB7v160006INS_9allocatorIPiEEEENS_17allocation_resultINS_16allocator_traitsIT_E7pointerEEERS6_m, symObjAddr: 0xBD30, symBinAddr: 0x10000E160, symSize: 0x40 }
  - { offsetInCU: 0x11BC5, offset: 0x11BC5, size: 0x8, addend: 0x0, symName: __ZNSt3__116__pad_and_outputB7v160006IcNS_11char_traitsIcEEEENS_19ostreambuf_iteratorIT_T0_EES6_PKS4_S8_S8_RNS_8ios_baseES4_, symObjAddr: 0xC700, symBinAddr: 0x10000EB30, symSize: 0x220 }
  - { offsetInCU: 0x11C95, offset: 0x11C95, size: 0x8, addend: 0x0, symName: __ZNSt3__119__debug_db_insert_cB7v160006INS_12basic_stringIcNS_11char_traitsIcEENS_9allocatorIcEEEEEEvPT_, symObjAddr: 0xCB90, symBinAddr: 0x10000EFC0, symSize: 0x10 }
  - { offsetInCU: 0x11CC6, offset: 0x11CC6, size: 0x8, addend: 0x0, symName: __ZNSt3__112__to_addressB7v160006IcEEPT_S2_, symObjAddr: 0xCC30, symBinAddr: 0x10000F060, symSize: 0x10 }
  - { offsetInCU: 0x11CFB, offset: 0x11CFB, size: 0x8, addend: 0x0, symName: __ZNSt3__19use_facetB7v160006INS_5ctypeIcEEEERKT_RKNS_6localeE, symObjAddr: 0xCEC0, symBinAddr: 0x10000F2F0, symSize: 0x30 }
  - { offsetInCU: 0x121CA, offset: 0x121CA, size: 0x8, addend: 0x0, symName: __ZNSt3__118__constexpr_strlenB7v160006EPKc, symObjAddr: 0xCF50, symBinAddr: 0x10000F380, symSize: 0x1B }
  - { offsetInCU: 0x126A3, offset: 0x126A3, size: 0x8, addend: 0x0, symName: __ZSt28__throw_bad_array_new_lengthB7v160006v, symObjAddr: 0x1870, symBinAddr: 0x100003CA0, symSize: 0x40 }
  - { offsetInCU: 0x12E2A, offset: 0x12E2A, size: 0x8, addend: 0x0, symName: __ZNSt3__16vectorI4EdgeNS_9allocatorIS1_EEE26__swap_out_circular_bufferERNS_14__split_bufferIS1_RS3_EE, symObjAddr: 0x2570, symBinAddr: 0x1000049A0, symSize: 0x130 }
  - { offsetInCU: 0x15A3C, offset: 0x15A3C, size: 0x8, addend: 0x0, symName: __Z16GetAdjacencyListv, symObjAddr: 0x0, symBinAddr: 0x100002430, symSize: 0x180 }
  - { offsetInCU: 0x15AD2, offset: 0x15AD2, size: 0x8, addend: 0x0, symName: __ZNSt3__16vectorINS0_I4EdgeNS_9allocatorIS1_EEEENS2_IS4_EEEC1Em, symObjAddr: 0x180, symBinAddr: 0x1000025B0, symSize: 0x30 }
  - { offsetInCU: 0x15B0D, offset: 0x15B0D, size: 0x8, addend: 0x0, symName: __ZNSt3__16vectorINS0_I4EdgeNS_9allocatorIS1_EEEENS2_IS4_EEEixB7v160006Em, symObjAddr: 0x1B0, symBinAddr: 0x1000025E0, symSize: 0x20 }
  - { offsetInCU: 0x15B44, offset: 0x15B44, size: 0x8, addend: 0x0, symName: __ZNSt3__16vectorI4EdgeNS_9allocatorIS1_EEE9push_backB7v160006EOS1_, symObjAddr: 0x1D0, symBinAddr: 0x100002600, symSize: 0x60 }
  - { offsetInCU: 0x15B7B, offset: 0x15B7B, size: 0x8, addend: 0x0, symName: __ZN4EdgeC1Eiii, symObjAddr: 0x230, symBinAddr: 0x100002660, symSize: 0x30 }
  - { offsetInCU: 0x15BCF, offset: 0x15BCF, size: 0x8, addend: 0x0, symName: __ZNSt3__16vectorINS0_I4EdgeNS_9allocatorIS1_EEEENS2_IS4_EEED1B7v160006Ev, symObjAddr: 0x260, symBinAddr: 0x100002690, symSize: 0x20 }
  - { offsetInCU: 0x15BF8, offset: 0x15BF8, size: 0x8, addend: 0x0, symName: __Z24GetMaxSpanningTreeWeightRKNSt3__16vectorINS0_I4EdgeNS_9allocatorIS1_EEEENS2_IS4_EEEE, symObjAddr: 0x280, symBinAddr: 0x1000026B0, symSize: 0x300 }
  - { offsetInCU: 0x15CE7, offset: 0x15CE7, size: 0x8, addend: 0x0, symName: '__ZNSt3__114priority_queueI4EdgeNS_6vectorIS1_NS_9allocatorIS1_EEEEZ24GetMaxSpanningTreeWeightRKNS2_IS5_NS3_IS5_EEEEE3$_0EC1B7v160006Ev', symObjAddr: 0x580, symBinAddr: 0x1000029B0, symSize: 0x20 }
  - { offsetInCU: 0x15E53, offset: 0x15E53, size: 0x8, addend: 0x0, symName: __ZNSt3__113unordered_setIiNS_4hashIiEENS_8equal_toIiEENS_9allocatorIiEEEC1B7v160006Ev, symObjAddr: 0x5A0, symBinAddr: 0x1000029D0, symSize: 0x20 }
  - { offsetInCU: 0x15E7D, offset: 0x15E7D, size: 0x8, addend: 0x0, symName: '__Z16PushRangeToQueueIZ24GetMaxSpanningTreeWeightRKNSt3__16vectorINS1_I4EdgeNS0_9allocatorIS2_EEEENS3_IS5_EEEEE3$_0EvRNS0_14priority_queueIS2_S5_T_EES5_RNS0_13unordered_setIiNS0_4hashIiEENS0_8equal_toIiEENS3_IiEEEE', symObjAddr: 0x5C0, symBinAddr: 0x1000029F0, symSize: 0xA0 }
  - { offsetInCU: 0x15F1D, offset: 0x15F1D, size: 0x8, addend: 0x0, symName: __ZNKSt3__16vectorINS0_I4EdgeNS_9allocatorIS1_EEEENS2_IS4_EEEixB7v160006Em, symObjAddr: 0x660, symBinAddr: 0x100002A90, symSize: 0x20 }
  - { offsetInCU: 0x15F54, offset: 0x15F54, size: 0x8, addend: 0x0, symName: __ZNSt3__16vectorI4EdgeNS_9allocatorIS1_EEEC1ERKS4_, symObjAddr: 0x680, symBinAddr: 0x100002AB0, symSize: 0x30 }
  - { offsetInCU: 0x15F8F, offset: 0x15F8F, size: 0x8, addend: 0x0, symName: __ZNSt3__16vectorI4EdgeNS_9allocatorIS1_EEED1B7v160006Ev, symObjAddr: 0x6B0, symBinAddr: 0x100002AE0, symSize: 0x20 }
  - { offsetInCU: 0x15FB9, offset: 0x15FB9, size: 0x8, addend: 0x0, symName: __ZNSt3__113unordered_setIiNS_4hashIiEENS_8equal_toIiEENS_9allocatorIiEEE6insertB7v160006EOi, symObjAddr: 0x6D0, symBinAddr: 0x100002B00, symSize: 0x40 }
  - { offsetInCU: 0x15FEE, offset: 0x15FEE, size: 0x8, addend: 0x0, symName: '__ZNKSt3__114priority_queueI4EdgeNS_6vectorIS1_NS_9allocatorIS1_EEEEZ24GetMaxSpanningTreeWeightRKNS2_IS5_NS3_IS5_EEEEE3$_0E5emptyB7v160006Ev', symObjAddr: 0x710, symBinAddr: 0x100002B40, symSize: 0x20 }
  - { offsetInCU: 0x16014, offset: 0x16014, size: 0x8, addend: 0x0, symName: __ZNKSt3__113unordered_setIiNS_4hashIiEENS_8equal_toIiEENS_9allocatorIiEEE4sizeB7v160006Ev, symObjAddr: 0x730, symBinAddr: 0x100002B60, symSize: 0x20 }
  - { offsetInCU: 0x1603A, offset: 0x1603A, size: 0x8, addend: 0x0, symName: __ZNKSt3__16vectorINS0_I4EdgeNS_9allocatorIS1_EEEENS2_IS4_EEE4sizeB7v160006Ev, symObjAddr: 0x750, symBinAddr: 0x100002B80, symSize: 0x30 }
  - { offsetInCU: 0x1605F, offset: 0x1605F, size: 0x8, addend: 0x0, symName: '__Z14ExtractMaxEdgeIZ24GetMaxSpanningTreeWeightRKNSt3__16vectorINS1_I4EdgeNS0_9allocatorIS2_EEEENS3_IS5_EEEEE3$_0ENS0_8optionalIS2_EERNS0_14priority_queueIS2_S5_T_EERNS0_13unordered_setIiNS0_4hashIiEENS0_8equal_toIiEENS3_IiEEEE', symObjAddr: 0x780, symBinAddr: 0x100002BB0, symSize: 0x90 }
  - { offsetInCU: 0x16133, offset: 0x16133, size: 0x8, addend: 0x0, symName: __ZNRSt3__18optionalI4EdgeE5valueB7v160006Ev, symObjAddr: 0x810, symBinAddr: 0x100002C40, symSize: 0x40 }
  - { offsetInCU: 0x16159, offset: 0x16159, size: 0x8, addend: 0x0, symName: __ZNSt3__113unordered_setIiNS_4hashIiEENS_8equal_toIiEENS_9allocatorIiEEE6insertB7v160006ERKi, symObjAddr: 0x850, symBinAddr: 0x100002C80, symSize: 0x40 }
  - { offsetInCU: 0x1618E, offset: 0x1618E, size: 0x8, addend: 0x0, symName: __ZNSt3__113unordered_setIiNS_4hashIiEENS_8equal_toIiEENS_9allocatorIiEEED1B7v160006Ev, symObjAddr: 0x890, symBinAddr: 0x100002CC0, symSize: 0x20 }
  - { offsetInCU: 0x161B8, offset: 0x161B8, size: 0x8, addend: 0x0, symName: '__ZNSt3__114priority_queueI4EdgeNS_6vectorIS1_NS_9allocatorIS1_EEEEZ24GetMaxSpanningTreeWeightRKNS2_IS5_NS3_IS5_EEEEE3$_0ED1Ev', symObjAddr: 0x8B0, symBinAddr: 0x100002CE0, symSize: 0x20 }
  - { offsetInCU: 0x161E4, offset: 0x161E4, size: 0x8, addend: 0x0, symName: __Z3DFSiRKNSt3__16vectorINS0_I4EdgeNS_9allocatorIS1_EEEENS2_IS4_EEEERNS0_IiNS2_IiEEEEi, symObjAddr: 0x8D0, symBinAddr: 0x100002D00, symSize: 0x1B0 }
  - { offsetInCU: 0x162A8, offset: 0x162A8, size: 0x8, addend: 0x0, symName: __ZNSt3__16vectorIiNS_9allocatorIiEEEixB7v160006Em, symObjAddr: 0xA80, symBinAddr: 0x100002EB0, symSize: 0x20 }
  - { offsetInCU: 0x16324, offset: 0x16324, size: 0x8, addend: 0x0, symName: __ZNSt3__15stackIiNS_5dequeIiNS_9allocatorIiEEEEEC1B7v160006Ev, symObjAddr: 0xAA0, symBinAddr: 0x100002ED0, symSize: 0x20 }
  - { offsetInCU: 0x1634E, offset: 0x1634E, size: 0x8, addend: 0x0, symName: __ZNSt3__15stackIiNS_5dequeIiNS_9allocatorIiEEEEE4pushB7v160006ERKi, symObjAddr: 0xAC0, symBinAddr: 0x100002EF0, symSize: 0x30 }
  - { offsetInCU: 0x16382, offset: 0x16382, size: 0x8, addend: 0x0, symName: __ZNKSt3__15stackIiNS_5dequeIiNS_9allocatorIiEEEEE5emptyB7v160006Ev, symObjAddr: 0xAF0, symBinAddr: 0x100002F20, symSize: 0x20 }
  - { offsetInCU: 0x163A8, offset: 0x163A8, size: 0x8, addend: 0x0, symName: __ZNSt3__15stackIiNS_5dequeIiNS_9allocatorIiEEEEE3topB7v160006Ev, symObjAddr: 0xB10, symBinAddr: 0x100002F40, symSize: 0x20 }
  - { offsetInCU: 0x163CE, offset: 0x163CE, size: 0x8, addend: 0x0, symName: __ZNSt3__15stackIiNS_5dequeIiNS_9allocatorIiEEEEE3popB7v160006Ev, symObjAddr: 0xB30, symBinAddr: 0x100002F60, symSize: 0x20 }
  - { offsetInCU: 0x163F4, offset: 0x163F4, size: 0x8, addend: 0x0, symName: __ZNKSt3__16vectorI4EdgeNS_9allocatorIS1_EEE5beginB7v160006Ev, symObjAddr: 0xB50, symBinAddr: 0x100002F80, symSize: 0x30 }
  - { offsetInCU: 0x1641C, offset: 0x1641C, size: 0x8, addend: 0x0, symName: __ZNKSt3__16vectorI4EdgeNS_9allocatorIS1_EEE3endB7v160006Ev, symObjAddr: 0xB80, symBinAddr: 0x100002FB0, symSize: 0x30 }
  - { offsetInCU: 0x16444, offset: 0x16444, size: 0x8, addend: 0x0, symName: __ZNKSt3__111__wrap_iterIPK4EdgeEdeB7v160006Ev, symObjAddr: 0xBE0, symBinAddr: 0x100003010, symSize: 0x20 }
  - { offsetInCU: 0x1646A, offset: 0x1646A, size: 0x8, addend: 0x0, symName: __ZNSt3__111__wrap_iterIPK4EdgeEppB7v160006Ev, symObjAddr: 0xC00, symBinAddr: 0x100003030, symSize: 0x20 }
  - { offsetInCU: 0x16490, offset: 0x16490, size: 0x8, addend: 0x0, symName: __ZNSt3__15stackIiNS_5dequeIiNS_9allocatorIiEEEEED1Ev, symObjAddr: 0xC20, symBinAddr: 0x100003050, symSize: 0x20 }
  - { offsetInCU: 0x164BB, offset: 0x164BB, size: 0x8, addend: 0x0, symName: __Z20CheckForConnectivityRKNSt3__16vectorINS0_I4EdgeNS_9allocatorIS1_EEEENS2_IS4_EEEE, symObjAddr: 0xC40, symBinAddr: 0x100003070, symSize: 0x140 }
  - { offsetInCU: 0x16518, offset: 0x16518, size: 0x8, addend: 0x0, symName: __ZNSt3__16vectorIiNS_9allocatorIiEEEC1EmRKi, symObjAddr: 0xD80, symBinAddr: 0x1000031B0, symSize: 0x30 }
  - { offsetInCU: 0x16562, offset: 0x16562, size: 0x8, addend: 0x0, symName: __ZNSt3__16vectorIiNS_9allocatorIiEEED1B7v160006Ev, symObjAddr: 0xDB0, symBinAddr: 0x1000031E0, symSize: 0x20 }
  - { offsetInCU: 0x1658C, offset: 0x1658C, size: 0x8, addend: 0x0, symName: _main, symObjAddr: 0xDD0, symBinAddr: 0x100003200, symSize: 0x110 }
  - { offsetInCU: 0x165C3, offset: 0x165C3, size: 0x8, addend: 0x0, symName: __ZNSt3__16vectorINS0_I4EdgeNS_9allocatorIS1_EEEENS2_IS4_EEEC2Em, symObjAddr: 0xF50, symBinAddr: 0x100003380, symSize: 0xE0 }
  - { offsetInCU: 0x1661F, offset: 0x1661F, size: 0x8, addend: 0x0, symName: __ZNSt3__117__compressed_pairIPNS_6vectorI4EdgeNS_9allocatorIS2_EEEENS3_IS5_EEEC1B7v160006IDnNS_18__default_init_tagEEEOT_OT0_, symObjAddr: 0x1030, symBinAddr: 0x100003460, symSize: 0x30 }
  - { offsetInCU: 0x16677, offset: 0x16677, size: 0x8, addend: 0x0, symName: __ZNSt3__16vectorINS0_I4EdgeNS_9allocatorIS1_EEEENS2_IS4_EEE16__destroy_vectorC1ERS6_, symObjAddr: 0x10A0, symBinAddr: 0x1000034D0, symSize: 0x30 }
  - { offsetInCU: 0x166B0, offset: 0x166B0, size: 0x8, addend: 0x0, symName: __ZNSt3__16vectorINS0_I4EdgeNS_9allocatorIS1_EEEENS2_IS4_EEE11__vallocateB7v160006Em, symObjAddr: 0x10E0, symBinAddr: 0x100003510, symSize: 0xA0 }
  - { offsetInCU: 0x166F4, offset: 0x166F4, size: 0x8, addend: 0x0, symName: __ZNSt3__16vectorINS0_I4EdgeNS_9allocatorIS1_EEEENS2_IS4_EEE18__construct_at_endEm, symObjAddr: 0x1180, symBinAddr: 0x1000035B0, symSize: 0xC0 }
  - { offsetInCU: 0x16766, offset: 0x16766, size: 0x8, addend: 0x0, symName: __ZNSt3__128__exception_guard_exceptionsINS_6vectorINS1_I4EdgeNS_9allocatorIS2_EEEENS3_IS5_EEE16__destroy_vectorEE10__completeB7v160006Ev, symObjAddr: 0x1240, symBinAddr: 0x100003670, symSize: 0x20 }
  - { offsetInCU: 0x1678C, offset: 0x1678C, size: 0x8, addend: 0x0, symName: __ZNSt3__128__exception_guard_exceptionsINS_6vectorINS1_I4EdgeNS_9allocatorIS2_EEEENS3_IS5_EEE16__destroy_vectorEED1B7v160006Ev, symObjAddr: 0x1260, symBinAddr: 0x100003690, symSize: 0x20 }
  - { offsetInCU: 0x167B6, offset: 0x167B6, size: 0x8, addend: 0x0, symName: __ZNSt3__117__compressed_pairIPNS_6vectorI4EdgeNS_9allocatorIS2_EEEENS3_IS5_EEEC2B7v160006IDnNS_18__default_init_tagEEEOT_OT0_, symObjAddr: 0x1280, symBinAddr: 0x1000036B0, symSize: 0x40 }
  - { offsetInCU: 0x1680E, offset: 0x1680E, size: 0x8, addend: 0x0, symName: __ZNSt3__122__compressed_pair_elemIPNS_6vectorI4EdgeNS_9allocatorIS2_EEEELi0ELb0EEC2B7v160006IDnvEEOT_, symObjAddr: 0x12C0, symBinAddr: 0x1000036F0, symSize: 0x20 }
  - { offsetInCU: 0x16850, offset: 0x16850, size: 0x8, addend: 0x0, symName: __ZNSt3__122__compressed_pair_elemINS_9allocatorINS_6vectorI4EdgeNS1_IS3_EEEEEELi1ELb1EEC2B7v160006ENS_18__default_init_tagE, symObjAddr: 0x12E0, symBinAddr: 0x100003710, symSize: 0x20 }
  - { offsetInCU: 0x16885, offset: 0x16885, size: 0x8, addend: 0x0, symName: __ZNSt3__19allocatorINS_6vectorI4EdgeNS0_IS2_EEEEEC2B7v160006Ev, symObjAddr: 0x1300, symBinAddr: 0x100003730, symSize: 0x20 }
  - { offsetInCU: 0x168AF, offset: 0x168AF, size: 0x8, addend: 0x0, symName: __ZNSt3__116__non_trivial_ifILb1ENS_9allocatorINS_6vectorI4EdgeNS1_IS3_EEEEEEEC2B7v160006Ev, symObjAddr: 0x1320, symBinAddr: 0x100003750, symSize: 0x10 }
  - { offsetInCU: 0x168D9, offset: 0x168D9, size: 0x8, addend: 0x0, symName: __ZNSt3__128__exception_guard_exceptionsINS_6vectorINS1_I4EdgeNS_9allocatorIS2_EEEENS3_IS5_EEE16__destroy_vectorEEC1B7v160006ES8_, symObjAddr: 0x1330, symBinAddr: 0x100003760, symSize: 0x30 }
  - { offsetInCU: 0x16911, offset: 0x16911, size: 0x8, addend: 0x0, symName: __ZNSt3__128__exception_guard_exceptionsINS_6vectorINS1_I4EdgeNS_9allocatorIS2_EEEENS3_IS5_EEE16__destroy_vectorEEC2B7v160006ES8_, symObjAddr: 0x1360, symBinAddr: 0x100003790, symSize: 0x20 }
  - { offsetInCU: 0x16949, offset: 0x16949, size: 0x8, addend: 0x0, symName: __ZNSt3__16vectorINS0_I4EdgeNS_9allocatorIS1_EEEENS2_IS4_EEE16__destroy_vectorC2ERS6_, symObjAddr: 0x1380, symBinAddr: 0x1000037B0, symSize: 0x20 }
  - { offsetInCU: 0x16982, offset: 0x16982, size: 0x8, addend: 0x0, symName: __ZNKSt3__16vectorINS0_I4EdgeNS_9allocatorIS1_EEEENS2_IS4_EEE8max_sizeEv, symObjAddr: 0x13A0, symBinAddr: 0x1000037D0, symSize: 0x60 }
  - { offsetInCU: 0x169AA, offset: 0x169AA, size: 0x8, addend: 0x0, symName: __ZNKSt3__16vectorINS0_I4EdgeNS_9allocatorIS1_EEEENS2_IS4_EEE20__throw_length_errorB7v160006Ev, symObjAddr: 0x1400, symBinAddr: 0x100003830, symSize: 0x20 }
  - { offsetInCU: 0x169D0, offset: 0x169D0, size: 0x8, addend: 0x0, symName: __ZNSt3__16vectorINS0_I4EdgeNS_9allocatorIS1_EEEENS2_IS4_EEE7__allocB7v160006Ev, symObjAddr: 0x1460, symBinAddr: 0x100003890, symSize: 0x20 }
  - { offsetInCU: 0x169F6, offset: 0x169F6, size: 0x8, addend: 0x0, symName: __ZNSt3__16vectorINS0_I4EdgeNS_9allocatorIS1_EEEENS2_IS4_EEE9__end_capB7v160006Ev, symObjAddr: 0x1480, symBinAddr: 0x1000038B0, symSize: 0x20 }
  - { offsetInCU: 0x16A1C, offset: 0x16A1C, size: 0x8, addend: 0x0, symName: __ZNKSt3__16vectorINS0_I4EdgeNS_9allocatorIS1_EEEENS2_IS4_EEE14__annotate_newB7v160006Em, symObjAddr: 0x14A0, symBinAddr: 0x1000038D0, symSize: 0xA0 }
  - { offsetInCU: 0x16A5C, offset: 0x16A5C, size: 0x8, addend: 0x0, symName: __ZNSt3__116allocator_traitsINS_9allocatorINS_6vectorI4EdgeNS1_IS3_EEEEEEE8max_sizeB7v160006IS6_vvEEmRKS6_, symObjAddr: 0x1570, symBinAddr: 0x1000039A0, symSize: 0x30 }
  - { offsetInCU: 0x16A88, offset: 0x16A88, size: 0x8, addend: 0x0, symName: __ZNKSt3__16vectorINS0_I4EdgeNS_9allocatorIS1_EEEENS2_IS4_EEE7__allocB7v160006Ev, symObjAddr: 0x15A0, symBinAddr: 0x1000039D0, symSize: 0x20 }
  - { offsetInCU: 0x16AAE, offset: 0x16AAE, size: 0x8, addend: 0x0, symName: __ZNSt3__114numeric_limitsIlE3maxB7v160006Ev, symObjAddr: 0x15C0, symBinAddr: 0x1000039F0, symSize: 0x10 }
  - { offsetInCU: 0x16ACD, offset: 0x16ACD, size: 0x8, addend: 0x0, symName: __ZNKSt3__16__lessImmEclB7v160006ERKmS3_, symObjAddr: 0x1630, symBinAddr: 0x100003A60, symSize: 0x30 }
  - { offsetInCU: 0x16B0F, offset: 0x16B0F, size: 0x8, addend: 0x0, symName: __ZNSt3__114numeric_limitsImE3maxB7v160006Ev, symObjAddr: 0x1660, symBinAddr: 0x100003A90, symSize: 0x10 }
  - { offsetInCU: 0x16B23, offset: 0x16B23, size: 0x8, addend: 0x0, symName: __ZNSt3__123__libcpp_numeric_limitsImLb1EE3maxB7v160006Ev, symObjAddr: 0x1670, symBinAddr: 0x100003AA0, symSize: 0x10 }
  - { offsetInCU: 0x16B37, offset: 0x16B37, size: 0x8, addend: 0x0, symName: __ZNKSt3__117__compressed_pairIPNS_6vectorI4EdgeNS_9allocatorIS2_EEEENS3_IS5_EEE6secondB7v160006Ev, symObjAddr: 0x1680, symBinAddr: 0x100003AB0, symSize: 0x20 }
  - { offsetInCU: 0x16B5D, offset: 0x16B5D, size: 0x8, addend: 0x0, symName: __ZNKSt3__122__compressed_pair_elemINS_9allocatorINS_6vectorI4EdgeNS1_IS3_EEEEEELi1ELb1EE5__getB7v160006Ev, symObjAddr: 0x16A0, symBinAddr: 0x100003AD0, symSize: 0x10 }
  - { offsetInCU: 0x16B83, offset: 0x16B83, size: 0x8, addend: 0x0, symName: __ZNSt3__123__libcpp_numeric_limitsIlLb1EE3maxB7v160006Ev, symObjAddr: 0x16B0, symBinAddr: 0x100003AE0, symSize: 0x10 }
  - { offsetInCU: 0x16B97, offset: 0x16B97, size: 0x8, addend: 0x0, symName: __ZNSt12length_errorC1B7v160006EPKc, symObjAddr: 0x1730, symBinAddr: 0x100003B60, symSize: 0x30 }
  - { offsetInCU: 0x16BCF, offset: 0x16BCF, size: 0x8, addend: 0x0, symName: __ZNSt12length_errorC2B7v160006EPKc, symObjAddr: 0x1760, symBinAddr: 0x100003B90, symSize: 0x40 }
  - { offsetInCU: 0x16C07, offset: 0x16C07, size: 0x8, addend: 0x0, symName: __ZNSt3__19allocatorINS_6vectorI4EdgeNS0_IS2_EEEEE17allocate_at_leastB7v160006Em, symObjAddr: 0x17E0, symBinAddr: 0x100003C10, symSize: 0x40 }
  - { offsetInCU: 0x16C3B, offset: 0x16C3B, size: 0x8, addend: 0x0, symName: __ZNSt3__19allocatorINS_6vectorI4EdgeNS0_IS2_EEEEE8allocateB7v160006Em, symObjAddr: 0x1820, symBinAddr: 0x100003C50, symSize: 0x50 }
  - { offsetInCU: 0x16C6F, offset: 0x16C6F, size: 0x8, addend: 0x0, symName: __ZNSt3__117__compressed_pairIPNS_6vectorI4EdgeNS_9allocatorIS2_EEEENS3_IS5_EEE6secondB7v160006Ev, symObjAddr: 0x1980, symBinAddr: 0x100003DB0, symSize: 0x20 }
  - { offsetInCU: 0x16C95, offset: 0x16C95, size: 0x8, addend: 0x0, symName: __ZNSt3__122__compressed_pair_elemINS_9allocatorINS_6vectorI4EdgeNS1_IS3_EEEEEELi1ELb1EE5__getB7v160006Ev, symObjAddr: 0x19A0, symBinAddr: 0x100003DD0, symSize: 0x10 }
  - { offsetInCU: 0x16CBB, offset: 0x16CBB, size: 0x8, addend: 0x0, symName: __ZNSt3__117__compressed_pairIPNS_6vectorI4EdgeNS_9allocatorIS2_EEEENS3_IS5_EEE5firstB7v160006Ev, symObjAddr: 0x19B0, symBinAddr: 0x100003DE0, symSize: 0x20 }
  - { offsetInCU: 0x16CE1, offset: 0x16CE1, size: 0x8, addend: 0x0, symName: __ZNSt3__122__compressed_pair_elemIPNS_6vectorI4EdgeNS_9allocatorIS2_EEEELi0ELb0EE5__getB7v160006Ev, symObjAddr: 0x19D0, symBinAddr: 0x100003E00, symSize: 0x10 }
  - { offsetInCU: 0x16D07, offset: 0x16D07, size: 0x8, addend: 0x0, symName: __ZNKSt3__16vectorINS0_I4EdgeNS_9allocatorIS1_EEEENS2_IS4_EEE31__annotate_contiguous_containerB7v160006EPKvS8_S8_S8_, symObjAddr: 0x19E0, symBinAddr: 0x100003E10, symSize: 0x20 }
  - { offsetInCU: 0x16D5D, offset: 0x16D5D, size: 0x8, addend: 0x0, symName: __ZNKSt3__16vectorINS0_I4EdgeNS_9allocatorIS1_EEEENS2_IS4_EEE4dataB7v160006Ev, symObjAddr: 0x1A00, symBinAddr: 0x100003E30, symSize: 0x20 }
  - { offsetInCU: 0x16D83, offset: 0x16D83, size: 0x8, addend: 0x0, symName: __ZNKSt3__16vectorINS0_I4EdgeNS_9allocatorIS1_EEEENS2_IS4_EEE8capacityB7v160006Ev, symObjAddr: 0x1A20, symBinAddr: 0x100003E50, symSize: 0x40 }
  - { offsetInCU: 0x16DA9, offset: 0x16DA9, size: 0x8, addend: 0x0, symName: __ZNKSt3__16vectorINS0_I4EdgeNS_9allocatorIS1_EEEENS2_IS4_EEE9__end_capB7v160006Ev, symObjAddr: 0x1A70, symBinAddr: 0x100003EA0, symSize: 0x20 }
  - { offsetInCU: 0x16DCF, offset: 0x16DCF, size: 0x8, addend: 0x0, symName: __ZNKSt3__117__compressed_pairIPNS_6vectorI4EdgeNS_9allocatorIS2_EEEENS3_IS5_EEE5firstB7v160006Ev, symObjAddr: 0x1A90, symBinAddr: 0x100003EC0, symSize: 0x20 }
  - { offsetInCU: 0x16DF5, offset: 0x16DF5, size: 0x8, addend: 0x0, symName: __ZNKSt3__122__compressed_pair_elemIPNS_6vectorI4EdgeNS_9allocatorIS2_EEEELi0ELb0EE5__getB7v160006Ev, symObjAddr: 0x1AB0, symBinAddr: 0x100003EE0, symSize: 0x10 }
  - { offsetInCU: 0x16E37, offset: 0x16E37, size: 0x8, addend: 0x0, symName: __ZNSt3__16vectorINS0_I4EdgeNS_9allocatorIS1_EEEENS2_IS4_EEE21_ConstructTransactionC1B7v160006ERS6_m, symObjAddr: 0x1AC0, symBinAddr: 0x100003EF0, symSize: 0x30 }
  - { offsetInCU: 0x16E7F, offset: 0x16E7F, size: 0x8, addend: 0x0, symName: __ZNSt3__116allocator_traitsINS_9allocatorINS_6vectorI4EdgeNS1_IS3_EEEEEEE9constructB7v160006IS5_JEvvEEvRS6_PT_DpOT0_, symObjAddr: 0x1AF0, symBinAddr: 0x100003F20, symSize: 0x20 }
  - { offsetInCU: 0x16EBF, offset: 0x16EBF, size: 0x8, addend: 0x0, symName: __ZNSt3__16vectorINS0_I4EdgeNS_9allocatorIS1_EEEENS2_IS4_EEE21_ConstructTransactionD1B7v160006Ev, symObjAddr: 0x1B10, symBinAddr: 0x100003F40, symSize: 0x20 }
  - { offsetInCU: 0x16EE9, offset: 0x16EE9, size: 0x8, addend: 0x0, symName: __ZNSt3__16vectorINS0_I4EdgeNS_9allocatorIS1_EEEENS2_IS4_EEE21_ConstructTransactionC2B7v160006ERS6_m, symObjAddr: 0x1B30, symBinAddr: 0x100003F60, symSize: 0x40 }
  - { offsetInCU: 0x16F31, offset: 0x16F31, size: 0x8, addend: 0x0, symName: __ZNSt3__16vectorI4EdgeNS_9allocatorIS1_EEEC1B7v160006Ev, symObjAddr: 0x1BA0, symBinAddr: 0x100003FD0, symSize: 0x20 }
  - { offsetInCU: 0x16F5B, offset: 0x16F5B, size: 0x8, addend: 0x0, symName: __ZNSt3__16vectorI4EdgeNS_9allocatorIS1_EEEC2B7v160006Ev, symObjAddr: 0x1BC0, symBinAddr: 0x100003FF0, symSize: 0x60 }
  - { offsetInCU: 0x16F85, offset: 0x16F85, size: 0x8, addend: 0x0, symName: __ZNSt3__117__compressed_pairIP4EdgeNS_9allocatorIS1_EEEC1B7v160006IDnNS_18__default_init_tagEEEOT_OT0_, symObjAddr: 0x1C20, symBinAddr: 0x100004050, symSize: 0x30 }
  - { offsetInCU: 0x16FDD, offset: 0x16FDD, size: 0x8, addend: 0x0, symName: __ZNSt3__117__compressed_pairIP4EdgeNS_9allocatorIS1_EEEC2B7v160006IDnNS_18__default_init_tagEEEOT_OT0_, symObjAddr: 0x1C60, symBinAddr: 0x100004090, symSize: 0x40 }
  - { offsetInCU: 0x17035, offset: 0x17035, size: 0x8, addend: 0x0, symName: __ZNSt3__122__compressed_pair_elemIP4EdgeLi0ELb0EEC2B7v160006IDnvEEOT_, symObjAddr: 0x1CA0, symBinAddr: 0x1000040D0, symSize: 0x20 }
  - { offsetInCU: 0x17077, offset: 0x17077, size: 0x8, addend: 0x0, symName: __ZNSt3__122__compressed_pair_elemINS_9allocatorI4EdgeEELi1ELb1EEC2B7v160006ENS_18__default_init_tagE, symObjAddr: 0x1CC0, symBinAddr: 0x1000040F0, symSize: 0x20 }
  - { offsetInCU: 0x170AC, offset: 0x170AC, size: 0x8, addend: 0x0, symName: __ZNSt3__19allocatorI4EdgeEC2B7v160006Ev, symObjAddr: 0x1CE0, symBinAddr: 0x100004110, symSize: 0x20 }
  - { offsetInCU: 0x170D6, offset: 0x170D6, size: 0x8, addend: 0x0, symName: __ZNSt3__116__non_trivial_ifILb1ENS_9allocatorI4EdgeEEEC2B7v160006Ev, symObjAddr: 0x1D00, symBinAddr: 0x100004130, symSize: 0x10 }
  - { offsetInCU: 0x17100, offset: 0x17100, size: 0x8, addend: 0x0, symName: __ZNSt3__16vectorINS0_I4EdgeNS_9allocatorIS1_EEEENS2_IS4_EEE21_ConstructTransactionD2B7v160006Ev, symObjAddr: 0x1D10, symBinAddr: 0x100004140, symSize: 0x20 }
  - { offsetInCU: 0x1712A, offset: 0x1712A, size: 0x8, addend: 0x0, symName: __ZNSt3__128__exception_guard_exceptionsINS_6vectorINS1_I4EdgeNS_9allocatorIS2_EEEENS3_IS5_EEE16__destroy_vectorEED2B7v160006Ev, symObjAddr: 0x1D30, symBinAddr: 0x100004160, symSize: 0x40 }
  - { offsetInCU: 0x17154, offset: 0x17154, size: 0x8, addend: 0x0, symName: __ZNSt3__16vectorINS0_I4EdgeNS_9allocatorIS1_EEEENS2_IS4_EEE16__destroy_vectorclB7v160006Ev, symObjAddr: 0x1D70, symBinAddr: 0x1000041A0, symSize: 0x90 }
  - { offsetInCU: 0x1717A, offset: 0x1717A, size: 0x8, addend: 0x0, symName: __ZNKSt3__16vectorINS0_I4EdgeNS_9allocatorIS1_EEEENS2_IS4_EEE17__annotate_deleteB7v160006Ev, symObjAddr: 0x1E00, symBinAddr: 0x100004230, symSize: 0xB0 }
  - { offsetInCU: 0x171A0, offset: 0x171A0, size: 0x8, addend: 0x0, symName: __ZNSt3__16vectorINS0_I4EdgeNS_9allocatorIS1_EEEENS2_IS4_EEE7__clearB7v160006Ev, symObjAddr: 0x1EC0, symBinAddr: 0x1000042F0, symSize: 0x20 }
  - { offsetInCU: 0x171C6, offset: 0x171C6, size: 0x8, addend: 0x0, symName: __ZNSt3__116allocator_traitsINS_9allocatorINS_6vectorI4EdgeNS1_IS3_EEEEEEE10deallocateB7v160006ERS6_PS5_m, symObjAddr: 0x1EE0, symBinAddr: 0x100004310, symSize: 0x30 }
  - { offsetInCU: 0x17208, offset: 0x17208, size: 0x8, addend: 0x0, symName: __ZNSt3__16vectorINS0_I4EdgeNS_9allocatorIS1_EEEENS2_IS4_EEE22__base_destruct_at_endB7v160006EPS4_, symObjAddr: 0x1F10, symBinAddr: 0x100004340, symSize: 0x80 }
  - { offsetInCU: 0x1724C, offset: 0x1724C, size: 0x8, addend: 0x0, symName: __ZNSt3__116allocator_traitsINS_9allocatorINS_6vectorI4EdgeNS1_IS3_EEEEEEE7destroyB7v160006IS5_vvEEvRS6_PT_, symObjAddr: 0x1F90, symBinAddr: 0x1000043C0, symSize: 0x20 }
  - { offsetInCU: 0x17287, offset: 0x17287, size: 0x8, addend: 0x0, symName: __ZNSt3__19allocatorINS_6vectorI4EdgeNS0_IS2_EEEEE10deallocateB7v160006EPS4_m, symObjAddr: 0x1FF0, symBinAddr: 0x100004420, symSize: 0x50 }
  - { offsetInCU: 0x172C9, offset: 0x172C9, size: 0x8, addend: 0x0, symName: __ZNSt3__16vectorI4EdgeNS_9allocatorIS1_EEE9__end_capB7v160006Ev, symObjAddr: 0x2140, symBinAddr: 0x100004570, symSize: 0x20 }
  - { offsetInCU: 0x172F5, offset: 0x172F5, size: 0x8, addend: 0x0, symName: __ZNSt3__16vectorI4EdgeNS_9allocatorIS1_EEE22__construct_one_at_endB7v160006IJS1_EEEvDpOT_, symObjAddr: 0x2160, symBinAddr: 0x100004590, symSize: 0x90 }
  - { offsetInCU: 0x17344, offset: 0x17344, size: 0x8, addend: 0x0, symName: __ZNSt3__16vectorI4EdgeNS_9allocatorIS1_EEE21__push_back_slow_pathIS1_EEvOT_, symObjAddr: 0x21F0, symBinAddr: 0x100004620, symSize: 0xD0 }
  - { offsetInCU: 0x173A2, offset: 0x173A2, size: 0x8, addend: 0x0, symName: __ZNSt3__117__compressed_pairIP4EdgeNS_9allocatorIS1_EEE5firstB7v160006Ev, symObjAddr: 0x22C0, symBinAddr: 0x1000046F0, symSize: 0x20 }
  - { offsetInCU: 0x173C8, offset: 0x173C8, size: 0x8, addend: 0x0, symName: __ZNSt3__122__compressed_pair_elemIP4EdgeLi0ELb0EE5__getB7v160006Ev, symObjAddr: 0x22E0, symBinAddr: 0x100004710, symSize: 0x10 }
  - { offsetInCU: 0x1740A, offset: 0x1740A, size: 0x8, addend: 0x0, symName: __ZNSt3__16vectorI4EdgeNS_9allocatorIS1_EEE21_ConstructTransactionC1B7v160006ERS4_m, symObjAddr: 0x22F0, symBinAddr: 0x100004720, symSize: 0x30 }
  - { offsetInCU: 0x17452, offset: 0x17452, size: 0x8, addend: 0x0, symName: __ZNSt3__116allocator_traitsINS_9allocatorI4EdgeEEE9constructB7v160006IS2_JS2_EvvEEvRS3_PT_DpOT0_, symObjAddr: 0x2320, symBinAddr: 0x100004750, symSize: 0x30 }
  - { offsetInCU: 0x174A7, offset: 0x174A7, size: 0x8, addend: 0x0, symName: __ZNSt3__16vectorI4EdgeNS_9allocatorIS1_EEE7__allocB7v160006Ev, symObjAddr: 0x2350, symBinAddr: 0x100004780, symSize: 0x20 }
  - { offsetInCU: 0x174CD, offset: 0x174CD, size: 0x8, addend: 0x0, symName: __ZNSt3__16vectorI4EdgeNS_9allocatorIS1_EEE21_ConstructTransactionD1B7v160006Ev, symObjAddr: 0x2380, symBinAddr: 0x1000047B0, symSize: 0x20 }
  - { offsetInCU: 0x174F7, offset: 0x174F7, size: 0x8, addend: 0x0, symName: __ZNSt3__16vectorI4EdgeNS_9allocatorIS1_EEE21_ConstructTransactionC2B7v160006ERS4_m, symObjAddr: 0x23A0, symBinAddr: 0x1000047D0, symSize: 0x40 }
  - { offsetInCU: 0x1753F, offset: 0x1753F, size: 0x8, addend: 0x0, symName: __ZNSt3__117__compressed_pairIP4EdgeNS_9allocatorIS1_EEE6secondB7v160006Ev, symObjAddr: 0x2410, symBinAddr: 0x100004840, symSize: 0x20 }
  - { offsetInCU: 0x17565, offset: 0x17565, size: 0x8, addend: 0x0, symName: __ZNSt3__122__compressed_pair_elemINS_9allocatorI4EdgeEELi1ELb1EE5__getB7v160006Ev, symObjAddr: 0x2430, symBinAddr: 0x100004860, symSize: 0x10 }
  - { offsetInCU: 0x1758B, offset: 0x1758B, size: 0x8, addend: 0x0, symName: __ZNSt3__16vectorI4EdgeNS_9allocatorIS1_EEE21_ConstructTransactionD2B7v160006Ev, symObjAddr: 0x2440, symBinAddr: 0x100004870, symSize: 0x20 }
  - { offsetInCU: 0x175B5, offset: 0x175B5, size: 0x8, addend: 0x0, symName: __ZNKSt3__16vectorI4EdgeNS_9allocatorIS1_EEE11__recommendB7v160006Em, symObjAddr: 0x2460, symBinAddr: 0x100004890, symSize: 0xA0 }
  - { offsetInCU: 0x1760A, offset: 0x1760A, size: 0x8, addend: 0x0, symName: __ZNKSt3__16vectorI4EdgeNS_9allocatorIS1_EEE4sizeB7v160006Ev, symObjAddr: 0x2500, symBinAddr: 0x100004930, symSize: 0x30 }
  - { offsetInCU: 0x17630, offset: 0x17630, size: 0x8, addend: 0x0, symName: __ZNSt3__114__split_bufferI4EdgeRNS_9allocatorIS1_EEEC1EmmS4_, symObjAddr: 0x2530, symBinAddr: 0x100004960, symSize: 0x40 }
  - { offsetInCU: 0x17686, offset: 0x17686, size: 0x8, addend: 0x0, symName: __ZNSt3__114__split_bufferI4EdgeRNS_9allocatorIS1_EEED1Ev, symObjAddr: 0x26A0, symBinAddr: 0x100004AD0, symSize: 0x20 }
  - { offsetInCU: 0x176B2, offset: 0x176B2, size: 0x8, addend: 0x0, symName: __ZNKSt3__16vectorI4EdgeNS_9allocatorIS1_EEE8max_sizeEv, symObjAddr: 0x26C0, symBinAddr: 0x100004AF0, symSize: 0x60 }
  - { offsetInCU: 0x176DA, offset: 0x176DA, size: 0x8, addend: 0x0, symName: __ZNKSt3__16vectorI4EdgeNS_9allocatorIS1_EEE20__throw_length_errorB7v160006Ev, symObjAddr: 0x2720, symBinAddr: 0x100004B50, symSize: 0x20 }
  - { offsetInCU: 0x17700, offset: 0x17700, size: 0x8, addend: 0x0, symName: __ZNKSt3__16vectorI4EdgeNS_9allocatorIS1_EEE8capacityB7v160006Ev, symObjAddr: 0x2740, symBinAddr: 0x100004B70, symSize: 0x40 }
  - { offsetInCU: 0x17731, offset: 0x17731, size: 0x8, addend: 0x0, symName: __ZNSt3__116allocator_traitsINS_9allocatorI4EdgeEEE8max_sizeB7v160006IS3_vvEEmRKS3_, symObjAddr: 0x27B0, symBinAddr: 0x100004BE0, symSize: 0x30 }
  - { offsetInCU: 0x1775D, offset: 0x1775D, size: 0x8, addend: 0x0, symName: __ZNKSt3__16vectorI4EdgeNS_9allocatorIS1_EEE7__allocB7v160006Ev, symObjAddr: 0x27E0, symBinAddr: 0x100004C10, symSize: 0x20 }
  - { offsetInCU: 0x17783, offset: 0x17783, size: 0x8, addend: 0x0, symName: __ZNKSt3__117__compressed_pairIP4EdgeNS_9allocatorIS1_EEE6secondB7v160006Ev, symObjAddr: 0x2800, symBinAddr: 0x100004C30, symSize: 0x20 }
  - { offsetInCU: 0x177A9, offset: 0x177A9, size: 0x8, addend: 0x0, symName: __ZNKSt3__122__compressed_pair_elemINS_9allocatorI4EdgeEELi1ELb1EE5__getB7v160006Ev, symObjAddr: 0x2820, symBinAddr: 0x100004C50, symSize: 0x10 }
  - { offsetInCU: 0x177CF, offset: 0x177CF, size: 0x8, addend: 0x0, symName: __ZNKSt3__16vectorI4EdgeNS_9allocatorIS1_EEE9__end_capB7v160006Ev, symObjAddr: 0x2830, symBinAddr: 0x100004C60, symSize: 0x20 }
  - { offsetInCU: 0x177F5, offset: 0x177F5, size: 0x8, addend: 0x0, symName: __ZNKSt3__117__compressed_pairIP4EdgeNS_9allocatorIS1_EEE5firstB7v160006Ev, symObjAddr: 0x2850, symBinAddr: 0x100004C80, symSize: 0x20 }
  - { offsetInCU: 0x1781B, offset: 0x1781B, size: 0x8, addend: 0x0, symName: __ZNKSt3__122__compressed_pair_elemIP4EdgeLi0ELb0EE5__getB7v160006Ev, symObjAddr: 0x2870, symBinAddr: 0x100004CA0, symSize: 0x10 }
  - { offsetInCU: 0x17841, offset: 0x17841, size: 0x8, addend: 0x0, symName: __ZNSt3__114__split_bufferI4EdgeRNS_9allocatorIS1_EEEC2EmmS4_, symObjAddr: 0x28D0, symBinAddr: 0x100004D00, symSize: 0xC0 }
  - { offsetInCU: 0x178B4, offset: 0x178B4, size: 0x8, addend: 0x0, symName: __ZNSt3__117__compressed_pairIP4EdgeRNS_9allocatorIS1_EEEC1B7v160006IDnS5_EEOT_OT0_, symObjAddr: 0x2990, symBinAddr: 0x100004DC0, symSize: 0x30 }
  - { offsetInCU: 0x1790C, offset: 0x1790C, size: 0x8, addend: 0x0, symName: __ZNSt3__114__split_bufferI4EdgeRNS_9allocatorIS1_EEE7__allocB7v160006Ev, symObjAddr: 0x2A00, symBinAddr: 0x100004E30, symSize: 0x20 }
  - { offsetInCU: 0x17932, offset: 0x17932, size: 0x8, addend: 0x0, symName: __ZNSt3__114__split_bufferI4EdgeRNS_9allocatorIS1_EEE9__end_capB7v160006Ev, symObjAddr: 0x2A20, symBinAddr: 0x100004E50, symSize: 0x20 }
  - { offsetInCU: 0x17958, offset: 0x17958, size: 0x8, addend: 0x0, symName: __ZNSt3__117__compressed_pairIP4EdgeRNS_9allocatorIS1_EEEC2B7v160006IDnS5_EEOT_OT0_, symObjAddr: 0x2A40, symBinAddr: 0x100004E70, symSize: 0x40 }
  - { offsetInCU: 0x179B0, offset: 0x179B0, size: 0x8, addend: 0x0, symName: __ZNSt3__122__compressed_pair_elemIRNS_9allocatorI4EdgeEELi1ELb0EEC2B7v160006IS4_vEEOT_, symObjAddr: 0x2A80, symBinAddr: 0x100004EB0, symSize: 0x20 }
  - { offsetInCU: 0x179F2, offset: 0x179F2, size: 0x8, addend: 0x0, symName: __ZNSt3__19allocatorI4EdgeE17allocate_at_leastB7v160006Em, symObjAddr: 0x2AE0, symBinAddr: 0x100004F10, symSize: 0x40 }
  - { offsetInCU: 0x17A26, offset: 0x17A26, size: 0x8, addend: 0x0, symName: __ZNSt3__19allocatorI4EdgeE8allocateB7v160006Em, symObjAddr: 0x2B20, symBinAddr: 0x100004F50, symSize: 0x50 }
  - { offsetInCU: 0x17A5A, offset: 0x17A5A, size: 0x8, addend: 0x0, symName: __ZNSt3__117__compressed_pairIP4EdgeRNS_9allocatorIS1_EEE6secondB7v160006Ev, symObjAddr: 0x2B70, symBinAddr: 0x100004FA0, symSize: 0x20 }
  - { offsetInCU: 0x17A80, offset: 0x17A80, size: 0x8, addend: 0x0, symName: __ZNSt3__122__compressed_pair_elemIRNS_9allocatorI4EdgeEELi1ELb0EE5__getB7v160006Ev, symObjAddr: 0x2B90, symBinAddr: 0x100004FC0, symSize: 0x20 }
  - { offsetInCU: 0x17AA6, offset: 0x17AA6, size: 0x8, addend: 0x0, symName: __ZNSt3__117__compressed_pairIP4EdgeRNS_9allocatorIS1_EEE5firstB7v160006Ev, symObjAddr: 0x2BB0, symBinAddr: 0x100004FE0, symSize: 0x20 }
  - { offsetInCU: 0x17ACC, offset: 0x17ACC, size: 0x8, addend: 0x0, symName: __ZNKSt3__16vectorI4EdgeNS_9allocatorIS1_EEE17__annotate_deleteB7v160006Ev, symObjAddr: 0x2BD0, symBinAddr: 0x100005000, symSize: 0xB0 }
  - { offsetInCU: 0x17AF2, offset: 0x17AF2, size: 0x8, addend: 0x0, symName: __ZNSt3__116reverse_iteratorIP4EdgeEC1B7v160006ES2_, symObjAddr: 0x2CF0, symBinAddr: 0x100005120, symSize: 0x30 }
  - { offsetInCU: 0x17B2A, offset: 0x17B2A, size: 0x8, addend: 0x0, symName: __ZNKSt3__116reverse_iteratorIP4EdgeE4baseB7v160006Ev, symObjAddr: 0x2D20, symBinAddr: 0x100005150, symSize: 0x20 }
  - { offsetInCU: 0x17B50, offset: 0x17B50, size: 0x8, addend: 0x0, symName: __ZNKSt3__16vectorI4EdgeNS_9allocatorIS1_EEE14__annotate_newB7v160006Em, symObjAddr: 0x2D80, symBinAddr: 0x1000051B0, symSize: 0xA0 }
  - { offsetInCU: 0x17B85, offset: 0x17B85, size: 0x8, addend: 0x0, symName: __ZNKSt3__16vectorI4EdgeNS_9allocatorIS1_EEE31__annotate_contiguous_containerB7v160006EPKvS6_S6_S6_, symObjAddr: 0x2E30, symBinAddr: 0x100005260, symSize: 0x20 }
  - { offsetInCU: 0x17BDB, offset: 0x17BDB, size: 0x8, addend: 0x0, symName: __ZNKSt3__16vectorI4EdgeNS_9allocatorIS1_EEE4dataB7v160006Ev, symObjAddr: 0x2E50, symBinAddr: 0x100005280, symSize: 0x20 }
  - { offsetInCU: 0x17C2F, offset: 0x17C2F, size: 0x8, addend: 0x0, symName: __ZNKSt3__111__move_loopINS_17_ClassicAlgPolicyEEclB7v160006INS_16reverse_iteratorIP4EdgeEES7_S7_EENS_4pairIT_T1_EES9_T0_SA_, symObjAddr: 0x3280, symBinAddr: 0x1000056B0, symSize: 0xA0 }
  - { offsetInCU: 0x17C9A, offset: 0x17C9A, size: 0x8, addend: 0x0, symName: __ZNSt3__119__unwrap_range_implINS_16reverse_iteratorIP4EdgeEES4_E8__unwrapB7v160006ES4_S4_, symObjAddr: 0x3460, symBinAddr: 0x100005890, symSize: 0x90 }
  - { offsetInCU: 0x17CD1, offset: 0x17CD1, size: 0x8, addend: 0x0, symName: __ZNSt3__14pairINS_16reverse_iteratorIP4EdgeEES4_EC1B7v160006IS4_S4_LPv0EEEOT_OT0_, symObjAddr: 0x34F0, symBinAddr: 0x100005920, symSize: 0x30 }
  - { offsetInCU: 0x17D2F, offset: 0x17D2F, size: 0x8, addend: 0x0, symName: __ZNSt3__14pairINS_16reverse_iteratorIP4EdgeEES4_EC2B7v160006IS4_S4_LPv0EEEOT_OT0_, symObjAddr: 0x3520, symBinAddr: 0x100005950, symSize: 0x40 }
  - { offsetInCU: 0x17D8D, offset: 0x17D8D, size: 0x8, addend: 0x0, symName: __ZNSt3__18_IterOpsINS_17_ClassicAlgPolicyEE11__iter_moveB7v160006IRNS_16reverse_iteratorIP4EdgeEEEENS_9enable_ifIXsr12is_referenceIDTdeclsr3stdE7declvalIRT_EEEEE5valueEDTclsr3stdE4movedeclsr3stdE7declvalISB_EEEEE4typeEOSA_, symObjAddr: 0x35A0, symBinAddr: 0x1000059D0, symSize: 0x20 }
  - { offsetInCU: 0x17DB9, offset: 0x17DB9, size: 0x8, addend: 0x0, symName: __ZNKSt3__116reverse_iteratorIP4EdgeEdeB7v160006Ev, symObjAddr: 0x35C0, symBinAddr: 0x1000059F0, symSize: 0x30 }
  - { offsetInCU: 0x17DED, offset: 0x17DED, size: 0x8, addend: 0x0, symName: __ZNSt3__116reverse_iteratorIP4EdgeEppB7v160006Ev, symObjAddr: 0x35F0, symBinAddr: 0x100005A20, symSize: 0x20 }
  - { offsetInCU: 0x17E13, offset: 0x17E13, size: 0x8, addend: 0x0, symName: __ZNSt3__18_IterOpsINS_17_ClassicAlgPolicyEE25__validate_iter_referenceB7v160006IRNS_16reverse_iteratorIP4EdgeEEEEvv, symObjAddr: 0x3610, symBinAddr: 0x100005A40, symSize: 0x10 }
  - { offsetInCU: 0x17E31, offset: 0x17E31, size: 0x8, addend: 0x0, symName: __ZNSt3__118__unwrap_iter_implINS_16reverse_iteratorIP4EdgeEELb0EE8__unwrapB7v160006ES4_, symObjAddr: 0x3620, symBinAddr: 0x100005A50, symSize: 0x20 }
  - { offsetInCU: 0x17E54, offset: 0x17E54, size: 0x8, addend: 0x0, symName: __ZNSt3__119__unwrap_range_implINS_16reverse_iteratorIP4EdgeEES4_E8__rewrapB7v160006ES4_S4_, symObjAddr: 0x3640, symBinAddr: 0x100005A70, symSize: 0x60 }
  - { offsetInCU: 0x17E85, offset: 0x17E85, size: 0x8, addend: 0x0, symName: __ZNSt3__118__unwrap_iter_implINS_16reverse_iteratorIP4EdgeEELb0EE8__rewrapB7v160006ES4_S4_, symObjAddr: 0x36A0, symBinAddr: 0x100005AD0, symSize: 0x30 }
  - { offsetInCU: 0x17EB3, offset: 0x17EB3, size: 0x8, addend: 0x0, symName: __ZNSt3__116reverse_iteratorIP4EdgeEC2B7v160006ES2_, symObjAddr: 0x36D0, symBinAddr: 0x100005B00, symSize: 0x30 }
  - { offsetInCU: 0x17EEB, offset: 0x17EEB, size: 0x8, addend: 0x0, symName: __ZNSt3__114__split_bufferI4EdgeRNS_9allocatorIS1_EEED2Ev, symObjAddr: 0x3700, symBinAddr: 0x100005B30, symSize: 0x70 }
  - { offsetInCU: 0x17F17, offset: 0x17F17, size: 0x8, addend: 0x0, symName: __ZNSt3__114__split_bufferI4EdgeRNS_9allocatorIS1_EEE5clearB7v160006Ev, symObjAddr: 0x3770, symBinAddr: 0x100005BA0, symSize: 0x20 }
  - { offsetInCU: 0x17F3D, offset: 0x17F3D, size: 0x8, addend: 0x0, symName: __ZNSt3__116allocator_traitsINS_9allocatorI4EdgeEEE10deallocateB7v160006ERS3_PS2_m, symObjAddr: 0x3790, symBinAddr: 0x100005BC0, symSize: 0x30 }
  - { offsetInCU: 0x17F7F, offset: 0x17F7F, size: 0x8, addend: 0x0, symName: __ZNKSt3__114__split_bufferI4EdgeRNS_9allocatorIS1_EEE8capacityB7v160006Ev, symObjAddr: 0x37C0, symBinAddr: 0x100005BF0, symSize: 0x40 }
  - { offsetInCU: 0x17FA5, offset: 0x17FA5, size: 0x8, addend: 0x0, symName: __ZNSt3__114__split_bufferI4EdgeRNS_9allocatorIS1_EEE17__destruct_at_endB7v160006EPS1_, symObjAddr: 0x3800, symBinAddr: 0x100005C30, symSize: 0x30 }
  - { offsetInCU: 0x17FD9, offset: 0x17FD9, size: 0x8, addend: 0x0, symName: __ZNSt3__114__split_bufferI4EdgeRNS_9allocatorIS1_EEE17__destruct_at_endB7v160006EPS1_NS_17integral_constantIbLb0EEE, symObjAddr: 0x3830, symBinAddr: 0x100005C60, symSize: 0x80 }
  - { offsetInCU: 0x1801A, offset: 0x1801A, size: 0x8, addend: 0x0, symName: __ZNSt3__116allocator_traitsINS_9allocatorI4EdgeEEE7destroyB7v160006IS2_vvEEvRS3_PT_, symObjAddr: 0x38B0, symBinAddr: 0x100005CE0, symSize: 0x20 }
  - { offsetInCU: 0x18055, offset: 0x18055, size: 0x8, addend: 0x0, symName: __ZNSt3__19allocatorI4EdgeE10deallocateB7v160006EPS1_m, symObjAddr: 0x3900, symBinAddr: 0x100005D30, symSize: 0x50 }
  - { offsetInCU: 0x18097, offset: 0x18097, size: 0x8, addend: 0x0, symName: __ZNKSt3__114__split_bufferI4EdgeRNS_9allocatorIS1_EEE9__end_capB7v160006Ev, symObjAddr: 0x3950, symBinAddr: 0x100005D80, symSize: 0x20 }
  - { offsetInCU: 0x180BD, offset: 0x180BD, size: 0x8, addend: 0x0, symName: __ZNKSt3__117__compressed_pairIP4EdgeRNS_9allocatorIS1_EEE5firstB7v160006Ev, symObjAddr: 0x3970, symBinAddr: 0x100005DA0, symSize: 0x20 }
  - { offsetInCU: 0x180E3, offset: 0x180E3, size: 0x8, addend: 0x0, symName: __ZN4EdgeC2Eiii, symObjAddr: 0x3990, symBinAddr: 0x100005DC0, symSize: 0x30 }
  - { offsetInCU: 0x18137, offset: 0x18137, size: 0x8, addend: 0x0, symName: __ZNSt3__16vectorINS0_I4EdgeNS_9allocatorIS1_EEEENS2_IS4_EEED2B7v160006Ev, symObjAddr: 0x39C0, symBinAddr: 0x100005DF0, symSize: 0x40 }
  - { offsetInCU: 0x18161, offset: 0x18161, size: 0x8, addend: 0x0, symName: __ZNSt3__16vectorI4EdgeNS_9allocatorIS1_EEEC2ERKS4_, symObjAddr: 0x3A00, symBinAddr: 0x100005E30, symSize: 0x110 }
  - { offsetInCU: 0x181C1, offset: 0x181C1, size: 0x8, addend: 0x0, symName: __ZNSt3__116allocator_traitsINS_9allocatorI4EdgeEEE37select_on_container_copy_constructionB7v160006IS3_vvEES3_RKS3_, symObjAddr: 0x3B10, symBinAddr: 0x100005F40, symSize: 0x10 }
  - { offsetInCU: 0x181F6, offset: 0x181F6, size: 0x8, addend: 0x0, symName: __ZNSt3__117__compressed_pairIP4EdgeNS_9allocatorIS1_EEEC1B7v160006IDnS4_EEOT_OT0_, symObjAddr: 0x3B20, symBinAddr: 0x100005F50, symSize: 0x30 }
  - { offsetInCU: 0x1824E, offset: 0x1824E, size: 0x8, addend: 0x0, symName: __ZNSt3__16vectorI4EdgeNS_9allocatorIS1_EEE16__destroy_vectorC1ERS4_, symObjAddr: 0x3B90, symBinAddr: 0x100005FC0, symSize: 0x30 }
  - { offsetInCU: 0x18287, offset: 0x18287, size: 0x8, addend: 0x0, symName: __ZNSt3__16vectorI4EdgeNS_9allocatorIS1_EEE11__vallocateB7v160006Em, symObjAddr: 0x3BC0, symBinAddr: 0x100005FF0, symSize: 0xA0 }
  - { offsetInCU: 0x182CB, offset: 0x182CB, size: 0x8, addend: 0x0, symName: __ZNSt3__16vectorI4EdgeNS_9allocatorIS1_EEE18__construct_at_endIPS1_Li0EEEvT_S7_m, symObjAddr: 0x3C60, symBinAddr: 0x100006090, symSize: 0x90 }
  - { offsetInCU: 0x1833E, offset: 0x1833E, size: 0x8, addend: 0x0, symName: __ZNSt3__128__exception_guard_exceptionsINS_6vectorI4EdgeNS_9allocatorIS2_EEE16__destroy_vectorEE10__completeB7v160006Ev, symObjAddr: 0x3CF0, symBinAddr: 0x100006120, symSize: 0x20 }
  - { offsetInCU: 0x18364, offset: 0x18364, size: 0x8, addend: 0x0, symName: __ZNSt3__128__exception_guard_exceptionsINS_6vectorI4EdgeNS_9allocatorIS2_EEE16__destroy_vectorEED1B7v160006Ev, symObjAddr: 0x3D10, symBinAddr: 0x100006140, symSize: 0x20 }
  - { offsetInCU: 0x1838E, offset: 0x1838E, size: 0x8, addend: 0x0, symName: __ZNSt3__117__compressed_pairIP4EdgeNS_9allocatorIS1_EEEC2B7v160006IDnS4_EEOT_OT0_, symObjAddr: 0x3D30, symBinAddr: 0x100006160, symSize: 0x40 }
  - { offsetInCU: 0x183E6, offset: 0x183E6, size: 0x8, addend: 0x0, symName: __ZNSt3__122__compressed_pair_elemINS_9allocatorI4EdgeEELi1ELb1EEC2B7v160006IS3_vEEOT_, symObjAddr: 0x3D70, symBinAddr: 0x1000061A0, symSize: 0x10 }
  - { offsetInCU: 0x18428, offset: 0x18428, size: 0x8, addend: 0x0, symName: __ZNSt3__128__exception_guard_exceptionsINS_6vectorI4EdgeNS_9allocatorIS2_EEE16__destroy_vectorEEC1B7v160006ES6_, symObjAddr: 0x3D80, symBinAddr: 0x1000061B0, symSize: 0x30 }
  - { offsetInCU: 0x18460, offset: 0x18460, size: 0x8, addend: 0x0, symName: __ZNSt3__128__exception_guard_exceptionsINS_6vectorI4EdgeNS_9allocatorIS2_EEE16__destroy_vectorEEC2B7v160006ES6_, symObjAddr: 0x3DB0, symBinAddr: 0x1000061E0, symSize: 0x20 }
  - { offsetInCU: 0x18498, offset: 0x18498, size: 0x8, addend: 0x0, symName: __ZNSt3__16vectorI4EdgeNS_9allocatorIS1_EEE16__destroy_vectorC2ERS4_, symObjAddr: 0x3DD0, symBinAddr: 0x100006200, symSize: 0x20 }
  - { offsetInCU: 0x184D1, offset: 0x184D1, size: 0x8, addend: 0x0, symName: __ZNSt3__129_AllocatorDestroyRangeReverseINS_9allocatorI4EdgeEEPS2_EC1B7v160006ERS3_RS4_S7_, symObjAddr: 0x3F50, symBinAddr: 0x100006380, symSize: 0x40 }
  - { offsetInCU: 0x18528, offset: 0x18528, size: 0x8, addend: 0x0, symName: __ZNSt3__116allocator_traitsINS_9allocatorI4EdgeEEE9constructB7v160006IS2_JRS2_EvvEEvRS3_PT_DpOT0_, symObjAddr: 0x3F90, symBinAddr: 0x1000063C0, symSize: 0x30 }
  - { offsetInCU: 0x1857D, offset: 0x1857D, size: 0x8, addend: 0x0, symName: __ZNSt3__128__exception_guard_exceptionsINS_29_AllocatorDestroyRangeReverseINS_9allocatorI4EdgeEEPS3_EEE10__completeB7v160006Ev, symObjAddr: 0x3FC0, symBinAddr: 0x1000063F0, symSize: 0x20 }
  - { offsetInCU: 0x185A3, offset: 0x185A3, size: 0x8, addend: 0x0, symName: __ZNSt3__128__exception_guard_exceptionsINS_29_AllocatorDestroyRangeReverseINS_9allocatorI4EdgeEEPS3_EEED1B7v160006Ev, symObjAddr: 0x3FE0, symBinAddr: 0x100006410, symSize: 0x20 }
  - { offsetInCU: 0x185CD, offset: 0x185CD, size: 0x8, addend: 0x0, symName: __ZNSt3__128__exception_guard_exceptionsINS_29_AllocatorDestroyRangeReverseINS_9allocatorI4EdgeEEPS3_EEEC1B7v160006ES6_, symObjAddr: 0x4000, symBinAddr: 0x100006430, symSize: 0x40 }
  - { offsetInCU: 0x18605, offset: 0x18605, size: 0x8, addend: 0x0, symName: __ZNSt3__128__exception_guard_exceptionsINS_29_AllocatorDestroyRangeReverseINS_9allocatorI4EdgeEEPS3_EEEC2B7v160006ES6_, symObjAddr: 0x4040, symBinAddr: 0x100006470, symSize: 0x30 }
  - { offsetInCU: 0x1863D, offset: 0x1863D, size: 0x8, addend: 0x0, symName: __ZNSt3__129_AllocatorDestroyRangeReverseINS_9allocatorI4EdgeEEPS2_EC2B7v160006ERS3_RS4_S7_, symObjAddr: 0x4070, symBinAddr: 0x1000064A0, symSize: 0x40 }
  - { offsetInCU: 0x18694, offset: 0x18694, size: 0x8, addend: 0x0, symName: __ZNSt3__128__exception_guard_exceptionsINS_29_AllocatorDestroyRangeReverseINS_9allocatorI4EdgeEEPS3_EEED2B7v160006Ev, symObjAddr: 0x40E0, symBinAddr: 0x100006510, symSize: 0x40 }
  - { offsetInCU: 0x186BE, offset: 0x186BE, size: 0x8, addend: 0x0, symName: __ZNKSt3__129_AllocatorDestroyRangeReverseINS_9allocatorI4EdgeEEPS2_EclB7v160006Ev, symObjAddr: 0x4120, symBinAddr: 0x100006550, symSize: 0x60 }
  - { offsetInCU: 0x186EA, offset: 0x186EA, size: 0x8, addend: 0x0, symName: __ZNSt3__119__to_address_helperINS_16reverse_iteratorIP4EdgeEEvE6__callB7v160006ERKS4_, symObjAddr: 0x4210, symBinAddr: 0x100006640, symSize: 0x40 }
  - { offsetInCU: 0x1870D, offset: 0x1870D, size: 0x8, addend: 0x0, symName: __ZNKSt3__116reverse_iteratorIP4EdgeEptB7v160006Ev, symObjAddr: 0x4250, symBinAddr: 0x100006680, symSize: 0x30 }
  - { offsetInCU: 0x18733, offset: 0x18733, size: 0x8, addend: 0x0, symName: __ZNSt3__128__exception_guard_exceptionsINS_6vectorI4EdgeNS_9allocatorIS2_EEE16__destroy_vectorEED2B7v160006Ev, symObjAddr: 0x4350, symBinAddr: 0x100006780, symSize: 0x40 }
  - { offsetInCU: 0x1875D, offset: 0x1875D, size: 0x8, addend: 0x0, symName: __ZNSt3__16vectorI4EdgeNS_9allocatorIS1_EEE16__destroy_vectorclB7v160006Ev, symObjAddr: 0x4390, symBinAddr: 0x1000067C0, symSize: 0x90 }
  - { offsetInCU: 0x18783, offset: 0x18783, size: 0x8, addend: 0x0, symName: __ZNSt3__16vectorI4EdgeNS_9allocatorIS1_EEE7__clearB7v160006Ev, symObjAddr: 0x4430, symBinAddr: 0x100006860, symSize: 0x20 }
  - { offsetInCU: 0x187A9, offset: 0x187A9, size: 0x8, addend: 0x0, symName: __ZNSt3__16vectorI4EdgeNS_9allocatorIS1_EEE22__base_destruct_at_endB7v160006EPS1_, symObjAddr: 0x4450, symBinAddr: 0x100006880, symSize: 0x80 }
  - { offsetInCU: 0x187ED, offset: 0x187ED, size: 0x8, addend: 0x0, symName: __ZNSt3__16vectorI4EdgeNS_9allocatorIS1_EEED2B7v160006Ev, symObjAddr: 0x44D0, symBinAddr: 0x100006900, symSize: 0x40 }
  - { offsetInCU: 0x18817, offset: 0x18817, size: 0x8, addend: 0x0, symName: __ZNKSt3__123__optional_storage_baseI4EdgeLb0EE9has_valueB7v160006Ev, symObjAddr: 0x4510, symBinAddr: 0x100006940, symSize: 0x20 }
  - { offsetInCU: 0x1883D, offset: 0x1883D, size: 0x8, addend: 0x0, symName: __ZNRSt3__123__optional_storage_baseI4EdgeLb0EE5__getB7v160006Ev, symObjAddr: 0x4570, symBinAddr: 0x1000069A0, symSize: 0x10 }
  - { offsetInCU: 0x18874, offset: 0x18874, size: 0x8, addend: 0x0, symName: __ZNSt19bad_optional_accessC1Ev, symObjAddr: 0x4580, symBinAddr: 0x1000069B0, symSize: 0x20 }
  - { offsetInCU: 0x188A0, offset: 0x188A0, size: 0x8, addend: 0x0, symName: __ZNSt19bad_optional_accessC2Ev, symObjAddr: 0x45A0, symBinAddr: 0x1000069D0, symSize: 0x40 }
  - { offsetInCU: 0x188CC, offset: 0x188CC, size: 0x8, addend: 0x0, symName: __ZNSt9exceptionC2B7v160006Ev, symObjAddr: 0x45E0, symBinAddr: 0x100006A10, symSize: 0x20 }
  - { offsetInCU: 0x188F6, offset: 0x188F6, size: 0x8, addend: 0x0, symName: '__ZNSt3__114priority_queueI4EdgeNS_6vectorIS1_NS_9allocatorIS1_EEEEZ24GetMaxSpanningTreeWeightRKNS2_IS5_NS3_IS5_EEEEE3$_0ED2Ev', symObjAddr: 0x4600, symBinAddr: 0x100006A30, symSize: 0x20 }
  - { offsetInCU: 0x18923, offset: 0x18923, size: 0x8, addend: 0x0, symName: __ZNKSt3__16vectorI4EdgeNS_9allocatorIS1_EEE11__make_iterB7v160006EPKS1_, symObjAddr: 0x4620, symBinAddr: 0x100006A50, symSize: 0x30 }
  - { offsetInCU: 0x18958, offset: 0x18958, size: 0x8, addend: 0x0, symName: __ZNSt3__111__wrap_iterIPK4EdgeEC1B7v160006EPKvS3_, symObjAddr: 0x4650, symBinAddr: 0x100006A80, symSize: 0x30 }
  - { offsetInCU: 0x1899E, offset: 0x1899E, size: 0x8, addend: 0x0, symName: __ZNSt3__111__wrap_iterIPK4EdgeEC2B7v160006EPKvS3_, symObjAddr: 0x4680, symBinAddr: 0x100006AB0, symSize: 0x20 }
  - { offsetInCU: 0x189E4, offset: 0x189E4, size: 0x8, addend: 0x0, symName: __ZNKSt3__111__wrap_iterIPK4EdgeE4baseB7v160006Ev, symObjAddr: 0x46E0, symBinAddr: 0x100006B10, symSize: 0x20 }
  - { offsetInCU: 0x18A0A, offset: 0x18A0A, size: 0x8, addend: 0x0, symName: __ZNSt3__15stackIiNS_5dequeIiNS_9allocatorIiEEEEED2Ev, symObjAddr: 0x4700, symBinAddr: 0x100006B30, symSize: 0x20 }
  - { offsetInCU: 0x18A36, offset: 0x18A36, size: 0x8, addend: 0x0, symName: __ZNSt3__15dequeIiNS_9allocatorIiEEED1B7v160006Ev, symObjAddr: 0x4720, symBinAddr: 0x100006B50, symSize: 0x20 }
  - { offsetInCU: 0x18A60, offset: 0x18A60, size: 0x8, addend: 0x0, symName: __ZNSt3__15dequeIiNS_9allocatorIiEEED2B7v160006Ev, symObjAddr: 0x4740, symBinAddr: 0x100006B70, symSize: 0x80 }
  - { offsetInCU: 0x18AB6, offset: 0x18AB6, size: 0x8, addend: 0x0, symName: __ZNSt3__15dequeIiNS_9allocatorIiEEE5clearEv, symObjAddr: 0x47C0, symBinAddr: 0x100006BF0, symSize: 0x180 }
  - { offsetInCU: 0x18B11, offset: 0x18B11, size: 0x8, addend: 0x0, symName: __ZNSt3__114__split_bufferIPiNS_9allocatorIS1_EEE5beginB7v160006Ev, symObjAddr: 0x4940, symBinAddr: 0x100006D70, symSize: 0x20 }
  - { offsetInCU: 0x18B37, offset: 0x18B37, size: 0x8, addend: 0x0, symName: __ZNSt3__114__split_bufferIPiNS_9allocatorIS1_EEE3endB7v160006Ev, symObjAddr: 0x4960, symBinAddr: 0x100006D90, symSize: 0x20 }
  - { offsetInCU: 0x18B5D, offset: 0x18B5D, size: 0x8, addend: 0x0, symName: __ZNSt3__116allocator_traitsINS_9allocatorIiEEE10deallocateB7v160006ERS2_Pim, symObjAddr: 0x4980, symBinAddr: 0x100006DB0, symSize: 0x30 }
  - { offsetInCU: 0x18B9F, offset: 0x18B9F, size: 0x8, addend: 0x0, symName: __ZNSt3__15dequeIiNS_9allocatorIiEEE7__allocB7v160006Ev, symObjAddr: 0x49B0, symBinAddr: 0x100006DE0, symSize: 0x20 }
  - { offsetInCU: 0x18BC5, offset: 0x18BC5, size: 0x8, addend: 0x0, symName: __ZNSt3__114__split_bufferIPiNS_9allocatorIS1_EEED1Ev, symObjAddr: 0x49D0, symBinAddr: 0x100006E00, symSize: 0x20 }
  - { offsetInCU: 0x18BF1, offset: 0x18BF1, size: 0x8, addend: 0x0, symName: __ZNSt3__15dequeIiNS_9allocatorIiEEE5beginB7v160006Ev, symObjAddr: 0x49F0, symBinAddr: 0x100006E20, symSize: 0xB0 }
  - { offsetInCU: 0x18C26, offset: 0x18C26, size: 0x8, addend: 0x0, symName: __ZNSt3__15dequeIiNS_9allocatorIiEEE3endB7v160006Ev, symObjAddr: 0x4AA0, symBinAddr: 0x100006ED0, symSize: 0xB0 }
  - { offsetInCU: 0x18C6A, offset: 0x18C6A, size: 0x8, addend: 0x0, symName: __ZNSt3__116allocator_traitsINS_9allocatorIiEEE7destroyB7v160006IivvEEvRS2_PT_, symObjAddr: 0x4B80, symBinAddr: 0x100006FB0, symSize: 0x20 }
  - { offsetInCU: 0x18CA5, offset: 0x18CA5, size: 0x8, addend: 0x0, symName: __ZNKSt3__116__deque_iteratorIiPiRiPS1_lLl1024EEdeB7v160006Ev, symObjAddr: 0x4BA0, symBinAddr: 0x100006FD0, symSize: 0x20 }
  - { offsetInCU: 0x18CCB, offset: 0x18CCB, size: 0x8, addend: 0x0, symName: __ZNSt3__116__deque_iteratorIiPiRiPS1_lLl1024EEppB7v160006Ev, symObjAddr: 0x4BC0, symBinAddr: 0x100006FF0, symSize: 0x60 }
  - { offsetInCU: 0x18CF1, offset: 0x18CF1, size: 0x8, addend: 0x0, symName: __ZNSt3__15dequeIiNS_9allocatorIiEEE6__sizeB7v160006Ev, symObjAddr: 0x4C20, symBinAddr: 0x100007050, symSize: 0x20 }
  - { offsetInCU: 0x18D17, offset: 0x18D17, size: 0x8, addend: 0x0, symName: __ZNKSt3__114__split_bufferIPiNS_9allocatorIS1_EEE4sizeB7v160006Ev, symObjAddr: 0x4C40, symBinAddr: 0x100007070, symSize: 0x20 }
  - { offsetInCU: 0x18D3D, offset: 0x18D3D, size: 0x8, addend: 0x0, symName: __ZNSt3__114__split_bufferIPiNS_9allocatorIS1_EEE5frontB7v160006Ev, symObjAddr: 0x4C60, symBinAddr: 0x100007090, symSize: 0x20 }
  - { offsetInCU: 0x18D63, offset: 0x18D63, size: 0x8, addend: 0x0, symName: __ZNSt3__114__split_bufferIPiNS_9allocatorIS1_EEE9pop_frontB7v160006Ev, symObjAddr: 0x4C80, symBinAddr: 0x1000070B0, symSize: 0x30 }
  - { offsetInCU: 0x18D89, offset: 0x18D89, size: 0x8, addend: 0x0, symName: __ZNKSt3__114__split_bufferIPiNS_9allocatorIS1_EEE5emptyB7v160006Ev, symObjAddr: 0x4CB0, symBinAddr: 0x1000070E0, symSize: 0x20 }
  - { offsetInCU: 0x18DAF, offset: 0x18DAF, size: 0x8, addend: 0x0, symName: __ZNSt3__116__deque_iteratorIiPiRiPS1_lLl1024EEC1B7v160006ES3_S1_, symObjAddr: 0x4CD0, symBinAddr: 0x100007100, symSize: 0x30 }
  - { offsetInCU: 0x18DF7, offset: 0x18DF7, size: 0x8, addend: 0x0, symName: __ZNSt3__116__deque_iteratorIiPiRiPS1_lLl1024EEC2B7v160006ES3_S1_, symObjAddr: 0x4D00, symBinAddr: 0x100007130, symSize: 0x30 }
  - { offsetInCU: 0x18E3F, offset: 0x18E3F, size: 0x8, addend: 0x0, symName: __ZNKSt3__15dequeIiNS_9allocatorIiEEE4sizeB7v160006Ev, symObjAddr: 0x4D30, symBinAddr: 0x100007160, symSize: 0x20 }
  - { offsetInCU: 0x18E65, offset: 0x18E65, size: 0x8, addend: 0x0, symName: __ZNKSt3__15dequeIiNS_9allocatorIiEEE6__sizeB7v160006Ev, symObjAddr: 0x4D50, symBinAddr: 0x100007180, symSize: 0x20 }
  - { offsetInCU: 0x18E8B, offset: 0x18E8B, size: 0x8, addend: 0x0, symName: __ZNKSt3__117__compressed_pairImNS_9allocatorIiEEE5firstB7v160006Ev, symObjAddr: 0x4D70, symBinAddr: 0x1000071A0, symSize: 0x20 }
  - { offsetInCU: 0x18EB1, offset: 0x18EB1, size: 0x8, addend: 0x0, symName: __ZNKSt3__122__compressed_pair_elemImLi0ELb0EE5__getB7v160006Ev, symObjAddr: 0x4D90, symBinAddr: 0x1000071C0, symSize: 0x10 }
  - { offsetInCU: 0x18ED7, offset: 0x18ED7, size: 0x8, addend: 0x0, symName: __ZNSt3__117__compressed_pairImNS_9allocatorIiEEE5firstB7v160006Ev, symObjAddr: 0x4E00, symBinAddr: 0x100007230, symSize: 0x20 }
  - { offsetInCU: 0x18EFD, offset: 0x18EFD, size: 0x8, addend: 0x0, symName: __ZNSt3__122__compressed_pair_elemImLi0ELb0EE5__getB7v160006Ev, symObjAddr: 0x4E20, symBinAddr: 0x100007250, symSize: 0x10 }
  - { offsetInCU: 0x18F23, offset: 0x18F23, size: 0x8, addend: 0x0, symName: __ZNSt3__114__split_bufferIPiNS_9allocatorIS1_EEE19__destruct_at_beginB7v160006EPS1_, symObjAddr: 0x4E30, symBinAddr: 0x100007260, symSize: 0x30 }
  - { offsetInCU: 0x18F57, offset: 0x18F57, size: 0x8, addend: 0x0, symName: __ZNSt3__114__split_bufferIPiNS_9allocatorIS1_EEE19__destruct_at_beginEPS1_NS_17integral_constantIbLb1EEE, symObjAddr: 0x4E60, symBinAddr: 0x100007290, symSize: 0x20 }
  - { offsetInCU: 0x18F98, offset: 0x18F98, size: 0x8, addend: 0x0, symName: __ZNSt3__19allocatorIiE10deallocateB7v160006EPim, symObjAddr: 0x4E80, symBinAddr: 0x1000072B0, symSize: 0x40 }
  - { offsetInCU: 0x18FDA, offset: 0x18FDA, size: 0x8, addend: 0x0, symName: __ZNSt3__117__compressed_pairImNS_9allocatorIiEEE6secondB7v160006Ev, symObjAddr: 0x4EC0, symBinAddr: 0x1000072F0, symSize: 0x20 }
  - { offsetInCU: 0x19000, offset: 0x19000, size: 0x8, addend: 0x0, symName: __ZNSt3__122__compressed_pair_elemINS_9allocatorIiEELi1ELb1EE5__getB7v160006Ev, symObjAddr: 0x4EE0, symBinAddr: 0x100007310, symSize: 0x10 }
  - { offsetInCU: 0x19026, offset: 0x19026, size: 0x8, addend: 0x0, symName: __ZNSt3__114__split_bufferIPiNS_9allocatorIS1_EEED2Ev, symObjAddr: 0x4EF0, symBinAddr: 0x100007320, symSize: 0x70 }
  - { offsetInCU: 0x19052, offset: 0x19052, size: 0x8, addend: 0x0, symName: __ZNSt3__114__split_bufferIPiNS_9allocatorIS1_EEE5clearB7v160006Ev, symObjAddr: 0x4F60, symBinAddr: 0x100007390, symSize: 0x20 }
  - { offsetInCU: 0x19078, offset: 0x19078, size: 0x8, addend: 0x0, symName: __ZNSt3__116allocator_traitsINS_9allocatorIPiEEE10deallocateB7v160006ERS3_PS2_m, symObjAddr: 0x4F80, symBinAddr: 0x1000073B0, symSize: 0x30 }
  - { offsetInCU: 0x190BA, offset: 0x190BA, size: 0x8, addend: 0x0, symName: __ZNSt3__114__split_bufferIPiNS_9allocatorIS1_EEE7__allocB7v160006Ev, symObjAddr: 0x4FB0, symBinAddr: 0x1000073E0, symSize: 0x20 }
  - { offsetInCU: 0x190E0, offset: 0x190E0, size: 0x8, addend: 0x0, symName: __ZNKSt3__114__split_bufferIPiNS_9allocatorIS1_EEE8capacityB7v160006Ev, symObjAddr: 0x4FD0, symBinAddr: 0x100007400, symSize: 0x30 }
  - { offsetInCU: 0x19106, offset: 0x19106, size: 0x8, addend: 0x0, symName: __ZNSt3__114__split_bufferIPiNS_9allocatorIS1_EEE17__destruct_at_endB7v160006EPS1_, symObjAddr: 0x5000, symBinAddr: 0x100007430, symSize: 0x30 }
  - { offsetInCU: 0x1913A, offset: 0x1913A, size: 0x8, addend: 0x0, symName: __ZNSt3__114__split_bufferIPiNS_9allocatorIS1_EEE17__destruct_at_endB7v160006EPS1_NS_17integral_constantIbLb0EEE, symObjAddr: 0x5030, symBinAddr: 0x100007460, symSize: 0x80 }
  - { offsetInCU: 0x1917B, offset: 0x1917B, size: 0x8, addend: 0x0, symName: __ZNSt3__116allocator_traitsINS_9allocatorIPiEEE7destroyB7v160006IS2_vvEEvRS3_PT_, symObjAddr: 0x50B0, symBinAddr: 0x1000074E0, symSize: 0x20 }
  - { offsetInCU: 0x191B6, offset: 0x191B6, size: 0x8, addend: 0x0, symName: __ZNSt3__19allocatorIPiE10deallocateB7v160006EPS1_m, symObjAddr: 0x5110, symBinAddr: 0x100007540, symSize: 0x40 }
  - { offsetInCU: 0x191F8, offset: 0x191F8, size: 0x8, addend: 0x0, symName: __ZNSt3__117__compressed_pairIPPiNS_9allocatorIS1_EEE6secondB7v160006Ev, symObjAddr: 0x5150, symBinAddr: 0x100007580, symSize: 0x20 }
  - { offsetInCU: 0x1921E, offset: 0x1921E, size: 0x8, addend: 0x0, symName: __ZNSt3__122__compressed_pair_elemINS_9allocatorIPiEELi1ELb1EE5__getB7v160006Ev, symObjAddr: 0x5170, symBinAddr: 0x1000075A0, symSize: 0x10 }
  - { offsetInCU: 0x19244, offset: 0x19244, size: 0x8, addend: 0x0, symName: __ZNKSt3__114__split_bufferIPiNS_9allocatorIS1_EEE9__end_capB7v160006Ev, symObjAddr: 0x5180, symBinAddr: 0x1000075B0, symSize: 0x20 }
  - { offsetInCU: 0x1926A, offset: 0x1926A, size: 0x8, addend: 0x0, symName: __ZNKSt3__117__compressed_pairIPPiNS_9allocatorIS1_EEE5firstB7v160006Ev, symObjAddr: 0x51A0, symBinAddr: 0x1000075D0, symSize: 0x20 }
  - { offsetInCU: 0x19290, offset: 0x19290, size: 0x8, addend: 0x0, symName: __ZNKSt3__122__compressed_pair_elemIPPiLi0ELb0EE5__getB7v160006Ev, symObjAddr: 0x51C0, symBinAddr: 0x1000075F0, symSize: 0x10 }
  - { offsetInCU: 0x192B6, offset: 0x192B6, size: 0x8, addend: 0x0, symName: __ZNSt3__16vectorIiNS_9allocatorIiEEEC2EmRKi, symObjAddr: 0x51D0, symBinAddr: 0x100007600, symSize: 0xE0 }
  - { offsetInCU: 0x19315, offset: 0x19315, size: 0x8, addend: 0x0, symName: __ZNSt3__117__compressed_pairIPiNS_9allocatorIiEEEC1B7v160006IDnNS_18__default_init_tagEEEOT_OT0_, symObjAddr: 0x52B0, symBinAddr: 0x1000076E0, symSize: 0x30 }
  - { offsetInCU: 0x1936D, offset: 0x1936D, size: 0x8, addend: 0x0, symName: __ZNSt3__16vectorIiNS_9allocatorIiEEE16__destroy_vectorC1ERS3_, symObjAddr: 0x5320, symBinAddr: 0x100007750, symSize: 0x30 }
  - { offsetInCU: 0x193A6, offset: 0x193A6, size: 0x8, addend: 0x0, symName: __ZNSt3__16vectorIiNS_9allocatorIiEEE11__vallocateB7v160006Em, symObjAddr: 0x5360, symBinAddr: 0x100007790, symSize: 0xA0 }
  - { offsetInCU: 0x193EA, offset: 0x193EA, size: 0x8, addend: 0x0, symName: __ZNSt3__16vectorIiNS_9allocatorIiEEE18__construct_at_endEmRKi, symObjAddr: 0x5400, symBinAddr: 0x100007830, symSize: 0xC0 }
  - { offsetInCU: 0x1946B, offset: 0x1946B, size: 0x8, addend: 0x0, symName: __ZNSt3__128__exception_guard_exceptionsINS_6vectorIiNS_9allocatorIiEEE16__destroy_vectorEE10__completeB7v160006Ev, symObjAddr: 0x54C0, symBinAddr: 0x1000078F0, symSize: 0x20 }
  - { offsetInCU: 0x19491, offset: 0x19491, size: 0x8, addend: 0x0, symName: __ZNSt3__128__exception_guard_exceptionsINS_6vectorIiNS_9allocatorIiEEE16__destroy_vectorEED1B7v160006Ev, symObjAddr: 0x54E0, symBinAddr: 0x100007910, symSize: 0x20 }
  - { offsetInCU: 0x194BB, offset: 0x194BB, size: 0x8, addend: 0x0, symName: __ZNSt3__117__compressed_pairIPiNS_9allocatorIiEEEC2B7v160006IDnNS_18__default_init_tagEEEOT_OT0_, symObjAddr: 0x5500, symBinAddr: 0x100007930, symSize: 0x40 }
  - { offsetInCU: 0x19513, offset: 0x19513, size: 0x8, addend: 0x0, symName: __ZNSt3__122__compressed_pair_elemIPiLi0ELb0EEC2B7v160006IDnvEEOT_, symObjAddr: 0x5540, symBinAddr: 0x100007970, symSize: 0x20 }
  - { offsetInCU: 0x19555, offset: 0x19555, size: 0x8, addend: 0x0, symName: __ZNSt3__122__compressed_pair_elemINS_9allocatorIiEELi1ELb1EEC2B7v160006ENS_18__default_init_tagE, symObjAddr: 0x5560, symBinAddr: 0x100007990, symSize: 0x20 }
  - { offsetInCU: 0x1958A, offset: 0x1958A, size: 0x8, addend: 0x0, symName: __ZNSt3__19allocatorIiEC2B7v160006Ev, symObjAddr: 0x5580, symBinAddr: 0x1000079B0, symSize: 0x20 }
  - { offsetInCU: 0x195B4, offset: 0x195B4, size: 0x8, addend: 0x0, symName: __ZNSt3__116__non_trivial_ifILb1ENS_9allocatorIiEEEC2B7v160006Ev, symObjAddr: 0x55A0, symBinAddr: 0x1000079D0, symSize: 0x10 }
  - { offsetInCU: 0x195DE, offset: 0x195DE, size: 0x8, addend: 0x0, symName: __ZNSt3__128__exception_guard_exceptionsINS_6vectorIiNS_9allocatorIiEEE16__destroy_vectorEEC1B7v160006ES5_, symObjAddr: 0x55B0, symBinAddr: 0x1000079E0, symSize: 0x30 }
  - { offsetInCU: 0x19616, offset: 0x19616, size: 0x8, addend: 0x0, symName: __ZNSt3__128__exception_guard_exceptionsINS_6vectorIiNS_9allocatorIiEEE16__destroy_vectorEEC2B7v160006ES5_, symObjAddr: 0x55E0, symBinAddr: 0x100007A10, symSize: 0x20 }
  - { offsetInCU: 0x1964E, offset: 0x1964E, size: 0x8, addend: 0x0, symName: __ZNSt3__16vectorIiNS_9allocatorIiEEE16__destroy_vectorC2ERS3_, symObjAddr: 0x5600, symBinAddr: 0x100007A30, symSize: 0x20 }
  - { offsetInCU: 0x19687, offset: 0x19687, size: 0x8, addend: 0x0, symName: __ZNKSt3__16vectorIiNS_9allocatorIiEEE8max_sizeEv, symObjAddr: 0x5620, symBinAddr: 0x100007A50, symSize: 0x60 }
  - { offsetInCU: 0x196AF, offset: 0x196AF, size: 0x8, addend: 0x0, symName: __ZNKSt3__16vectorIiNS_9allocatorIiEEE20__throw_length_errorB7v160006Ev, symObjAddr: 0x5680, symBinAddr: 0x100007AB0, symSize: 0x20 }
  - { offsetInCU: 0x196D5, offset: 0x196D5, size: 0x8, addend: 0x0, symName: __ZNSt3__16vectorIiNS_9allocatorIiEEE7__allocB7v160006Ev, symObjAddr: 0x56E0, symBinAddr: 0x100007B10, symSize: 0x20 }
  - { offsetInCU: 0x196FB, offset: 0x196FB, size: 0x8, addend: 0x0, symName: __ZNSt3__16vectorIiNS_9allocatorIiEEE9__end_capB7v160006Ev, symObjAddr: 0x5700, symBinAddr: 0x100007B30, symSize: 0x20 }
  - { offsetInCU: 0x19721, offset: 0x19721, size: 0x8, addend: 0x0, symName: __ZNKSt3__16vectorIiNS_9allocatorIiEEE14__annotate_newB7v160006Em, symObjAddr: 0x5720, symBinAddr: 0x100007B50, symSize: 0xB0 }
  - { offsetInCU: 0x19761, offset: 0x19761, size: 0x8, addend: 0x0, symName: __ZNSt3__116allocator_traitsINS_9allocatorIiEEE8max_sizeB7v160006IS2_vvEEmRKS2_, symObjAddr: 0x57D0, symBinAddr: 0x100007C00, symSize: 0x20 }
  - { offsetInCU: 0x1978D, offset: 0x1978D, size: 0x8, addend: 0x0, symName: __ZNKSt3__16vectorIiNS_9allocatorIiEEE7__allocB7v160006Ev, symObjAddr: 0x57F0, symBinAddr: 0x100007C20, symSize: 0x20 }
  - { offsetInCU: 0x197B3, offset: 0x197B3, size: 0x8, addend: 0x0, symName: __ZNKSt3__117__compressed_pairIPiNS_9allocatorIiEEE6secondB7v160006Ev, symObjAddr: 0x5810, symBinAddr: 0x100007C40, symSize: 0x20 }
  - { offsetInCU: 0x197D9, offset: 0x197D9, size: 0x8, addend: 0x0, symName: __ZNKSt3__122__compressed_pair_elemINS_9allocatorIiEELi1ELb1EE5__getB7v160006Ev, symObjAddr: 0x5830, symBinAddr: 0x100007C60, symSize: 0x10 }
  - { offsetInCU: 0x197FF, offset: 0x197FF, size: 0x8, addend: 0x0, symName: __ZNSt3__19allocatorIiE17allocate_at_leastB7v160006Em, symObjAddr: 0x5880, symBinAddr: 0x100007CB0, symSize: 0x40 }
  - { offsetInCU: 0x19833, offset: 0x19833, size: 0x8, addend: 0x0, symName: __ZNSt3__19allocatorIiE8allocateB7v160006Em, symObjAddr: 0x58C0, symBinAddr: 0x100007CF0, symSize: 0x50 }
  - { offsetInCU: 0x19867, offset: 0x19867, size: 0x8, addend: 0x0, symName: __ZNSt3__117__compressed_pairIPiNS_9allocatorIiEEE6secondB7v160006Ev, symObjAddr: 0x5910, symBinAddr: 0x100007D40, symSize: 0x20 }
  - { offsetInCU: 0x1988D, offset: 0x1988D, size: 0x8, addend: 0x0, symName: __ZNSt3__117__compressed_pairIPiNS_9allocatorIiEEE5firstB7v160006Ev, symObjAddr: 0x5930, symBinAddr: 0x100007D60, symSize: 0x20 }
  - { offsetInCU: 0x198B3, offset: 0x198B3, size: 0x8, addend: 0x0, symName: __ZNSt3__122__compressed_pair_elemIPiLi0ELb0EE5__getB7v160006Ev, symObjAddr: 0x5950, symBinAddr: 0x100007D80, symSize: 0x10 }
  - { offsetInCU: 0x198D9, offset: 0x198D9, size: 0x8, addend: 0x0, symName: __ZNKSt3__16vectorIiNS_9allocatorIiEEE31__annotate_contiguous_containerB7v160006EPKvS5_S5_S5_, symObjAddr: 0x5960, symBinAddr: 0x100007D90, symSize: 0x20 }
  - { offsetInCU: 0x1992F, offset: 0x1992F, size: 0x8, addend: 0x0, symName: __ZNKSt3__16vectorIiNS_9allocatorIiEEE4dataB7v160006Ev, symObjAddr: 0x5980, symBinAddr: 0x100007DB0, symSize: 0x20 }
  - { offsetInCU: 0x19955, offset: 0x19955, size: 0x8, addend: 0x0, symName: __ZNKSt3__16vectorIiNS_9allocatorIiEEE8capacityB7v160006Ev, symObjAddr: 0x59A0, symBinAddr: 0x100007DD0, symSize: 0x30 }
  - { offsetInCU: 0x1997B, offset: 0x1997B, size: 0x8, addend: 0x0, symName: __ZNKSt3__16vectorIiNS_9allocatorIiEEE9__end_capB7v160006Ev, symObjAddr: 0x59E0, symBinAddr: 0x100007E10, symSize: 0x20 }
  - { offsetInCU: 0x199A1, offset: 0x199A1, size: 0x8, addend: 0x0, symName: __ZNKSt3__117__compressed_pairIPiNS_9allocatorIiEEE5firstB7v160006Ev, symObjAddr: 0x5A00, symBinAddr: 0x100007E30, symSize: 0x20 }
  - { offsetInCU: 0x199C7, offset: 0x199C7, size: 0x8, addend: 0x0, symName: __ZNKSt3__122__compressed_pair_elemIPiLi0ELb0EE5__getB7v160006Ev, symObjAddr: 0x5A20, symBinAddr: 0x100007E50, symSize: 0x10 }
  - { offsetInCU: 0x19A09, offset: 0x19A09, size: 0x8, addend: 0x0, symName: __ZNSt3__16vectorIiNS_9allocatorIiEEE21_ConstructTransactionC1B7v160006ERS3_m, symObjAddr: 0x5A30, symBinAddr: 0x100007E60, symSize: 0x30 }
  - { offsetInCU: 0x19A51, offset: 0x19A51, size: 0x8, addend: 0x0, symName: __ZNSt3__116allocator_traitsINS_9allocatorIiEEE9constructB7v160006IiJRKiEvvEEvRS2_PT_DpOT0_, symObjAddr: 0x5A60, symBinAddr: 0x100007E90, symSize: 0x30 }
  - { offsetInCU: 0x19AA6, offset: 0x19AA6, size: 0x8, addend: 0x0, symName: __ZNSt3__16vectorIiNS_9allocatorIiEEE21_ConstructTransactionD1B7v160006Ev, symObjAddr: 0x5A90, symBinAddr: 0x100007EC0, symSize: 0x20 }
  - { offsetInCU: 0x19AD0, offset: 0x19AD0, size: 0x8, addend: 0x0, symName: __ZNSt3__16vectorIiNS_9allocatorIiEEE21_ConstructTransactionC2B7v160006ERS3_m, symObjAddr: 0x5AB0, symBinAddr: 0x100007EE0, symSize: 0x40 }
  - { offsetInCU: 0x19B18, offset: 0x19B18, size: 0x8, addend: 0x0, symName: __ZNSt3__16vectorIiNS_9allocatorIiEEE21_ConstructTransactionD2B7v160006Ev, symObjAddr: 0x5B20, symBinAddr: 0x100007F50, symSize: 0x20 }
  - { offsetInCU: 0x19B42, offset: 0x19B42, size: 0x8, addend: 0x0, symName: __ZNSt3__128__exception_guard_exceptionsINS_6vectorIiNS_9allocatorIiEEE16__destroy_vectorEED2B7v160006Ev, symObjAddr: 0x5B40, symBinAddr: 0x100007F70, symSize: 0x40 }
  - { offsetInCU: 0x19B6C, offset: 0x19B6C, size: 0x8, addend: 0x0, symName: __ZNSt3__16vectorIiNS_9allocatorIiEEE16__destroy_vectorclB7v160006Ev, symObjAddr: 0x5B80, symBinAddr: 0x100007FB0, symSize: 0x90 }
  - { offsetInCU: 0x19B92, offset: 0x19B92, size: 0x8, addend: 0x0, symName: __ZNKSt3__16vectorIiNS_9allocatorIiEEE17__annotate_deleteB7v160006Ev, symObjAddr: 0x5C10, symBinAddr: 0x100008040, symSize: 0xB0 }
  - { offsetInCU: 0x19BB8, offset: 0x19BB8, size: 0x8, addend: 0x0, symName: __ZNSt3__16vectorIiNS_9allocatorIiEEE7__clearB7v160006Ev, symObjAddr: 0x5CD0, symBinAddr: 0x100008100, symSize: 0x20 }
  - { offsetInCU: 0x19BDE, offset: 0x19BDE, size: 0x8, addend: 0x0, symName: __ZNKSt3__16vectorIiNS_9allocatorIiEEE4sizeB7v160006Ev, symObjAddr: 0x5CF0, symBinAddr: 0x100008120, symSize: 0x20 }
  - { offsetInCU: 0x19C04, offset: 0x19C04, size: 0x8, addend: 0x0, symName: __ZNSt3__16vectorIiNS_9allocatorIiEEE22__base_destruct_at_endB7v160006EPi, symObjAddr: 0x5D10, symBinAddr: 0x100008140, symSize: 0x80 }
  - { offsetInCU: 0x19C48, offset: 0x19C48, size: 0x8, addend: 0x0, symName: __ZNSt3__16vectorIiNS_9allocatorIiEEED2B7v160006Ev, symObjAddr: 0x5D90, symBinAddr: 0x1000081C0, symSize: 0x40 }
  - { offsetInCU: 0x19C72, offset: 0x19C72, size: 0x8, addend: 0x0, symName: '__ZNSt3__114priority_queueI4EdgeNS_6vectorIS1_NS_9allocatorIS1_EEEEZ24GetMaxSpanningTreeWeightRKNS2_IS5_NS3_IS5_EEEEE3$_0EC2B7v160006Ev', symObjAddr: 0x5DD0, symBinAddr: 0x100008200, symSize: 0x20 }
  - { offsetInCU: 0x19C9C, offset: 0x19C9C, size: 0x8, addend: 0x0, symName: __ZNSt3__113unordered_setIiNS_4hashIiEENS_8equal_toIiEENS_9allocatorIiEEEC2B7v160006Ev, symObjAddr: 0x5DF0, symBinAddr: 0x100008220, symSize: 0x40 }
  - { offsetInCU: 0x19CC6, offset: 0x19CC6, size: 0x8, addend: 0x0, symName: __ZNSt3__112__hash_tableIiNS_4hashIiEENS_8equal_toIiEENS_9allocatorIiEEEC1Ev, symObjAddr: 0x5E30, symBinAddr: 0x100008260, symSize: 0x20 }
  - { offsetInCU: 0x19CF2, offset: 0x19CF2, size: 0x8, addend: 0x0, symName: __ZNSt3__112__hash_tableIiNS_4hashIiEENS_8equal_toIiEENS_9allocatorIiEEEC2Ev, symObjAddr: 0x5E60, symBinAddr: 0x100008290, symSize: 0x80 }
  - { offsetInCU: 0x19D1E, offset: 0x19D1E, size: 0x8, addend: 0x0, symName: __ZNSt3__110unique_ptrIA_PNS_16__hash_node_baseIPNS_11__hash_nodeIiPvEEEENS_25__bucket_list_deallocatorINS_9allocatorIS7_EEEEEC1B7v160006ILb1EvEEv, symObjAddr: 0x5EE0, symBinAddr: 0x100008310, symSize: 0x20 }
  - { offsetInCU: 0x19D53, offset: 0x19D53, size: 0x8, addend: 0x0, symName: __ZNSt3__117__compressed_pairINS_16__hash_node_baseIPNS_11__hash_nodeIiPvEEEENS_9allocatorIS4_EEEC1B7v160006ILb1EvEEv, symObjAddr: 0x5F00, symBinAddr: 0x100008330, symSize: 0x20 }
  - { offsetInCU: 0x19D8E, offset: 0x19D8E, size: 0x8, addend: 0x0, symName: __ZNSt3__117__compressed_pairImNS_4hashIiEEEC1B7v160006IiNS_18__default_init_tagEEEOT_OT0_, symObjAddr: 0x5F20, symBinAddr: 0x100008350, symSize: 0x30 }
  - { offsetInCU: 0x19DEC, offset: 0x19DEC, size: 0x8, addend: 0x0, symName: __ZNSt3__117__compressed_pairIfNS_8equal_toIiEEEC1B7v160006IfNS_18__default_init_tagEEEOT_OT0_, symObjAddr: 0x5F50, symBinAddr: 0x100008380, symSize: 0x30 }
  - { offsetInCU: 0x19E44, offset: 0x19E44, size: 0x8, addend: 0x0, symName: __ZNSt3__110unique_ptrIA_PNS_16__hash_node_baseIPNS_11__hash_nodeIiPvEEEENS_25__bucket_list_deallocatorINS_9allocatorIS7_EEEEEC2B7v160006ILb1EvEEv, symObjAddr: 0x5F80, symBinAddr: 0x1000083B0, symSize: 0x30 }
  - { offsetInCU: 0x19E7F, offset: 0x19E7F, size: 0x8, addend: 0x0, symName: __ZNSt3__117__compressed_pairIPPNS_16__hash_node_baseIPNS_11__hash_nodeIiPvEEEENS_25__bucket_list_deallocatorINS_9allocatorIS7_EEEEEC1B7v160006INS_16__value_init_tagESF_EEOT_OT0_, symObjAddr: 0x5FB0, symBinAddr: 0x1000083E0, symSize: 0x30 }
  - { offsetInCU: 0x19ED7, offset: 0x19ED7, size: 0x8, addend: 0x0, symName: __ZNSt3__117__compressed_pairIPPNS_16__hash_node_baseIPNS_11__hash_nodeIiPvEEEENS_25__bucket_list_deallocatorINS_9allocatorIS7_EEEEEC2B7v160006INS_16__value_init_tagESF_EEOT_OT0_, symObjAddr: 0x5FE0, symBinAddr: 0x100008410, symSize: 0x40 }
  - { offsetInCU: 0x19F2F, offset: 0x19F2F, size: 0x8, addend: 0x0, symName: __ZNSt3__122__compressed_pair_elemIPPNS_16__hash_node_baseIPNS_11__hash_nodeIiPvEEEELi0ELb0EEC2B7v160006ENS_16__value_init_tagE, symObjAddr: 0x6020, symBinAddr: 0x100008450, symSize: 0x20 }
  - { offsetInCU: 0x19F64, offset: 0x19F64, size: 0x8, addend: 0x0, symName: __ZNSt3__122__compressed_pair_elemINS_25__bucket_list_deallocatorINS_9allocatorIPNS_16__hash_node_baseIPNS_11__hash_nodeIiPvEEEEEEEELi1ELb0EEC2B7v160006ENS_16__value_init_tagE, symObjAddr: 0x6040, symBinAddr: 0x100008470, symSize: 0x20 }
  - { offsetInCU: 0x19F99, offset: 0x19F99, size: 0x8, addend: 0x0, symName: __ZNSt3__125__bucket_list_deallocatorINS_9allocatorIPNS_16__hash_node_baseIPNS_11__hash_nodeIiPvEEEEEEEC1B7v160006Ev, symObjAddr: 0x6060, symBinAddr: 0x100008490, symSize: 0x20 }
  - { offsetInCU: 0x19FC3, offset: 0x19FC3, size: 0x8, addend: 0x0, symName: __ZNSt3__125__bucket_list_deallocatorINS_9allocatorIPNS_16__hash_node_baseIPNS_11__hash_nodeIiPvEEEEEEEC2B7v160006Ev, symObjAddr: 0x6080, symBinAddr: 0x1000084B0, symSize: 0x40 }
  - { offsetInCU: 0x19FED, offset: 0x19FED, size: 0x8, addend: 0x0, symName: __ZNSt3__117__compressed_pairImNS_9allocatorIPNS_16__hash_node_baseIPNS_11__hash_nodeIiPvEEEEEEEC1B7v160006IiNS_18__default_init_tagEEEOT_OT0_, symObjAddr: 0x60C0, symBinAddr: 0x1000084F0, symSize: 0x30 }
  - { offsetInCU: 0x1A045, offset: 0x1A045, size: 0x8, addend: 0x0, symName: __ZNSt3__117__compressed_pairImNS_9allocatorIPNS_16__hash_node_baseIPNS_11__hash_nodeIiPvEEEEEEEC2B7v160006IiNS_18__default_init_tagEEEOT_OT0_, symObjAddr: 0x60F0, symBinAddr: 0x100008520, symSize: 0x40 }
  - { offsetInCU: 0x1A09D, offset: 0x1A09D, size: 0x8, addend: 0x0, symName: __ZNSt3__122__compressed_pair_elemImLi0ELb0EEC2B7v160006IivEEOT_, symObjAddr: 0x6130, symBinAddr: 0x100008560, symSize: 0x20 }
  - { offsetInCU: 0x1A0DF, offset: 0x1A0DF, size: 0x8, addend: 0x0, symName: __ZNSt3__122__compressed_pair_elemINS_9allocatorIPNS_16__hash_node_baseIPNS_11__hash_nodeIiPvEEEEEELi1ELb1EEC2B7v160006ENS_18__default_init_tagE, symObjAddr: 0x6150, symBinAddr: 0x100008580, symSize: 0x20 }
  - { offsetInCU: 0x1A114, offset: 0x1A114, size: 0x8, addend: 0x0, symName: __ZNSt3__19allocatorIPNS_16__hash_node_baseIPNS_11__hash_nodeIiPvEEEEEC2B7v160006Ev, symObjAddr: 0x6170, symBinAddr: 0x1000085A0, symSize: 0x20 }
  - { offsetInCU: 0x1A13E, offset: 0x1A13E, size: 0x8, addend: 0x0, symName: __ZNSt3__116__non_trivial_ifILb1ENS_9allocatorIPNS_16__hash_node_baseIPNS_11__hash_nodeIiPvEEEEEEEC2B7v160006Ev, symObjAddr: 0x6190, symBinAddr: 0x1000085C0, symSize: 0x10 }
  - { offsetInCU: 0x1A168, offset: 0x1A168, size: 0x8, addend: 0x0, symName: __ZNSt3__117__compressed_pairINS_16__hash_node_baseIPNS_11__hash_nodeIiPvEEEENS_9allocatorIS4_EEEC2B7v160006ILb1EvEEv, symObjAddr: 0x61A0, symBinAddr: 0x1000085D0, symSize: 0x30 }
  - { offsetInCU: 0x1A19D, offset: 0x1A19D, size: 0x8, addend: 0x0, symName: __ZNSt3__122__compressed_pair_elemINS_16__hash_node_baseIPNS_11__hash_nodeIiPvEEEELi0ELb0EEC2B7v160006ENS_16__value_init_tagE, symObjAddr: 0x61D0, symBinAddr: 0x100008600, symSize: 0x20 }
  - { offsetInCU: 0x1A1D2, offset: 0x1A1D2, size: 0x8, addend: 0x0, symName: __ZNSt3__122__compressed_pair_elemINS_9allocatorINS_11__hash_nodeIiPvEEEELi1ELb1EEC2B7v160006ENS_16__value_init_tagE, symObjAddr: 0x61F0, symBinAddr: 0x100008620, symSize: 0x20 }
  - { offsetInCU: 0x1A207, offset: 0x1A207, size: 0x8, addend: 0x0, symName: __ZNSt3__116__hash_node_baseIPNS_11__hash_nodeIiPvEEEC1B7v160006Ev, symObjAddr: 0x6210, symBinAddr: 0x100008640, symSize: 0x20 }
  - { offsetInCU: 0x1A231, offset: 0x1A231, size: 0x8, addend: 0x0, symName: __ZNSt3__116__hash_node_baseIPNS_11__hash_nodeIiPvEEEC2B7v160006Ev, symObjAddr: 0x6230, symBinAddr: 0x100008660, symSize: 0x20 }
  - { offsetInCU: 0x1A25B, offset: 0x1A25B, size: 0x8, addend: 0x0, symName: __ZNSt3__19allocatorINS_11__hash_nodeIiPvEEEC2B7v160006Ev, symObjAddr: 0x6250, symBinAddr: 0x100008680, symSize: 0x20 }
  - { offsetInCU: 0x1A285, offset: 0x1A285, size: 0x8, addend: 0x0, symName: __ZNSt3__116__non_trivial_ifILb1ENS_9allocatorINS_11__hash_nodeIiPvEEEEEC2B7v160006Ev, symObjAddr: 0x6270, symBinAddr: 0x1000086A0, symSize: 0x10 }
  - { offsetInCU: 0x1A2AF, offset: 0x1A2AF, size: 0x8, addend: 0x0, symName: __ZNSt3__117__compressed_pairImNS_4hashIiEEEC2B7v160006IiNS_18__default_init_tagEEEOT_OT0_, symObjAddr: 0x6280, symBinAddr: 0x1000086B0, symSize: 0x40 }
  - { offsetInCU: 0x1A307, offset: 0x1A307, size: 0x8, addend: 0x0, symName: __ZNSt3__122__compressed_pair_elemINS_4hashIiEELi1ELb1EEC2B7v160006ENS_18__default_init_tagE, symObjAddr: 0x62C0, symBinAddr: 0x1000086F0, symSize: 0x10 }
  - { offsetInCU: 0x1A33C, offset: 0x1A33C, size: 0x8, addend: 0x0, symName: __ZNSt3__117__compressed_pairIfNS_8equal_toIiEEEC2B7v160006IfNS_18__default_init_tagEEEOT_OT0_, symObjAddr: 0x62D0, symBinAddr: 0x100008700, symSize: 0x40 }
  - { offsetInCU: 0x1A394, offset: 0x1A394, size: 0x8, addend: 0x0, symName: __ZNSt3__122__compressed_pair_elemIfLi0ELb0EEC2B7v160006IfvEEOT_, symObjAddr: 0x6310, symBinAddr: 0x100008740, symSize: 0x20 }
  - { offsetInCU: 0x1A3D6, offset: 0x1A3D6, size: 0x8, addend: 0x0, symName: __ZNSt3__122__compressed_pair_elemINS_8equal_toIiEELi1ELb1EEC2B7v160006ENS_18__default_init_tagE, symObjAddr: 0x6330, symBinAddr: 0x100008760, symSize: 0x10 }
  - { offsetInCU: 0x1A40B, offset: 0x1A40B, size: 0x8, addend: 0x0, symName: __ZNSt3__113unordered_setIiNS_4hashIiEENS_8equal_toIiEENS_9allocatorIiEEED2B7v160006Ev, symObjAddr: 0x6340, symBinAddr: 0x100008770, symSize: 0x20 }
  - { offsetInCU: 0x1A435, offset: 0x1A435, size: 0x8, addend: 0x0, symName: __ZNSt3__112__hash_tableIiNS_4hashIiEENS_8equal_toIiEENS_9allocatorIiEEED1Ev, symObjAddr: 0x6360, symBinAddr: 0x100008790, symSize: 0x20 }
  - { offsetInCU: 0x1A461, offset: 0x1A461, size: 0x8, addend: 0x0, symName: __ZNSt3__112__hash_tableIiNS_4hashIiEENS_8equal_toIiEENS_9allocatorIiEEED2Ev, symObjAddr: 0x6380, symBinAddr: 0x1000087B0, symSize: 0x50 }
  - { offsetInCU: 0x1A48D, offset: 0x1A48D, size: 0x8, addend: 0x0, symName: __ZNSt3__112__hash_tableIiNS_4hashIiEENS_8equal_toIiEENS_9allocatorIiEEE17__deallocate_nodeEPNS_16__hash_node_baseIPNS_11__hash_nodeIiPvEEEE, symObjAddr: 0x63D0, symBinAddr: 0x100008800, symSize: 0xA0 }
  - { offsetInCU: 0x1A4F7, offset: 0x1A4F7, size: 0x8, addend: 0x0, symName: __ZNSt3__117__compressed_pairINS_16__hash_node_baseIPNS_11__hash_nodeIiPvEEEENS_9allocatorIS4_EEE5firstB7v160006Ev, symObjAddr: 0x6470, symBinAddr: 0x1000088A0, symSize: 0x20 }
  - { offsetInCU: 0x1A51D, offset: 0x1A51D, size: 0x8, addend: 0x0, symName: __ZNSt3__110unique_ptrIA_PNS_16__hash_node_baseIPNS_11__hash_nodeIiPvEEEENS_25__bucket_list_deallocatorINS_9allocatorIS7_EEEEED1B7v160006Ev, symObjAddr: 0x64A0, symBinAddr: 0x1000088D0, symSize: 0x20 }
  - { offsetInCU: 0x1A547, offset: 0x1A547, size: 0x8, addend: 0x0, symName: __ZNSt3__112__hash_tableIiNS_4hashIiEENS_8equal_toIiEENS_9allocatorIiEEE12__node_allocB7v160006Ev, symObjAddr: 0x64C0, symBinAddr: 0x1000088F0, symSize: 0x20 }
  - { offsetInCU: 0x1A56D, offset: 0x1A56D, size: 0x8, addend: 0x0, symName: __ZNSt3__116__hash_node_baseIPNS_11__hash_nodeIiPvEEE8__upcastB7v160006Ev, symObjAddr: 0x64E0, symBinAddr: 0x100008910, symSize: 0x20 }
  - { offsetInCU: 0x1A593, offset: 0x1A593, size: 0x8, addend: 0x0, symName: __ZNSt3__116allocator_traitsINS_9allocatorINS_11__hash_nodeIiPvEEEEE7destroyB7v160006IivvEEvRS5_PT_, symObjAddr: 0x6500, symBinAddr: 0x100008930, symSize: 0x20 }
  - { offsetInCU: 0x1A5CE, offset: 0x1A5CE, size: 0x8, addend: 0x0, symName: __ZNSt3__122__hash_key_value_typesIiE9__get_ptrB7v160006ERi, symObjAddr: 0x6520, symBinAddr: 0x100008950, symSize: 0x10 }
  - { offsetInCU: 0x1A5F1, offset: 0x1A5F1, size: 0x8, addend: 0x0, symName: __ZNSt3__116allocator_traitsINS_9allocatorINS_11__hash_nodeIiPvEEEEE10deallocateB7v160006ERS5_PS4_m, symObjAddr: 0x6530, symBinAddr: 0x100008960, symSize: 0x30 }
  - { offsetInCU: 0x1A633, offset: 0x1A633, size: 0x8, addend: 0x0, symName: __ZNSt3__117__compressed_pairINS_16__hash_node_baseIPNS_11__hash_nodeIiPvEEEENS_9allocatorIS4_EEE6secondB7v160006Ev, symObjAddr: 0x6560, symBinAddr: 0x100008990, symSize: 0x20 }
  - { offsetInCU: 0x1A659, offset: 0x1A659, size: 0x8, addend: 0x0, symName: __ZNSt3__122__compressed_pair_elemINS_9allocatorINS_11__hash_nodeIiPvEEEELi1ELb1EE5__getB7v160006Ev, symObjAddr: 0x6580, symBinAddr: 0x1000089B0, symSize: 0x10 }
  - { offsetInCU: 0x1A67F, offset: 0x1A67F, size: 0x8, addend: 0x0, symName: __ZNSt3__114pointer_traitsIPNS_16__hash_node_baseIPNS_11__hash_nodeIiPvEEEEE10pointer_toB7v160006ERS6_, symObjAddr: 0x6590, symBinAddr: 0x1000089C0, symSize: 0x10 }
  - { offsetInCU: 0x1A6A2, offset: 0x1A6A2, size: 0x8, addend: 0x0, symName: __ZNSt3__19allocatorINS_11__hash_nodeIiPvEEE10deallocateB7v160006EPS3_m, symObjAddr: 0x65A0, symBinAddr: 0x1000089D0, symSize: 0x50 }
  - { offsetInCU: 0x1A6E4, offset: 0x1A6E4, size: 0x8, addend: 0x0, symName: __ZNSt3__122__compressed_pair_elemINS_16__hash_node_baseIPNS_11__hash_nodeIiPvEEEELi0ELb0EE5__getB7v160006Ev, symObjAddr: 0x65F0, symBinAddr: 0x100008A20, symSize: 0x10 }
  - { offsetInCU: 0x1A70A, offset: 0x1A70A, size: 0x8, addend: 0x0, symName: __ZNSt3__110unique_ptrIA_PNS_16__hash_node_baseIPNS_11__hash_nodeIiPvEEEENS_25__bucket_list_deallocatorINS_9allocatorIS7_EEEEED2B7v160006Ev, symObjAddr: 0x6600, symBinAddr: 0x100008A30, symSize: 0x20 }
  - { offsetInCU: 0x1A734, offset: 0x1A734, size: 0x8, addend: 0x0, symName: __ZNSt3__110unique_ptrIA_PNS_16__hash_node_baseIPNS_11__hash_nodeIiPvEEEENS_25__bucket_list_deallocatorINS_9allocatorIS7_EEEEE5resetB7v160006EDn, symObjAddr: 0x6620, symBinAddr: 0x100008A50, symSize: 0x60 }
  - { offsetInCU: 0x1A775, offset: 0x1A775, size: 0x8, addend: 0x0, symName: __ZNSt3__117__compressed_pairIPPNS_16__hash_node_baseIPNS_11__hash_nodeIiPvEEEENS_25__bucket_list_deallocatorINS_9allocatorIS7_EEEEE5firstB7v160006Ev, symObjAddr: 0x6680, symBinAddr: 0x100008AB0, symSize: 0x20 }
  - { offsetInCU: 0x1A79B, offset: 0x1A79B, size: 0x8, addend: 0x0, symName: __ZNSt3__117__compressed_pairIPPNS_16__hash_node_baseIPNS_11__hash_nodeIiPvEEEENS_25__bucket_list_deallocatorINS_9allocatorIS7_EEEEE6secondB7v160006Ev, symObjAddr: 0x66A0, symBinAddr: 0x100008AD0, symSize: 0x20 }
  - { offsetInCU: 0x1A7C1, offset: 0x1A7C1, size: 0x8, addend: 0x0, symName: __ZNSt3__125__bucket_list_deallocatorINS_9allocatorIPNS_16__hash_node_baseIPNS_11__hash_nodeIiPvEEEEEEEclB7v160006EPS8_, symObjAddr: 0x66C0, symBinAddr: 0x100008AF0, symSize: 0x50 }
  - { offsetInCU: 0x1A7F6, offset: 0x1A7F6, size: 0x8, addend: 0x0, symName: __ZNSt3__122__compressed_pair_elemIPPNS_16__hash_node_baseIPNS_11__hash_nodeIiPvEEEELi0ELb0EE5__getB7v160006Ev, symObjAddr: 0x6710, symBinAddr: 0x100008B40, symSize: 0x10 }
  - { offsetInCU: 0x1A81C, offset: 0x1A81C, size: 0x8, addend: 0x0, symName: __ZNSt3__122__compressed_pair_elemINS_25__bucket_list_deallocatorINS_9allocatorIPNS_16__hash_node_baseIPNS_11__hash_nodeIiPvEEEEEEEELi1ELb0EE5__getB7v160006Ev, symObjAddr: 0x6720, symBinAddr: 0x100008B50, symSize: 0x10 }
  - { offsetInCU: 0x1A842, offset: 0x1A842, size: 0x8, addend: 0x0, symName: __ZNSt3__116allocator_traitsINS_9allocatorIPNS_16__hash_node_baseIPNS_11__hash_nodeIiPvEEEEEEE10deallocateB7v160006ERS9_PS8_m, symObjAddr: 0x6730, symBinAddr: 0x100008B60, symSize: 0x30 }
  - { offsetInCU: 0x1A884, offset: 0x1A884, size: 0x8, addend: 0x0, symName: __ZNSt3__125__bucket_list_deallocatorINS_9allocatorIPNS_16__hash_node_baseIPNS_11__hash_nodeIiPvEEEEEEE7__allocB7v160006Ev, symObjAddr: 0x6760, symBinAddr: 0x100008B90, symSize: 0x20 }
  - { offsetInCU: 0x1A8AA, offset: 0x1A8AA, size: 0x8, addend: 0x0, symName: __ZNSt3__125__bucket_list_deallocatorINS_9allocatorIPNS_16__hash_node_baseIPNS_11__hash_nodeIiPvEEEEEEE4sizeB7v160006Ev, symObjAddr: 0x6780, symBinAddr: 0x100008BB0, symSize: 0x20 }
  - { offsetInCU: 0x1A8D0, offset: 0x1A8D0, size: 0x8, addend: 0x0, symName: __ZNSt3__19allocatorIPNS_16__hash_node_baseIPNS_11__hash_nodeIiPvEEEEE10deallocateB7v160006EPS7_m, symObjAddr: 0x67A0, symBinAddr: 0x100008BD0, symSize: 0x40 }
  - { offsetInCU: 0x1A912, offset: 0x1A912, size: 0x8, addend: 0x0, symName: __ZNSt3__117__compressed_pairImNS_9allocatorIPNS_16__hash_node_baseIPNS_11__hash_nodeIiPvEEEEEEE6secondB7v160006Ev, symObjAddr: 0x67E0, symBinAddr: 0x100008C10, symSize: 0x20 }
  - { offsetInCU: 0x1A938, offset: 0x1A938, size: 0x8, addend: 0x0, symName: __ZNSt3__122__compressed_pair_elemINS_9allocatorIPNS_16__hash_node_baseIPNS_11__hash_nodeIiPvEEEEEELi1ELb1EE5__getB7v160006Ev, symObjAddr: 0x6800, symBinAddr: 0x100008C30, symSize: 0x10 }
  - { offsetInCU: 0x1A95E, offset: 0x1A95E, size: 0x8, addend: 0x0, symName: __ZNSt3__117__compressed_pairImNS_9allocatorIPNS_16__hash_node_baseIPNS_11__hash_nodeIiPvEEEEEEE5firstB7v160006Ev, symObjAddr: 0x6810, symBinAddr: 0x100008C40, symSize: 0x20 }
  - { offsetInCU: 0x1A984, offset: 0x1A984, size: 0x8, addend: 0x0, symName: __ZNKSt3__113unordered_setIiNS_4hashIiEENS_8equal_toIiEENS_9allocatorIiEEE5countB7v160006ERKi, symObjAddr: 0x6830, symBinAddr: 0x100008C60, symSize: 0x30 }
  - { offsetInCU: 0x1A9B9, offset: 0x1A9B9, size: 0x8, addend: 0x0, symName: '__ZNSt3__114priority_queueI4EdgeNS_6vectorIS1_NS_9allocatorIS1_EEEEZ24GetMaxSpanningTreeWeightRKNS2_IS5_NS3_IS5_EEEEE3$_0E4pushERKS1_', symObjAddr: 0x6860, symBinAddr: 0x100008C90, symSize: 0x50 }
  - { offsetInCU: 0x1A9F0, offset: 0x1A9F0, size: 0x8, addend: 0x0, symName: __ZNKSt3__112__hash_tableIiNS_4hashIiEENS_8equal_toIiEENS_9allocatorIiEEE14__count_uniqueIiEEmRKT_, symObjAddr: 0x68B0, symBinAddr: 0x100008CE0, symSize: 0x50 }
  - { offsetInCU: 0x1AA30, offset: 0x1AA30, size: 0x8, addend: 0x0, symName: __ZNKSt3__112__hash_tableIiNS_4hashIiEENS_8equal_toIiEENS_9allocatorIiEEE4findIiEENS_21__hash_const_iteratorIPNS_11__hash_nodeIiPvEEEERKT_, symObjAddr: 0x6930, symBinAddr: 0x100008D60, symSize: 0x190 }
  - { offsetInCU: 0x1AABA, offset: 0x1AABA, size: 0x8, addend: 0x0, symName: __ZNKSt3__112__hash_tableIiNS_4hashIiEENS_8equal_toIiEENS_9allocatorIiEEE3endEv, symObjAddr: 0x6AC0, symBinAddr: 0x100008EF0, symSize: 0x30 }
  - { offsetInCU: 0x1AAE2, offset: 0x1AAE2, size: 0x8, addend: 0x0, symName: __ZNKSt3__112__hash_tableIiNS_4hashIiEENS_8equal_toIiEENS_9allocatorIiEEE13hash_functionB7v160006Ev, symObjAddr: 0x6B20, symBinAddr: 0x100008F50, symSize: 0x20 }
  - { offsetInCU: 0x1AB08, offset: 0x1AB08, size: 0x8, addend: 0x0, symName: __ZNKSt3__14hashIiEclB7v160006Ei, symObjAddr: 0x6B40, symBinAddr: 0x100008F70, symSize: 0x20 }
  - { offsetInCU: 0x1AB3D, offset: 0x1AB3D, size: 0x8, addend: 0x0, symName: __ZNKSt3__112__hash_tableIiNS_4hashIiEENS_8equal_toIiEENS_9allocatorIiEEE12bucket_countB7v160006Ev, symObjAddr: 0x6B60, symBinAddr: 0x100008F90, symSize: 0x30 }
  - { offsetInCU: 0x1AB63, offset: 0x1AB63, size: 0x8, addend: 0x0, symName: __ZNKSt3__110unique_ptrIA_PNS_16__hash_node_baseIPNS_11__hash_nodeIiPvEEEENS_25__bucket_list_deallocatorINS_9allocatorIS7_EEEEEixB7v160006Em, symObjAddr: 0x6C10, symBinAddr: 0x100009040, symSize: 0x30 }
  - { offsetInCU: 0x1AB98, offset: 0x1AB98, size: 0x8, addend: 0x0, symName: __ZNKSt3__116__hash_node_baseIPNS_11__hash_nodeIiPvEEE6__hashB7v160006Ev, symObjAddr: 0x6C40, symBinAddr: 0x100009070, symSize: 0x20 }
  - { offsetInCU: 0x1ABBE, offset: 0x1ABBE, size: 0x8, addend: 0x0, symName: __ZNKSt3__112__hash_tableIiNS_4hashIiEENS_8equal_toIiEENS_9allocatorIiEEE6key_eqB7v160006Ev, symObjAddr: 0x6C60, symBinAddr: 0x100009090, symSize: 0x20 }
  - { offsetInCU: 0x1ABE4, offset: 0x1ABE4, size: 0x8, addend: 0x0, symName: __ZNKSt3__18equal_toIiEclB7v160006ERKiS3_, symObjAddr: 0x6C80, symBinAddr: 0x1000090B0, symSize: 0x30 }
  - { offsetInCU: 0x1AC28, offset: 0x1AC28, size: 0x8, addend: 0x0, symName: __ZNSt3__121__hash_const_iteratorIPNS_11__hash_nodeIiPvEEEC1B7v160006EPNS_16__hash_node_baseIS4_EEPKv, symObjAddr: 0x6CB0, symBinAddr: 0x1000090E0, symSize: 0x30 }
  - { offsetInCU: 0x1AC70, offset: 0x1AC70, size: 0x8, addend: 0x0, symName: __ZNKSt3__117__compressed_pairImNS_4hashIiEEE6secondB7v160006Ev, symObjAddr: 0x6CE0, symBinAddr: 0x100009110, symSize: 0x20 }
  - { offsetInCU: 0x1AC96, offset: 0x1AC96, size: 0x8, addend: 0x0, symName: __ZNKSt3__122__compressed_pair_elemINS_4hashIiEELi1ELb1EE5__getB7v160006Ev, symObjAddr: 0x6D00, symBinAddr: 0x100009130, symSize: 0x10 }
  - { offsetInCU: 0x1ACBC, offset: 0x1ACBC, size: 0x8, addend: 0x0, symName: __ZNKSt3__110unique_ptrIA_PNS_16__hash_node_baseIPNS_11__hash_nodeIiPvEEEENS_25__bucket_list_deallocatorINS_9allocatorIS7_EEEEE11get_deleterB7v160006Ev, symObjAddr: 0x6D10, symBinAddr: 0x100009140, symSize: 0x20 }
  - { offsetInCU: 0x1ACE2, offset: 0x1ACE2, size: 0x8, addend: 0x0, symName: __ZNKSt3__125__bucket_list_deallocatorINS_9allocatorIPNS_16__hash_node_baseIPNS_11__hash_nodeIiPvEEEEEEE4sizeB7v160006Ev, symObjAddr: 0x6D30, symBinAddr: 0x100009160, symSize: 0x20 }
  - { offsetInCU: 0x1AD08, offset: 0x1AD08, size: 0x8, addend: 0x0, symName: __ZNKSt3__117__compressed_pairIPPNS_16__hash_node_baseIPNS_11__hash_nodeIiPvEEEENS_25__bucket_list_deallocatorINS_9allocatorIS7_EEEEE6secondB7v160006Ev, symObjAddr: 0x6D50, symBinAddr: 0x100009180, symSize: 0x20 }
  - { offsetInCU: 0x1AD2E, offset: 0x1AD2E, size: 0x8, addend: 0x0, symName: __ZNKSt3__122__compressed_pair_elemINS_25__bucket_list_deallocatorINS_9allocatorIPNS_16__hash_node_baseIPNS_11__hash_nodeIiPvEEEEEEEELi1ELb0EE5__getB7v160006Ev, symObjAddr: 0x6D70, symBinAddr: 0x1000091A0, symSize: 0x10 }
  - { offsetInCU: 0x1AD54, offset: 0x1AD54, size: 0x8, addend: 0x0, symName: __ZNKSt3__117__compressed_pairImNS_9allocatorIPNS_16__hash_node_baseIPNS_11__hash_nodeIiPvEEEEEEE5firstB7v160006Ev, symObjAddr: 0x6D80, symBinAddr: 0x1000091B0, symSize: 0x20 }
  - { offsetInCU: 0x1AD7A, offset: 0x1AD7A, size: 0x8, addend: 0x0, symName: __ZNKSt3__117__compressed_pairIPPNS_16__hash_node_baseIPNS_11__hash_nodeIiPvEEEENS_25__bucket_list_deallocatorINS_9allocatorIS7_EEEEE5firstB7v160006Ev, symObjAddr: 0x6DA0, symBinAddr: 0x1000091D0, symSize: 0x20 }
  - { offsetInCU: 0x1ADA0, offset: 0x1ADA0, size: 0x8, addend: 0x0, symName: __ZNKSt3__122__compressed_pair_elemIPPNS_16__hash_node_baseIPNS_11__hash_nodeIiPvEEEELi0ELb0EE5__getB7v160006Ev, symObjAddr: 0x6DC0, symBinAddr: 0x1000091F0, symSize: 0x10 }
  - { offsetInCU: 0x1ADC6, offset: 0x1ADC6, size: 0x8, addend: 0x0, symName: __ZNKSt3__117__compressed_pairIfNS_8equal_toIiEEE6secondB7v160006Ev, symObjAddr: 0x6DD0, symBinAddr: 0x100009200, symSize: 0x20 }
  - { offsetInCU: 0x1ADEC, offset: 0x1ADEC, size: 0x8, addend: 0x0, symName: __ZNKSt3__122__compressed_pair_elemINS_8equal_toIiEELi1ELb1EE5__getB7v160006Ev, symObjAddr: 0x6DF0, symBinAddr: 0x100009220, symSize: 0x10 }
  - { offsetInCU: 0x1AE12, offset: 0x1AE12, size: 0x8, addend: 0x0, symName: __ZNSt3__121__hash_const_iteratorIPNS_11__hash_nodeIiPvEEEC2B7v160006EPNS_16__hash_node_baseIS4_EEPKv, symObjAddr: 0x6E00, symBinAddr: 0x100009230, symSize: 0x20 }
  - { offsetInCU: 0x1AE5A, offset: 0x1AE5A, size: 0x8, addend: 0x0, symName: __ZNSt3__16vectorI4EdgeNS_9allocatorIS1_EEE9push_backB7v160006ERKS1_, symObjAddr: 0x6E20, symBinAddr: 0x100009250, symSize: 0x60 }
  - { offsetInCU: 0x1AE91, offset: 0x1AE91, size: 0x8, addend: 0x0, symName: __ZNSt3__16vectorI4EdgeNS_9allocatorIS1_EEE5beginB7v160006Ev, symObjAddr: 0x6EC0, symBinAddr: 0x1000092F0, symSize: 0x30 }
  - { offsetInCU: 0x1AEB9, offset: 0x1AEB9, size: 0x8, addend: 0x0, symName: __ZNSt3__16vectorI4EdgeNS_9allocatorIS1_EEE3endB7v160006Ev, symObjAddr: 0x6EF0, symBinAddr: 0x100009320, symSize: 0x30 }
  - { offsetInCU: 0x1AEE1, offset: 0x1AEE1, size: 0x8, addend: 0x0, symName: __ZNSt3__16vectorI4EdgeNS_9allocatorIS1_EEE22__construct_one_at_endB7v160006IJRKS1_EEEvDpOT_, symObjAddr: 0x6F20, symBinAddr: 0x100009350, symSize: 0x90 }
  - { offsetInCU: 0x1AF30, offset: 0x1AF30, size: 0x8, addend: 0x0, symName: __ZNSt3__16vectorI4EdgeNS_9allocatorIS1_EEE21__push_back_slow_pathIRKS1_EEvOT_, symObjAddr: 0x6FB0, symBinAddr: 0x1000093E0, symSize: 0xD0 }
  - { offsetInCU: 0x1AF8E, offset: 0x1AF8E, size: 0x8, addend: 0x0, symName: __ZNSt3__116allocator_traitsINS_9allocatorI4EdgeEEE9constructB7v160006IS2_JRKS2_EvvEEvRS3_PT_DpOT0_, symObjAddr: 0x7080, symBinAddr: 0x1000094B0, symSize: 0x30 }
  - { offsetInCU: 0x1AFE3, offset: 0x1AFE3, size: 0x8, addend: 0x0, symName: __ZNKSt3__111__wrap_iterIP4EdgeE4baseB7v160006Ev, symObjAddr: 0x72D0, symBinAddr: 0x100009700, symSize: 0x20 }
  - { offsetInCU: 0x1B009, offset: 0x1B009, size: 0x8, addend: 0x0, symName: __ZNKSt3__111__wrap_iterIP4EdgeEplB7v160006El, symObjAddr: 0x72F0, symBinAddr: 0x100009720, symSize: 0x40 }
  - { offsetInCU: 0x1B056, offset: 0x1B056, size: 0x8, addend: 0x0, symName: '__ZZ24GetMaxSpanningTreeWeightRKNSt3__16vectorINS0_I4EdgeNS_9allocatorIS1_EEEENS2_IS4_EEEEENK3$_0clERKS1_SB_', symObjAddr: 0x7330, symBinAddr: 0x100009760, symSize: 0x30 }
  - { offsetInCU: 0x1B09C, offset: 0x1B09C, size: 0x8, addend: 0x0, symName: __ZNKSt3__111__wrap_iterIP4EdgeEdeB7v160006Ev, symObjAddr: 0x7360, symBinAddr: 0x100009790, symSize: 0x20 }
  - { offsetInCU: 0x1B0C2, offset: 0x1B0C2, size: 0x8, addend: 0x0, symName: __ZNSt3__111__wrap_iterIP4EdgeEmmB7v160006Ev, symObjAddr: 0x7380, symBinAddr: 0x1000097B0, symSize: 0x20 }
  - { offsetInCU: 0x1B0E8, offset: 0x1B0E8, size: 0x8, addend: 0x0, symName: __ZNSt3__18_IterOpsINS_17_ClassicAlgPolicyEE11__iter_moveB7v160006IRNS_11__wrap_iterIP4EdgeEEEENS_9enable_ifIXsr12is_referenceIDTdeclsr3stdE7declvalIRT_EEEEE5valueEDTclsr3stdE4movedeclsr3stdE7declvalISB_EEEEE4typeEOSA_, symObjAddr: 0x73A0, symBinAddr: 0x1000097D0, symSize: 0x20 }
  - { offsetInCU: 0x1B114, offset: 0x1B114, size: 0x8, addend: 0x0, symName: __ZNSt3__111__wrap_iterIP4EdgeEpLB7v160006El, symObjAddr: 0x73C0, symBinAddr: 0x1000097F0, symSize: 0x20 }
  - { offsetInCU: 0x1B148, offset: 0x1B148, size: 0x8, addend: 0x0, symName: __ZNSt3__18_IterOpsINS_17_ClassicAlgPolicyEE25__validate_iter_referenceB7v160006IRNS_11__wrap_iterIP4EdgeEEEEvv, symObjAddr: 0x73E0, symBinAddr: 0x100009810, symSize: 0x10 }
  - { offsetInCU: 0x1B166, offset: 0x1B166, size: 0x8, addend: 0x0, symName: __ZNSt3__16vectorI4EdgeNS_9allocatorIS1_EEE11__make_iterB7v160006EPS1_, symObjAddr: 0x73F0, symBinAddr: 0x100009820, symSize: 0x30 }
  - { offsetInCU: 0x1B19B, offset: 0x1B19B, size: 0x8, addend: 0x0, symName: __ZNSt3__111__wrap_iterIP4EdgeEC1B7v160006EPKvS2_, symObjAddr: 0x7420, symBinAddr: 0x100009850, symSize: 0x30 }
  - { offsetInCU: 0x1B1E1, offset: 0x1B1E1, size: 0x8, addend: 0x0, symName: __ZNSt3__111__wrap_iterIP4EdgeEC2B7v160006EPKvS2_, symObjAddr: 0x7450, symBinAddr: 0x100009880, symSize: 0x20 }
  - { offsetInCU: 0x1B227, offset: 0x1B227, size: 0x8, addend: 0x0, symName: __ZNSt3__112__hash_tableIiNS_4hashIiEENS_8equal_toIiEENS_9allocatorIiEEE15__insert_uniqueB7v160006EOi, symObjAddr: 0x7470, symBinAddr: 0x1000098A0, symSize: 0x50 }
  - { offsetInCU: 0x1B25C, offset: 0x1B25C, size: 0x8, addend: 0x0, symName: __ZNSt3__14pairINS_21__hash_const_iteratorIPNS_11__hash_nodeIiPvEEEEbEC1B7v160006INS_15__hash_iteratorIS5_EEbLS3_0EEEONS0_IT_T0_EE, symObjAddr: 0x74C0, symBinAddr: 0x1000098F0, symSize: 0x30 }
  - { offsetInCU: 0x1B2AD, offset: 0x1B2AD, size: 0x8, addend: 0x0, symName: __ZNSt3__112__hash_tableIiNS_4hashIiEENS_8equal_toIiEENS_9allocatorIiEEE25__emplace_unique_key_argsIiJiEEENS_4pairINS_15__hash_iteratorIPNS_11__hash_nodeIiPvEEEEbEERKT_DpOT0_, symObjAddr: 0x74F0, symBinAddr: 0x100009920, symSize: 0x5B0 }
  - { offsetInCU: 0x1B38B, offset: 0x1B38B, size: 0x8, addend: 0x0, symName: __ZNSt3__122__hash_key_value_typesIiE9__get_keyB7v160006ERKi, symObjAddr: 0x7AA0, symBinAddr: 0x100009ED0, symSize: 0x10 }
  - { offsetInCU: 0x1B3AE, offset: 0x1B3AE, size: 0x8, addend: 0x0, symName: __ZNSt3__112__hash_tableIiNS_4hashIiEENS_8equal_toIiEENS_9allocatorIiEEE13hash_functionB7v160006Ev, symObjAddr: 0x7AB0, symBinAddr: 0x100009EE0, symSize: 0x20 }
  - { offsetInCU: 0x1B3D4, offset: 0x1B3D4, size: 0x8, addend: 0x0, symName: __ZNSt3__112__hash_tableIiNS_4hashIiEENS_8equal_toIiEENS_9allocatorIiEEE6key_eqB7v160006Ev, symObjAddr: 0x7AD0, symBinAddr: 0x100009F00, symSize: 0x20 }
  - { offsetInCU: 0x1B3FA, offset: 0x1B3FA, size: 0x8, addend: 0x0, symName: __ZNSt3__112__hash_tableIiNS_4hashIiEENS_8equal_toIiEENS_9allocatorIiEEE21__construct_node_hashIiJEEENS_10unique_ptrINS_11__hash_nodeIiPvEENS_22__hash_node_destructorINS5_ISC_EEEEEEmOT_DpOT0_, symObjAddr: 0x7AF0, symBinAddr: 0x100009F20, symSize: 0x130 }
  - { offsetInCU: 0x1B46D, offset: 0x1B46D, size: 0x8, addend: 0x0, symName: __ZNSt3__112__hash_tableIiNS_4hashIiEENS_8equal_toIiEENS_9allocatorIiEEE4sizeB7v160006Ev, symObjAddr: 0x7C20, symBinAddr: 0x10000A050, symSize: 0x20 }
  - { offsetInCU: 0x1B493, offset: 0x1B493, size: 0x8, addend: 0x0, symName: __ZNSt3__112__hash_tableIiNS_4hashIiEENS_8equal_toIiEENS_9allocatorIiEEE15max_load_factorB7v160006Ev, symObjAddr: 0x7C40, symBinAddr: 0x10000A070, symSize: 0x20 }
  - { offsetInCU: 0x1B4B9, offset: 0x1B4B9, size: 0x8, addend: 0x0, symName: __ZNSt3__112__hash_tableIiNS_4hashIiEENS_8equal_toIiEENS_9allocatorIiEEE15__rehash_uniqueB7v160006Em, symObjAddr: 0x7C60, symBinAddr: 0x10000A090, symSize: 0x30 }
  - { offsetInCU: 0x1B4ED, offset: 0x1B4ED, size: 0x8, addend: 0x0, symName: __Z4ceilB7v160006f, symObjAddr: 0x7CD0, symBinAddr: 0x10000A100, symSize: 0x20 }
  - { offsetInCU: 0x1B51C, offset: 0x1B51C, size: 0x8, addend: 0x0, symName: __ZNSt3__116__hash_node_baseIPNS_11__hash_nodeIiPvEEE5__ptrB7v160006Ev, symObjAddr: 0x7CF0, symBinAddr: 0x10000A120, symSize: 0x20 }
  - { offsetInCU: 0x1B542, offset: 0x1B542, size: 0x8, addend: 0x0, symName: __ZNKSt3__110unique_ptrINS_11__hash_nodeIiPvEENS_22__hash_node_destructorINS_9allocatorIS3_EEEEEptB7v160006Ev, symObjAddr: 0x7D10, symBinAddr: 0x10000A140, symSize: 0x20 }
  - { offsetInCU: 0x1B568, offset: 0x1B568, size: 0x8, addend: 0x0, symName: __ZNKSt3__110unique_ptrINS_11__hash_nodeIiPvEENS_22__hash_node_destructorINS_9allocatorIS3_EEEEE3getB7v160006Ev, symObjAddr: 0x7D30, symBinAddr: 0x10000A160, symSize: 0x20 }
  - { offsetInCU: 0x1B58E, offset: 0x1B58E, size: 0x8, addend: 0x0, symName: __ZNSt3__110unique_ptrINS_11__hash_nodeIiPvEENS_22__hash_node_destructorINS_9allocatorIS3_EEEEE7releaseB7v160006Ev, symObjAddr: 0x7D50, symBinAddr: 0x10000A180, symSize: 0x40 }
  - { offsetInCU: 0x1B5C3, offset: 0x1B5C3, size: 0x8, addend: 0x0, symName: __ZNSt3__110unique_ptrINS_11__hash_nodeIiPvEENS_22__hash_node_destructorINS_9allocatorIS3_EEEEED1B7v160006Ev, symObjAddr: 0x7D90, symBinAddr: 0x10000A1C0, symSize: 0x20 }
  - { offsetInCU: 0x1B5ED, offset: 0x1B5ED, size: 0x8, addend: 0x0, symName: __ZNSt3__115__hash_iteratorIPNS_11__hash_nodeIiPvEEEC1B7v160006EPNS_16__hash_node_baseIS4_EEPKv, symObjAddr: 0x7DB0, symBinAddr: 0x10000A1E0, symSize: 0x30 }
  - { offsetInCU: 0x1B641, offset: 0x1B641, size: 0x8, addend: 0x0, symName: __ZNSt3__14pairINS_15__hash_iteratorIPNS_11__hash_nodeIiPvEEEEbEC1B7v160006IS6_RbLS3_0EEEOT_OT0_, symObjAddr: 0x7DE0, symBinAddr: 0x10000A210, symSize: 0x30 }
  - { offsetInCU: 0x1B69F, offset: 0x1B69F, size: 0x8, addend: 0x0, symName: __ZNSt3__117__compressed_pairImNS_4hashIiEEE6secondB7v160006Ev, symObjAddr: 0x7E10, symBinAddr: 0x10000A240, symSize: 0x20 }
  - { offsetInCU: 0x1B6C5, offset: 0x1B6C5, size: 0x8, addend: 0x0, symName: __ZNSt3__122__compressed_pair_elemINS_4hashIiEELi1ELb1EE5__getB7v160006Ev, symObjAddr: 0x7E30, symBinAddr: 0x10000A260, symSize: 0x10 }
  - { offsetInCU: 0x1B6EB, offset: 0x1B6EB, size: 0x8, addend: 0x0, symName: __ZNSt3__117__compressed_pairIfNS_8equal_toIiEEE6secondB7v160006Ev, symObjAddr: 0x7E40, symBinAddr: 0x10000A270, symSize: 0x20 }
  - { offsetInCU: 0x1B711, offset: 0x1B711, size: 0x8, addend: 0x0, symName: __ZNSt3__122__compressed_pair_elemINS_8equal_toIiEELi1ELb1EE5__getB7v160006Ev, symObjAddr: 0x7E60, symBinAddr: 0x10000A290, symSize: 0x10 }
  - { offsetInCU: 0x1B737, offset: 0x1B737, size: 0x8, addend: 0x0, symName: __ZNSt3__116allocator_traitsINS_9allocatorINS_11__hash_nodeIiPvEEEEE8allocateB7v160006ERS5_m, symObjAddr: 0x7E70, symBinAddr: 0x10000A2A0, symSize: 0x30 }
  - { offsetInCU: 0x1B76A, offset: 0x1B76A, size: 0x8, addend: 0x0, symName: __ZNSt3__122__hash_node_destructorINS_9allocatorINS_11__hash_nodeIiPvEEEEEC1B7v160006ERS5_b, symObjAddr: 0x7EA0, symBinAddr: 0x10000A2D0, symSize: 0x40 }
  - { offsetInCU: 0x1B7B8, offset: 0x1B7B8, size: 0x8, addend: 0x0, symName: __ZNSt3__110unique_ptrINS_11__hash_nodeIiPvEENS_22__hash_node_destructorINS_9allocatorIS3_EEEEEC1B7v160006ILb1EvEEPS3_NS_16__dependent_typeINS_27__unique_ptr_deleter_sfinaeIS7_EEXT_EE20__good_rval_ref_typeE, symObjAddr: 0x7EE0, symBinAddr: 0x10000A310, symSize: 0x30 }
  - { offsetInCU: 0x1B809, offset: 0x1B809, size: 0x8, addend: 0x0, symName: __ZNSt3__116allocator_traitsINS_9allocatorINS_11__hash_nodeIiPvEEEEE9constructB7v160006IiJiEvvEEvRS5_PT_DpOT0_, symObjAddr: 0x7F10, symBinAddr: 0x10000A340, symSize: 0x30 }
  - { offsetInCU: 0x1B85E, offset: 0x1B85E, size: 0x8, addend: 0x0, symName: __ZNSt3__110unique_ptrINS_11__hash_nodeIiPvEENS_22__hash_node_destructorINS_9allocatorIS3_EEEEE11get_deleterB7v160006Ev, symObjAddr: 0x7F40, symBinAddr: 0x10000A370, symSize: 0x20 }
  - { offsetInCU: 0x1B884, offset: 0x1B884, size: 0x8, addend: 0x0, symName: __ZNSt3__19allocatorINS_11__hash_nodeIiPvEEE8allocateB7v160006Em, symObjAddr: 0x7F60, symBinAddr: 0x10000A390, symSize: 0x50 }
  - { offsetInCU: 0x1B8C3, offset: 0x1B8C3, size: 0x8, addend: 0x0, symName: __ZNSt3__116allocator_traitsINS_9allocatorINS_11__hash_nodeIiPvEEEEE8max_sizeB7v160006IS5_vvEEmRKS5_, symObjAddr: 0x7FB0, symBinAddr: 0x10000A3E0, symSize: 0x30 }
  - { offsetInCU: 0x1B8EF, offset: 0x1B8EF, size: 0x8, addend: 0x0, symName: __ZNSt3__122__hash_node_destructorINS_9allocatorINS_11__hash_nodeIiPvEEEEEC2B7v160006ERS5_b, symObjAddr: 0x7FE0, symBinAddr: 0x10000A410, symSize: 0x30 }
  - { offsetInCU: 0x1B937, offset: 0x1B937, size: 0x8, addend: 0x0, symName: __ZNSt3__110unique_ptrINS_11__hash_nodeIiPvEENS_22__hash_node_destructorINS_9allocatorIS3_EEEEEC2B7v160006ILb1EvEEPS3_NS_16__dependent_typeINS_27__unique_ptr_deleter_sfinaeIS7_EEXT_EE20__good_rval_ref_typeE, symObjAddr: 0x8010, symBinAddr: 0x10000A440, symSize: 0x40 }
  - { offsetInCU: 0x1B988, offset: 0x1B988, size: 0x8, addend: 0x0, symName: __ZNSt3__117__compressed_pairIPNS_11__hash_nodeIiPvEENS_22__hash_node_destructorINS_9allocatorIS3_EEEEEC1B7v160006IRS4_S8_EEOT_OT0_, symObjAddr: 0x8050, symBinAddr: 0x10000A480, symSize: 0x30 }
  - { offsetInCU: 0x1B9E0, offset: 0x1B9E0, size: 0x8, addend: 0x0, symName: __ZNSt3__117__compressed_pairIPNS_11__hash_nodeIiPvEENS_22__hash_node_destructorINS_9allocatorIS3_EEEEEC2B7v160006IRS4_S8_EEOT_OT0_, symObjAddr: 0x8080, symBinAddr: 0x10000A4B0, symSize: 0x40 }
  - { offsetInCU: 0x1BA38, offset: 0x1BA38, size: 0x8, addend: 0x0, symName: __ZNSt3__122__compressed_pair_elemIPNS_11__hash_nodeIiPvEELi0ELb0EEC2B7v160006IRS4_vEEOT_, symObjAddr: 0x80C0, symBinAddr: 0x10000A4F0, symSize: 0x20 }
  - { offsetInCU: 0x1BA7A, offset: 0x1BA7A, size: 0x8, addend: 0x0, symName: __ZNSt3__122__compressed_pair_elemINS_22__hash_node_destructorINS_9allocatorINS_11__hash_nodeIiPvEEEEEELi1ELb0EEC2B7v160006IS7_vEEOT_, symObjAddr: 0x80E0, symBinAddr: 0x10000A510, symSize: 0x30 }
  - { offsetInCU: 0x1BABC, offset: 0x1BABC, size: 0x8, addend: 0x0, symName: __ZNSt3__117__compressed_pairIPNS_11__hash_nodeIiPvEENS_22__hash_node_destructorINS_9allocatorIS3_EEEEE6secondB7v160006Ev, symObjAddr: 0x8140, symBinAddr: 0x10000A570, symSize: 0x20 }
  - { offsetInCU: 0x1BAE2, offset: 0x1BAE2, size: 0x8, addend: 0x0, symName: __ZNSt3__122__compressed_pair_elemINS_22__hash_node_destructorINS_9allocatorINS_11__hash_nodeIiPvEEEEEELi1ELb0EE5__getB7v160006Ev, symObjAddr: 0x8160, symBinAddr: 0x10000A590, symSize: 0x10 }
  - { offsetInCU: 0x1BB08, offset: 0x1BB08, size: 0x8, addend: 0x0, symName: __ZNSt3__117__compressed_pairImNS_4hashIiEEE5firstB7v160006Ev, symObjAddr: 0x8170, symBinAddr: 0x10000A5A0, symSize: 0x20 }
  - { offsetInCU: 0x1BB2E, offset: 0x1BB2E, size: 0x8, addend: 0x0, symName: __ZNSt3__117__compressed_pairIfNS_8equal_toIiEEE5firstB7v160006Ev, symObjAddr: 0x8190, symBinAddr: 0x10000A5C0, symSize: 0x20 }
  - { offsetInCU: 0x1BB54, offset: 0x1BB54, size: 0x8, addend: 0x0, symName: __ZNSt3__122__compressed_pair_elemIfLi0ELb0EE5__getB7v160006Ev, symObjAddr: 0x81B0, symBinAddr: 0x10000A5E0, symSize: 0x10 }
  - { offsetInCU: 0x1BB7A, offset: 0x1BB7A, size: 0x8, addend: 0x0, symName: __ZNSt3__112__hash_tableIiNS_4hashIiEENS_8equal_toIiEENS_9allocatorIiEEE8__rehashILb1EEEvm, symObjAddr: 0x81C0, symBinAddr: 0x10000A5F0, symSize: 0x230 }
  - { offsetInCU: 0x1BBCA, offset: 0x1BBCA, size: 0x8, addend: 0x0, symName: __ZNSt3__112__hash_tableIiNS_4hashIiEENS_8equal_toIiEENS_9allocatorIiEEE11__do_rehashILb1EEEvm, symObjAddr: 0x83F0, symBinAddr: 0x10000A820, symSize: 0x260 }
  - { offsetInCU: 0x1BCAD, offset: 0x1BCAD, size: 0x8, addend: 0x0, symName: __ZNSt3__110unique_ptrIA_PNS_16__hash_node_baseIPNS_11__hash_nodeIiPvEEEENS_25__bucket_list_deallocatorINS_9allocatorIS7_EEEEE11get_deleterB7v160006Ev, symObjAddr: 0x86C0, symBinAddr: 0x10000AAF0, symSize: 0x20 }
  - { offsetInCU: 0x1BCD3, offset: 0x1BCD3, size: 0x8, addend: 0x0, symName: __ZNSt3__110unique_ptrIA_PNS_16__hash_node_baseIPNS_11__hash_nodeIiPvEEEENS_25__bucket_list_deallocatorINS_9allocatorIS7_EEEEE5resetB7v160006IPS7_EENS_9enable_ifIXsr28_CheckArrayPointerConversionIT_EE5valueEvE4typeESH_, symObjAddr: 0x86E0, symBinAddr: 0x10000AB10, symSize: 0x70 }
  - { offsetInCU: 0x1BD20, offset: 0x1BD20, size: 0x8, addend: 0x0, symName: __ZNSt3__116allocator_traitsINS_9allocatorIPNS_16__hash_node_baseIPNS_11__hash_nodeIiPvEEEEEEE8allocateB7v160006ERS9_m, symObjAddr: 0x8750, symBinAddr: 0x10000AB80, symSize: 0x30 }
  - { offsetInCU: 0x1BD53, offset: 0x1BD53, size: 0x8, addend: 0x0, symName: __ZNSt3__19allocatorIPNS_16__hash_node_baseIPNS_11__hash_nodeIiPvEEEEE8allocateB7v160006Em, symObjAddr: 0x8780, symBinAddr: 0x10000ABB0, symSize: 0x50 }
  - { offsetInCU: 0x1BD92, offset: 0x1BD92, size: 0x8, addend: 0x0, symName: __ZNSt3__116allocator_traitsINS_9allocatorIPNS_16__hash_node_baseIPNS_11__hash_nodeIiPvEEEEEEE8max_sizeB7v160006IS9_vvEEmRKS9_, symObjAddr: 0x87D0, symBinAddr: 0x10000AC00, symSize: 0x20 }
  - { offsetInCU: 0x1BDBE, offset: 0x1BDBE, size: 0x8, addend: 0x0, symName: __ZNKSt3__117__compressed_pairIPNS_11__hash_nodeIiPvEENS_22__hash_node_destructorINS_9allocatorIS3_EEEEE5firstB7v160006Ev, symObjAddr: 0x8810, symBinAddr: 0x10000AC40, symSize: 0x20 }
  - { offsetInCU: 0x1BDE4, offset: 0x1BDE4, size: 0x8, addend: 0x0, symName: __ZNKSt3__122__compressed_pair_elemIPNS_11__hash_nodeIiPvEELi0ELb0EE5__getB7v160006Ev, symObjAddr: 0x8830, symBinAddr: 0x10000AC60, symSize: 0x10 }
  - { offsetInCU: 0x1BE0A, offset: 0x1BE0A, size: 0x8, addend: 0x0, symName: __ZNSt3__117__compressed_pairIPNS_11__hash_nodeIiPvEENS_22__hash_node_destructorINS_9allocatorIS3_EEEEE5firstB7v160006Ev, symObjAddr: 0x8840, symBinAddr: 0x10000AC70, symSize: 0x20 }
  - { offsetInCU: 0x1BE30, offset: 0x1BE30, size: 0x8, addend: 0x0, symName: __ZNSt3__122__compressed_pair_elemIPNS_11__hash_nodeIiPvEELi0ELb0EE5__getB7v160006Ev, symObjAddr: 0x8860, symBinAddr: 0x10000AC90, symSize: 0x10 }
  - { offsetInCU: 0x1BE56, offset: 0x1BE56, size: 0x8, addend: 0x0, symName: __ZNSt3__110unique_ptrINS_11__hash_nodeIiPvEENS_22__hash_node_destructorINS_9allocatorIS3_EEEEED2B7v160006Ev, symObjAddr: 0x8870, symBinAddr: 0x10000ACA0, symSize: 0x20 }
  - { offsetInCU: 0x1BE80, offset: 0x1BE80, size: 0x8, addend: 0x0, symName: __ZNSt3__110unique_ptrINS_11__hash_nodeIiPvEENS_22__hash_node_destructorINS_9allocatorIS3_EEEEE5resetB7v160006EPS3_, symObjAddr: 0x8890, symBinAddr: 0x10000ACC0, symSize: 0x70 }
  - { offsetInCU: 0x1BEC4, offset: 0x1BEC4, size: 0x8, addend: 0x0, symName: __ZNSt3__122__hash_node_destructorINS_9allocatorINS_11__hash_nodeIiPvEEEEEclB7v160006EPS4_, symObjAddr: 0x8900, symBinAddr: 0x10000AD30, symSize: 0x80 }
  - { offsetInCU: 0x1BEF9, offset: 0x1BEF9, size: 0x8, addend: 0x0, symName: __ZNSt3__115__hash_iteratorIPNS_11__hash_nodeIiPvEEEC2B7v160006EPNS_16__hash_node_baseIS4_EEPKv, symObjAddr: 0x8980, symBinAddr: 0x10000ADB0, symSize: 0x20 }
  - { offsetInCU: 0x1BF41, offset: 0x1BF41, size: 0x8, addend: 0x0, symName: __ZNSt3__14pairINS_15__hash_iteratorIPNS_11__hash_nodeIiPvEEEEbEC2B7v160006IS6_RbLS3_0EEEOT_OT0_, symObjAddr: 0x89A0, symBinAddr: 0x10000ADD0, symSize: 0x30 }
  - { offsetInCU: 0x1BF9F, offset: 0x1BF9F, size: 0x8, addend: 0x0, symName: __ZNSt3__14pairINS_21__hash_const_iteratorIPNS_11__hash_nodeIiPvEEEEbEC2B7v160006INS_15__hash_iteratorIS5_EEbLS3_0EEEONS0_IT_T0_EE, symObjAddr: 0x89D0, symBinAddr: 0x10000AE00, symSize: 0x40 }
  - { offsetInCU: 0x1BFF0, offset: 0x1BFF0, size: 0x8, addend: 0x0, symName: __ZNSt3__121__hash_const_iteratorIPNS_11__hash_nodeIiPvEEEC1B7v160006ERKNS_15__hash_iteratorIS4_EE, symObjAddr: 0x8A10, symBinAddr: 0x10000AE40, symSize: 0x30 }
  - { offsetInCU: 0x1C029, offset: 0x1C029, size: 0x8, addend: 0x0, symName: __ZNSt3__121__hash_const_iteratorIPNS_11__hash_nodeIiPvEEEC2B7v160006ERKNS_15__hash_iteratorIS4_EE, symObjAddr: 0x8A40, symBinAddr: 0x10000AE70, symSize: 0x20 }
  - { offsetInCU: 0x1C062, offset: 0x1C062, size: 0x8, addend: 0x0, symName: __ZNKSt3__16vectorI4EdgeNS_9allocatorIS1_EEE5emptyB7v160006Ev, symObjAddr: 0x8A60, symBinAddr: 0x10000AE90, symSize: 0x20 }
  - { offsetInCU: 0x1C088, offset: 0x1C088, size: 0x8, addend: 0x0, symName: __ZNKSt3__112__hash_tableIiNS_4hashIiEENS_8equal_toIiEENS_9allocatorIiEEE4sizeB7v160006Ev, symObjAddr: 0x8A80, symBinAddr: 0x10000AEB0, symSize: 0x30 }
  - { offsetInCU: 0x1C0AE, offset: 0x1C0AE, size: 0x8, addend: 0x0, symName: __ZNKSt3__117__compressed_pairImNS_4hashIiEEE5firstB7v160006Ev, symObjAddr: 0x8AB0, symBinAddr: 0x10000AEE0, symSize: 0x20 }
  - { offsetInCU: 0x1C0D4, offset: 0x1C0D4, size: 0x8, addend: 0x0, symName: '__ZNKSt3__114priority_queueI4EdgeNS_6vectorIS1_NS_9allocatorIS1_EEEEZ24GetMaxSpanningTreeWeightRKNS2_IS5_NS3_IS5_EEEEE3$_0E3topB7v160006Ev', symObjAddr: 0x8AD0, symBinAddr: 0x10000AF00, symSize: 0x20 }
  - { offsetInCU: 0x1C0FA, offset: 0x1C0FA, size: 0x8, addend: 0x0, symName: '__ZNSt3__114priority_queueI4EdgeNS_6vectorIS1_NS_9allocatorIS1_EEEEZ24GetMaxSpanningTreeWeightRKNS2_IS5_NS3_IS5_EEEEE3$_0E3popEv', symObjAddr: 0x8AF0, symBinAddr: 0x10000AF20, symSize: 0x50 }
  - { offsetInCU: 0x1C122, offset: 0x1C122, size: 0x8, addend: 0x0, symName: __ZNSt3__18optionalI4EdgeEC1B7v160006IS1_Li0EEEOT_, symObjAddr: 0x8B40, symBinAddr: 0x10000AF70, symSize: 0x30 }
  - { offsetInCU: 0x1C16A, offset: 0x1C16A, size: 0x8, addend: 0x0, symName: __ZNSt3__18optionalI4EdgeEC1B7v160006ENS_9nullopt_tE, symObjAddr: 0x8B70, symBinAddr: 0x10000AFA0, symSize: 0x20 }
  - { offsetInCU: 0x1C1A0, offset: 0x1C1A0, size: 0x8, addend: 0x0, symName: __ZNKSt3__16vectorI4EdgeNS_9allocatorIS1_EEE5frontB7v160006Ev, symObjAddr: 0x8B90, symBinAddr: 0x10000AFC0, symSize: 0x20 }
  - { offsetInCU: 0x1C1C6, offset: 0x1C1C6, size: 0x8, addend: 0x0, symName: __ZNSt3__16vectorI4EdgeNS_9allocatorIS1_EEE8pop_backEv, symObjAddr: 0x8C00, symBinAddr: 0x10000B030, symSize: 0x30 }
  - { offsetInCU: 0x1C1EE, offset: 0x1C1EE, size: 0x8, addend: 0x0, symName: __ZNSt3__111__wrap_iterIP4EdgeEppB7v160006Ev, symObjAddr: 0x8EE0, symBinAddr: 0x10000B310, symSize: 0x20 }
  - { offsetInCU: 0x1C214, offset: 0x1C214, size: 0x8, addend: 0x0, symName: __ZNSt3__16vectorI4EdgeNS_9allocatorIS1_EEE17__destruct_at_endB7v160006EPS1_, symObjAddr: 0x8F00, symBinAddr: 0x10000B330, symSize: 0x60 }
  - { offsetInCU: 0x1C258, offset: 0x1C258, size: 0x8, addend: 0x0, symName: __ZNSt3__16vectorI4EdgeNS_9allocatorIS1_EEE27__invalidate_iterators_pastB7v160006EPS1_, symObjAddr: 0x8F60, symBinAddr: 0x10000B390, symSize: 0x10 }
  - { offsetInCU: 0x1C28F, offset: 0x1C28F, size: 0x8, addend: 0x0, symName: __ZNKSt3__16vectorI4EdgeNS_9allocatorIS1_EEE17__annotate_shrinkB7v160006Em, symObjAddr: 0x8F70, symBinAddr: 0x10000B3A0, symSize: 0xA0 }
  - { offsetInCU: 0x1C2C4, offset: 0x1C2C4, size: 0x8, addend: 0x0, symName: __ZNSt3__18optionalI4EdgeEC2B7v160006IS1_Li0EEEOT_, symObjAddr: 0x9010, symBinAddr: 0x10000B440, symSize: 0x30 }
  - { offsetInCU: 0x1C312, offset: 0x1C312, size: 0x8, addend: 0x0, symName: __ZNSt3__127__optional_move_assign_baseI4EdgeLb1EECI2NS_24__optional_destruct_baseIS1_Lb1EEEIJS1_EEENS_10in_place_tEDpOT_, symObjAddr: 0x9040, symBinAddr: 0x10000B470, symSize: 0x30 }
  - { offsetInCU: 0x1C357, offset: 0x1C357, size: 0x8, addend: 0x0, symName: __ZNSt3__127__optional_copy_assign_baseI4EdgeLb1EECI2NS_24__optional_destruct_baseIS1_Lb1EEEIJS1_EEENS_10in_place_tEDpOT_, symObjAddr: 0x9070, symBinAddr: 0x10000B4A0, symSize: 0x30 }
  - { offsetInCU: 0x1C39C, offset: 0x1C39C, size: 0x8, addend: 0x0, symName: __ZNSt3__120__optional_move_baseI4EdgeLb1EECI2NS_24__optional_destruct_baseIS1_Lb1EEEIJS1_EEENS_10in_place_tEDpOT_, symObjAddr: 0x90A0, symBinAddr: 0x10000B4D0, symSize: 0x30 }
  - { offsetInCU: 0x1C3E1, offset: 0x1C3E1, size: 0x8, addend: 0x0, symName: __ZNSt3__120__optional_copy_baseI4EdgeLb1EECI2NS_24__optional_destruct_baseIS1_Lb1EEEIJS1_EEENS_10in_place_tEDpOT_, symObjAddr: 0x90D0, symBinAddr: 0x10000B500, symSize: 0x30 }
  - { offsetInCU: 0x1C420, offset: 0x1C420, size: 0x8, addend: 0x0, symName: __ZNSt3__123__optional_storage_baseI4EdgeLb0EECI2NS_24__optional_destruct_baseIS1_Lb1EEEIJS1_EEENS_10in_place_tEDpOT_, symObjAddr: 0x9100, symBinAddr: 0x10000B530, symSize: 0x30 }
  - { offsetInCU: 0x1C45F, offset: 0x1C45F, size: 0x8, addend: 0x0, symName: __ZNSt3__124__optional_destruct_baseI4EdgeLb1EEC2B7v160006IJS1_EEENS_10in_place_tEDpOT_, symObjAddr: 0x9130, symBinAddr: 0x10000B560, symSize: 0x30 }
  - { offsetInCU: 0x1C4AF, offset: 0x1C4AF, size: 0x8, addend: 0x0, symName: __ZNSt3__18optionalI4EdgeEC2B7v160006ENS_9nullopt_tE, symObjAddr: 0x9160, symBinAddr: 0x10000B590, symSize: 0x20 }
  - { offsetInCU: 0x1C4E5, offset: 0x1C4E5, size: 0x8, addend: 0x0, symName: __ZNSt3__127__optional_move_assign_baseI4EdgeLb1EEC2Ev, symObjAddr: 0x9180, symBinAddr: 0x10000B5B0, symSize: 0x20 }
  - { offsetInCU: 0x1C512, offset: 0x1C512, size: 0x8, addend: 0x0, symName: __ZNSt3__127__optional_copy_assign_baseI4EdgeLb1EEC2Ev, symObjAddr: 0x91A0, symBinAddr: 0x10000B5D0, symSize: 0x20 }
  - { offsetInCU: 0x1C53F, offset: 0x1C53F, size: 0x8, addend: 0x0, symName: __ZNSt3__120__optional_move_baseI4EdgeLb1EEC2Ev, symObjAddr: 0x91C0, symBinAddr: 0x10000B5F0, symSize: 0x20 }
  - { offsetInCU: 0x1C56C, offset: 0x1C56C, size: 0x8, addend: 0x0, symName: __ZNSt3__120__optional_copy_baseI4EdgeLb1EEC2Ev, symObjAddr: 0x91E0, symBinAddr: 0x10000B610, symSize: 0x20 }
  - { offsetInCU: 0x1C599, offset: 0x1C599, size: 0x8, addend: 0x0, symName: __ZNSt3__123__optional_storage_baseI4EdgeLb0EEC2Ev, symObjAddr: 0x9200, symBinAddr: 0x10000B630, symSize: 0x20 }
  - { offsetInCU: 0x1C5C6, offset: 0x1C5C6, size: 0x8, addend: 0x0, symName: __ZNSt3__124__optional_destruct_baseI4EdgeLb1EEC2B7v160006Ev, symObjAddr: 0x9220, symBinAddr: 0x10000B650, symSize: 0x20 }
  - { offsetInCU: 0x1C5F0, offset: 0x1C5F0, size: 0x8, addend: 0x0, symName: __ZNSt3__112__hash_tableIiNS_4hashIiEENS_8equal_toIiEENS_9allocatorIiEEE15__insert_uniqueB7v160006ERKi, symObjAddr: 0x9240, symBinAddr: 0x10000B670, symSize: 0x50 }
  - { offsetInCU: 0x1C625, offset: 0x1C625, size: 0x8, addend: 0x0, symName: __ZNSt3__112__hash_tableIiNS_4hashIiEENS_8equal_toIiEENS_9allocatorIiEEE25__emplace_unique_key_argsIiJRKiEEENS_4pairINS_15__hash_iteratorIPNS_11__hash_nodeIiPvEEEEbEERKT_DpOT0_, symObjAddr: 0x9290, symBinAddr: 0x10000B6C0, symSize: 0x5A0 }
  - { offsetInCU: 0x1C703, offset: 0x1C703, size: 0x8, addend: 0x0, symName: __ZNSt3__112__hash_tableIiNS_4hashIiEENS_8equal_toIiEENS_9allocatorIiEEE21__construct_node_hashIRKiJEEENS_10unique_ptrINS_11__hash_nodeIiPvEENS_22__hash_node_destructorINS5_ISE_EEEEEEmOT_DpOT0_, symObjAddr: 0x9830, symBinAddr: 0x10000BC60, symSize: 0x130 }
  - { offsetInCU: 0x1C776, offset: 0x1C776, size: 0x8, addend: 0x0, symName: __ZNSt3__116allocator_traitsINS_9allocatorINS_11__hash_nodeIiPvEEEEE9constructB7v160006IiJRKiEvvEEvRS5_PT_DpOT0_, symObjAddr: 0x9960, symBinAddr: 0x10000BD90, symSize: 0x30 }
  - { offsetInCU: 0x1C7CB, offset: 0x1C7CB, size: 0x8, addend: 0x0, symName: __ZNSt3__15stackIiNS_5dequeIiNS_9allocatorIiEEEEEC2B7v160006Ev, symObjAddr: 0x9990, symBinAddr: 0x10000BDC0, symSize: 0x20 }
  - { offsetInCU: 0x1C7F5, offset: 0x1C7F5, size: 0x8, addend: 0x0, symName: __ZNSt3__15dequeIiNS_9allocatorIiEEEC1B7v160006Ev, symObjAddr: 0x99B0, symBinAddr: 0x10000BDE0, symSize: 0x20 }
  - { offsetInCU: 0x1C81F, offset: 0x1C81F, size: 0x8, addend: 0x0, symName: __ZNSt3__15dequeIiNS_9allocatorIiEEEC2B7v160006Ev, symObjAddr: 0x99D0, symBinAddr: 0x10000BE00, symSize: 0x50 }
  - { offsetInCU: 0x1C849, offset: 0x1C849, size: 0x8, addend: 0x0, symName: __ZNSt3__114__split_bufferIPiNS_9allocatorIS1_EEEC1Ev, symObjAddr: 0x9A20, symBinAddr: 0x10000BE50, symSize: 0x20 }
  - { offsetInCU: 0x1C875, offset: 0x1C875, size: 0x8, addend: 0x0, symName: __ZNSt3__117__compressed_pairImNS_9allocatorIiEEEC1B7v160006IiNS_18__default_init_tagEEEOT_OT0_, symObjAddr: 0x9A40, symBinAddr: 0x10000BE70, symSize: 0x30 }
  - { offsetInCU: 0x1C8CD, offset: 0x1C8CD, size: 0x8, addend: 0x0, symName: __ZNSt3__114__split_bufferIPiNS_9allocatorIS1_EEEC2Ev, symObjAddr: 0x9A70, symBinAddr: 0x10000BEA0, symSize: 0x60 }
  - { offsetInCU: 0x1C8F9, offset: 0x1C8F9, size: 0x8, addend: 0x0, symName: __ZNSt3__117__compressed_pairIPPiNS_9allocatorIS1_EEEC1B7v160006IDnNS_18__default_init_tagEEEOT_OT0_, symObjAddr: 0x9AD0, symBinAddr: 0x10000BF00, symSize: 0x30 }
  - { offsetInCU: 0x1C951, offset: 0x1C951, size: 0x8, addend: 0x0, symName: __ZNSt3__117__compressed_pairIPPiNS_9allocatorIS1_EEEC2B7v160006IDnNS_18__default_init_tagEEEOT_OT0_, symObjAddr: 0x9B00, symBinAddr: 0x10000BF30, symSize: 0x40 }
  - { offsetInCU: 0x1C9A9, offset: 0x1C9A9, size: 0x8, addend: 0x0, symName: __ZNSt3__122__compressed_pair_elemIPPiLi0ELb0EEC2B7v160006IDnvEEOT_, symObjAddr: 0x9B40, symBinAddr: 0x10000BF70, symSize: 0x20 }
  - { offsetInCU: 0x1C9EB, offset: 0x1C9EB, size: 0x8, addend: 0x0, symName: __ZNSt3__122__compressed_pair_elemINS_9allocatorIPiEELi1ELb1EEC2B7v160006ENS_18__default_init_tagE, symObjAddr: 0x9B60, symBinAddr: 0x10000BF90, symSize: 0x20 }
  - { offsetInCU: 0x1CA20, offset: 0x1CA20, size: 0x8, addend: 0x0, symName: __ZNSt3__19allocatorIPiEC2B7v160006Ev, symObjAddr: 0x9B80, symBinAddr: 0x10000BFB0, symSize: 0x20 }
  - { offsetInCU: 0x1CA4A, offset: 0x1CA4A, size: 0x8, addend: 0x0, symName: __ZNSt3__116__non_trivial_ifILb1ENS_9allocatorIPiEEEC2B7v160006Ev, symObjAddr: 0x9BA0, symBinAddr: 0x10000BFD0, symSize: 0x10 }
  - { offsetInCU: 0x1CA74, offset: 0x1CA74, size: 0x8, addend: 0x0, symName: __ZNSt3__117__compressed_pairImNS_9allocatorIiEEEC2B7v160006IiNS_18__default_init_tagEEEOT_OT0_, symObjAddr: 0x9BB0, symBinAddr: 0x10000BFE0, symSize: 0x40 }
  - { offsetInCU: 0x1CACC, offset: 0x1CACC, size: 0x8, addend: 0x0, symName: __ZNSt3__15dequeIiNS_9allocatorIiEEE9push_backERKi, symObjAddr: 0x9BF0, symBinAddr: 0x10000C020, symSize: 0x90 }
  - { offsetInCU: 0x1CB12, offset: 0x1CB12, size: 0x8, addend: 0x0, symName: __ZNKSt3__15dequeIiNS_9allocatorIiEEE12__back_spareB7v160006Ev, symObjAddr: 0x9C80, symBinAddr: 0x10000C0B0, symSize: 0x50 }
  - { offsetInCU: 0x1CB38, offset: 0x1CB38, size: 0x8, addend: 0x0, symName: __ZNSt3__15dequeIiNS_9allocatorIiEEE19__add_back_capacityEv, symObjAddr: 0x9CD0, symBinAddr: 0x10000C100, symSize: 0x380 }
  - { offsetInCU: 0x1CBED, offset: 0x1CBED, size: 0x8, addend: 0x0, symName: __ZNKSt3__15dequeIiNS_9allocatorIiEEE10__capacityB7v160006Ev, symObjAddr: 0xA050, symBinAddr: 0x10000C480, symSize: 0x50 }
  - { offsetInCU: 0x1CC13, offset: 0x1CC13, size: 0x8, addend: 0x0, symName: __ZNKSt3__15dequeIiNS_9allocatorIiEEE13__front_spareB7v160006Ev, symObjAddr: 0xA0A0, symBinAddr: 0x10000C4D0, symSize: 0x20 }
  - { offsetInCU: 0x1CC39, offset: 0x1CC39, size: 0x8, addend: 0x0, symName: __ZNSt3__114__split_bufferIPiNS_9allocatorIS1_EEE9push_backB7v160006ERKS1_, symObjAddr: 0xA0C0, symBinAddr: 0x10000C4F0, symSize: 0x290 }
  - { offsetInCU: 0x1CCB1, offset: 0x1CCB1, size: 0x8, addend: 0x0, symName: __ZNKSt3__114__split_bufferIPiNS_9allocatorIS1_EEE12__back_spareB7v160006Ev, symObjAddr: 0xA350, symBinAddr: 0x10000C780, symSize: 0x40 }
  - { offsetInCU: 0x1CCD7, offset: 0x1CCD7, size: 0x8, addend: 0x0, symName: __ZNSt3__114__split_bufferIPiNS_9allocatorIS1_EEE9push_backEOS1_, symObjAddr: 0xA390, symBinAddr: 0x10000C7C0, symSize: 0x290 }
  - { offsetInCU: 0x1CD4F, offset: 0x1CD4F, size: 0x8, addend: 0x0, symName: __ZNSt3__116allocator_traitsINS_9allocatorIiEEE8allocateB7v160006ERS2_m, symObjAddr: 0xA620, symBinAddr: 0x10000CA50, symSize: 0x30 }
  - { offsetInCU: 0x1CD82, offset: 0x1CD82, size: 0x8, addend: 0x0, symName: __ZNSt3__114__split_bufferIPiNS_9allocatorIS1_EEE10push_frontEOS1_, symObjAddr: 0xA650, symBinAddr: 0x10000CA80, symSize: 0x270 }
  - { offsetInCU: 0x1CDFA, offset: 0x1CDFA, size: 0x8, addend: 0x0, symName: __ZNSt3__114__split_bufferIPiRNS_9allocatorIS1_EEEC1EmmS4_, symObjAddr: 0xA8C0, symBinAddr: 0x10000CCF0, symSize: 0x40 }
  - { offsetInCU: 0x1CE56, offset: 0x1CE56, size: 0x8, addend: 0x0, symName: __ZNSt3__122__allocator_destructorINS_9allocatorIiEEEC1B7v160006ERS2_m, symObjAddr: 0xA900, symBinAddr: 0x10000CD30, symSize: 0x30 }
  - { offsetInCU: 0x1CF15, offset: 0x1CF15, size: 0x8, addend: 0x0, symName: __ZNSt3__110unique_ptrIPiNS_22__allocator_destructorINS_9allocatorIiEEEEEC1B7v160006ILb1EvEES1_NS_16__dependent_typeINS_27__unique_ptr_deleter_sfinaeIS5_EEXT_EE20__good_rval_ref_typeE, symObjAddr: 0xA930, symBinAddr: 0x10000CD60, symSize: 0x30 }
  - { offsetInCU: 0x1CF66, offset: 0x1CF66, size: 0x8, addend: 0x0, symName: __ZNSt3__114__split_bufferIPiRNS_9allocatorIS1_EEE9push_backEOS1_, symObjAddr: 0xA960, symBinAddr: 0x10000CD90, symSize: 0x290 }
  - { offsetInCU: 0x1CFDE, offset: 0x1CFDE, size: 0x8, addend: 0x0, symName: __ZNKSt3__110unique_ptrIPiNS_22__allocator_destructorINS_9allocatorIiEEEEE3getB7v160006Ev, symObjAddr: 0xABF0, symBinAddr: 0x10000D020, symSize: 0x20 }
  - { offsetInCU: 0x1D004, offset: 0x1D004, size: 0x8, addend: 0x0, symName: __ZNSt3__110unique_ptrIPiNS_22__allocator_destructorINS_9allocatorIiEEEEE7releaseB7v160006Ev, symObjAddr: 0xAC10, symBinAddr: 0x10000D040, symSize: 0x40 }
  - { offsetInCU: 0x1D039, offset: 0x1D039, size: 0x8, addend: 0x0, symName: __ZNSt3__114__split_bufferIPiRNS_9allocatorIS1_EEE10push_frontERKS1_, symObjAddr: 0xAC50, symBinAddr: 0x10000D080, symSize: 0x270 }
  - { offsetInCU: 0x1D0B1, offset: 0x1D0B1, size: 0x8, addend: 0x0, symName: __ZNSt3__114__split_bufferIPiNS_9allocatorIS1_EEE9__end_capB7v160006Ev, symObjAddr: 0xAF00, symBinAddr: 0x10000D330, symSize: 0x20 }
  - { offsetInCU: 0x1D0D7, offset: 0x1D0D7, size: 0x8, addend: 0x0, symName: __ZNSt3__114__split_bufferIPiRNS_9allocatorIS1_EEE9__end_capB7v160006Ev, symObjAddr: 0xAF20, symBinAddr: 0x10000D350, symSize: 0x20 }
  - { offsetInCU: 0x1D0FD, offset: 0x1D0FD, size: 0x8, addend: 0x0, symName: __ZNSt3__110unique_ptrIPiNS_22__allocator_destructorINS_9allocatorIiEEEEED1B7v160006Ev, symObjAddr: 0xAF40, symBinAddr: 0x10000D370, symSize: 0x20 }
  - { offsetInCU: 0x1D127, offset: 0x1D127, size: 0x8, addend: 0x0, symName: __ZNSt3__114__split_bufferIPiRNS_9allocatorIS1_EEED1Ev, symObjAddr: 0xAF60, symBinAddr: 0x10000D390, symSize: 0x20 }
  - { offsetInCU: 0x1D153, offset: 0x1D153, size: 0x8, addend: 0x0, symName: __ZNSt3__114__split_bufferIPiRNS_9allocatorIS1_EEE18__construct_at_endINS_13move_iteratorIPS1_EEEENS_9enable_ifIXsr27__is_cpp17_forward_iteratorIT_EE5valueEvE4typeESB_SB_, symObjAddr: 0xAFC0, symBinAddr: 0x10000D3F0, symSize: 0x100 }
  - { offsetInCU: 0x1D1AF, offset: 0x1D1AF, size: 0x8, addend: 0x0, symName: __ZNSt3__113move_iteratorIPPiEC1B7v160006ES2_, symObjAddr: 0xB0C0, symBinAddr: 0x10000D4F0, symSize: 0x30 }
  - { offsetInCU: 0x1D1E7, offset: 0x1D1E7, size: 0x8, addend: 0x0, symName: __ZNSt3__116allocator_traitsINS_9allocatorIPiEEE9constructB7v160006IS2_JRKS2_EvvEEvRS3_PT_DpOT0_, symObjAddr: 0xB0F0, symBinAddr: 0x10000D520, symSize: 0x30 }
  - { offsetInCU: 0x1D26A, offset: 0x1D26A, size: 0x8, addend: 0x0, symName: __ZNKSt3__114__move_trivialclB7v160006IPiS2_Li0EEENS_4pairIPT_PT0_EES5_S5_S7_, symObjAddr: 0xB290, symBinAddr: 0x10000D6C0, symSize: 0x40 }
  - { offsetInCU: 0x1D2D2, offset: 0x1D2D2, size: 0x8, addend: 0x0, symName: __ZNSt3__119__unwrap_range_implIPPiS2_E8__unwrapB7v160006ES2_S2_, symObjAddr: 0xB390, symBinAddr: 0x10000D7C0, symSize: 0x50 }
  - { offsetInCU: 0x1D309, offset: 0x1D309, size: 0x8, addend: 0x0, symName: __ZNSt3__14pairIPPiS2_EC1B7v160006IS2_S2_LPv0EEEOT_OT0_, symObjAddr: 0xB3E0, symBinAddr: 0x10000D810, symSize: 0x30 }
  - { offsetInCU: 0x1D367, offset: 0x1D367, size: 0x8, addend: 0x0, symName: __ZNSt3__14pairIPPiS2_EC2B7v160006IS2_S2_LPv0EEEOT_OT0_, symObjAddr: 0xB410, symBinAddr: 0x10000D840, symSize: 0x30 }
  - { offsetInCU: 0x1D3C5, offset: 0x1D3C5, size: 0x8, addend: 0x0, symName: __ZNSt3__14pairIPPiS2_EC1B7v160006IRS2_S2_LPv0EEEOT_OT0_, symObjAddr: 0xB4E0, symBinAddr: 0x10000D910, symSize: 0x30 }
  - { offsetInCU: 0x1D423, offset: 0x1D423, size: 0x8, addend: 0x0, symName: __ZNSt3__14pairIPPiS2_EC2B7v160006IRS2_S2_LPv0EEEOT_OT0_, symObjAddr: 0xB510, symBinAddr: 0x10000D940, symSize: 0x30 }
  - { offsetInCU: 0x1D481, offset: 0x1D481, size: 0x8, addend: 0x0, symName: __ZNSt3__118__unwrap_iter_implIPPiLb1EE8__unwrapB7v160006ES2_, symObjAddr: 0xB540, symBinAddr: 0x10000D970, symSize: 0x20 }
  - { offsetInCU: 0x1D4A4, offset: 0x1D4A4, size: 0x8, addend: 0x0, symName: __ZNSt3__119__unwrap_range_implIPPiS2_E8__rewrapB7v160006ES2_S2_, symObjAddr: 0xB560, symBinAddr: 0x10000D990, symSize: 0x30 }
  - { offsetInCU: 0x1D4D5, offset: 0x1D4D5, size: 0x8, addend: 0x0, symName: __ZNSt3__118__unwrap_iter_implIPPiLb1EE8__rewrapB7v160006ES2_S2_, symObjAddr: 0xB590, symBinAddr: 0x10000D9C0, symSize: 0x50 }
  - { offsetInCU: 0x1D512, offset: 0x1D512, size: 0x8, addend: 0x0, symName: __ZNSt3__114__split_bufferIPiRNS_9allocatorIS1_EEE21_ConstructTransactionC1B7v160006EPPS1_m, symObjAddr: 0xB620, symBinAddr: 0x10000DA50, symSize: 0x30 }
  - { offsetInCU: 0x1D55E, offset: 0x1D55E, size: 0x8, addend: 0x0, symName: __ZNSt3__116allocator_traitsINS_9allocatorIPiEEE9constructB7v160006IS2_JS2_EvvEEvRS3_PT_DpOT0_, symObjAddr: 0xB650, symBinAddr: 0x10000DA80, symSize: 0x30 }
  - { offsetInCU: 0x1D5B3, offset: 0x1D5B3, size: 0x8, addend: 0x0, symName: __ZNSt3__114__split_bufferIPiRNS_9allocatorIS1_EEE7__allocB7v160006Ev, symObjAddr: 0xB680, symBinAddr: 0x10000DAB0, symSize: 0x20 }
  - { offsetInCU: 0x1D5D9, offset: 0x1D5D9, size: 0x8, addend: 0x0, symName: __ZNKSt3__113move_iteratorIPPiEdeB7v160006Ev, symObjAddr: 0xB6A0, symBinAddr: 0x10000DAD0, symSize: 0x30 }
  - { offsetInCU: 0x1D5FF, offset: 0x1D5FF, size: 0x8, addend: 0x0, symName: __ZNSt3__113move_iteratorIPPiEppB7v160006Ev, symObjAddr: 0xB6D0, symBinAddr: 0x10000DB00, symSize: 0x20 }
  - { offsetInCU: 0x1D625, offset: 0x1D625, size: 0x8, addend: 0x0, symName: __ZNSt3__114__split_bufferIPiRNS_9allocatorIS1_EEE21_ConstructTransactionD1B7v160006Ev, symObjAddr: 0xB6F0, symBinAddr: 0x10000DB20, symSize: 0x20 }
  - { offsetInCU: 0x1D64F, offset: 0x1D64F, size: 0x8, addend: 0x0, symName: __ZNKRSt3__113move_iteratorIPPiE4baseB7v160006Ev, symObjAddr: 0xB780, symBinAddr: 0x10000DBB0, symSize: 0x10 }
  - { offsetInCU: 0x1D675, offset: 0x1D675, size: 0x8, addend: 0x0, symName: __ZNSt3__114__split_bufferIPiRNS_9allocatorIS1_EEE21_ConstructTransactionC2B7v160006EPPS1_m, symObjAddr: 0xB790, symBinAddr: 0x10000DBC0, symSize: 0x40 }
  - { offsetInCU: 0x1D6BB, offset: 0x1D6BB, size: 0x8, addend: 0x0, symName: __ZNSt3__117__compressed_pairIPPiRNS_9allocatorIS1_EEE6secondB7v160006Ev, symObjAddr: 0xB800, symBinAddr: 0x10000DC30, symSize: 0x20 }
  - { offsetInCU: 0x1D6E1, offset: 0x1D6E1, size: 0x8, addend: 0x0, symName: __ZNSt3__122__compressed_pair_elemIRNS_9allocatorIPiEELi1ELb0EE5__getB7v160006Ev, symObjAddr: 0xB820, symBinAddr: 0x10000DC50, symSize: 0x20 }
  - { offsetInCU: 0x1D70D, offset: 0x1D70D, size: 0x8, addend: 0x0, symName: __ZNKSt3__16ranges11__iter_move4__fnclB7v160006IRKPPiEEDTclsr3stdE4movedeclsr3stdE7forwardIT_Efp_EEEOS8_, symObjAddr: 0xB840, symBinAddr: 0x10000DC70, symSize: 0x20 }
  - { offsetInCU: 0x1D74A, offset: 0x1D74A, size: 0x8, addend: 0x0, symName: __ZNSt3__114__split_bufferIPiRNS_9allocatorIS1_EEE21_ConstructTransactionD2B7v160006Ev, symObjAddr: 0xB860, symBinAddr: 0x10000DC90, symSize: 0x20 }
  - { offsetInCU: 0x1D774, offset: 0x1D774, size: 0x8, addend: 0x0, symName: __ZNSt3__113move_iteratorIPPiEC2B7v160006ES2_, symObjAddr: 0xB880, symBinAddr: 0x10000DCB0, symSize: 0x20 }
  - { offsetInCU: 0x1D7B7, offset: 0x1D7B7, size: 0x8, addend: 0x0, symName: __ZNKSt3__123__move_backward_trivialclB7v160006IPiS2_Li0EEENS_4pairIPT_PT0_EES5_S5_S7_, symObjAddr: 0xBA40, symBinAddr: 0x10000DE70, symSize: 0x40 }
  - { offsetInCU: 0x1D81F, offset: 0x1D81F, size: 0x8, addend: 0x0, symName: __ZNSt3__14pairIPPiS2_EC1B7v160006IRS2_S5_LPv0EEEOT_OT0_, symObjAddr: 0xBB30, symBinAddr: 0x10000DF60, symSize: 0x30 }
  - { offsetInCU: 0x1D87D, offset: 0x1D87D, size: 0x8, addend: 0x0, symName: __ZNSt3__14pairIPPiS2_EC2B7v160006IRS2_S5_LPv0EEEOT_OT0_, symObjAddr: 0xBB60, symBinAddr: 0x10000DF90, symSize: 0x30 }
  - { offsetInCU: 0x1D8DB, offset: 0x1D8DB, size: 0x8, addend: 0x0, symName: __ZNSt3__114__split_bufferIPiRNS_9allocatorIS1_EEEC2EmmS4_, symObjAddr: 0xBB90, symBinAddr: 0x10000DFC0, symSize: 0xD0 }
  - { offsetInCU: 0x1D94E, offset: 0x1D94E, size: 0x8, addend: 0x0, symName: __ZNSt3__117__compressed_pairIPPiRNS_9allocatorIS1_EEEC1B7v160006IDnS5_EEOT_OT0_, symObjAddr: 0xBC60, symBinAddr: 0x10000E090, symSize: 0x30 }
  - { offsetInCU: 0x1D9A6, offset: 0x1D9A6, size: 0x8, addend: 0x0, symName: __ZNSt3__117__compressed_pairIPPiRNS_9allocatorIS1_EEEC2B7v160006IDnS5_EEOT_OT0_, symObjAddr: 0xBCD0, symBinAddr: 0x10000E100, symSize: 0x40 }
  - { offsetInCU: 0x1D9FE, offset: 0x1D9FE, size: 0x8, addend: 0x0, symName: __ZNSt3__122__compressed_pair_elemIRNS_9allocatorIPiEELi1ELb0EEC2B7v160006IS4_vEEOT_, symObjAddr: 0xBD10, symBinAddr: 0x10000E140, symSize: 0x20 }
  - { offsetInCU: 0x1DA40, offset: 0x1DA40, size: 0x8, addend: 0x0, symName: __ZNSt3__19allocatorIPiE17allocate_at_leastB7v160006Em, symObjAddr: 0xBD70, symBinAddr: 0x10000E1A0, symSize: 0x40 }
  - { offsetInCU: 0x1DA74, offset: 0x1DA74, size: 0x8, addend: 0x0, symName: __ZNSt3__19allocatorIPiE8allocateB7v160006Em, symObjAddr: 0xBDB0, symBinAddr: 0x10000E1E0, symSize: 0x50 }
  - { offsetInCU: 0x1DAB3, offset: 0x1DAB3, size: 0x8, addend: 0x0, symName: __ZNSt3__116allocator_traitsINS_9allocatorIPiEEE8max_sizeB7v160006IS3_vvEEmRKS3_, symObjAddr: 0xBE00, symBinAddr: 0x10000E230, symSize: 0x20 }
  - { offsetInCU: 0x1DADF, offset: 0x1DADF, size: 0x8, addend: 0x0, symName: __ZNSt3__122__allocator_destructorINS_9allocatorIiEEEC2B7v160006ERS2_m, symObjAddr: 0xBE20, symBinAddr: 0x10000E250, symSize: 0x30 }
  - { offsetInCU: 0x1DB25, offset: 0x1DB25, size: 0x8, addend: 0x0, symName: __ZNSt3__110unique_ptrIPiNS_22__allocator_destructorINS_9allocatorIiEEEEEC2B7v160006ILb1EvEES1_NS_16__dependent_typeINS_27__unique_ptr_deleter_sfinaeIS5_EEXT_EE20__good_rval_ref_typeE, symObjAddr: 0xBE50, symBinAddr: 0x10000E280, symSize: 0x40 }
  - { offsetInCU: 0x1DB76, offset: 0x1DB76, size: 0x8, addend: 0x0, symName: __ZNSt3__117__compressed_pairIPiNS_22__allocator_destructorINS_9allocatorIiEEEEEC1B7v160006IRS1_S5_EEOT_OT0_, symObjAddr: 0xBE90, symBinAddr: 0x10000E2C0, symSize: 0x30 }
  - { offsetInCU: 0x1DBCE, offset: 0x1DBCE, size: 0x8, addend: 0x0, symName: __ZNSt3__117__compressed_pairIPiNS_22__allocator_destructorINS_9allocatorIiEEEEEC2B7v160006IRS1_S5_EEOT_OT0_, symObjAddr: 0xBEC0, symBinAddr: 0x10000E2F0, symSize: 0x40 }
  - { offsetInCU: 0x1DC26, offset: 0x1DC26, size: 0x8, addend: 0x0, symName: __ZNSt3__122__compressed_pair_elemIPiLi0ELb0EEC2B7v160006IRS1_vEEOT_, symObjAddr: 0xBF00, symBinAddr: 0x10000E330, symSize: 0x20 }
  - { offsetInCU: 0x1DC68, offset: 0x1DC68, size: 0x8, addend: 0x0, symName: __ZNSt3__122__compressed_pair_elemINS_22__allocator_destructorINS_9allocatorIiEEEELi1ELb0EEC2B7v160006IS4_vEEOT_, symObjAddr: 0xBF20, symBinAddr: 0x10000E350, symSize: 0x30 }
  - { offsetInCU: 0x1DCAA, offset: 0x1DCAA, size: 0x8, addend: 0x0, symName: __ZNKSt3__117__compressed_pairIPiNS_22__allocator_destructorINS_9allocatorIiEEEEE5firstB7v160006Ev, symObjAddr: 0xBF50, symBinAddr: 0x10000E380, symSize: 0x20 }
  - { offsetInCU: 0x1DCD0, offset: 0x1DCD0, size: 0x8, addend: 0x0, symName: __ZNSt3__117__compressed_pairIPiNS_22__allocator_destructorINS_9allocatorIiEEEEE5firstB7v160006Ev, symObjAddr: 0xBF70, symBinAddr: 0x10000E3A0, symSize: 0x20 }
  - { offsetInCU: 0x1DCF6, offset: 0x1DCF6, size: 0x8, addend: 0x0, symName: __ZNSt3__117__compressed_pairIPPiNS_9allocatorIS1_EEE5firstB7v160006Ev, symObjAddr: 0xBF90, symBinAddr: 0x10000E3C0, symSize: 0x20 }
  - { offsetInCU: 0x1DD1C, offset: 0x1DD1C, size: 0x8, addend: 0x0, symName: __ZNSt3__122__compressed_pair_elemIPPiLi0ELb0EE5__getB7v160006Ev, symObjAddr: 0xBFB0, symBinAddr: 0x10000E3E0, symSize: 0x10 }
  - { offsetInCU: 0x1DD42, offset: 0x1DD42, size: 0x8, addend: 0x0, symName: __ZNSt3__117__compressed_pairIPPiRNS_9allocatorIS1_EEE5firstB7v160006Ev, symObjAddr: 0xBFC0, symBinAddr: 0x10000E3F0, symSize: 0x20 }
  - { offsetInCU: 0x1DD68, offset: 0x1DD68, size: 0x8, addend: 0x0, symName: __ZNSt3__110unique_ptrIPiNS_22__allocator_destructorINS_9allocatorIiEEEEED2B7v160006Ev, symObjAddr: 0xBFE0, symBinAddr: 0x10000E410, symSize: 0x20 }
  - { offsetInCU: 0x1DD92, offset: 0x1DD92, size: 0x8, addend: 0x0, symName: __ZNSt3__110unique_ptrIPiNS_22__allocator_destructorINS_9allocatorIiEEEEE5resetB7v160006ES1_, symObjAddr: 0xC000, symBinAddr: 0x10000E430, symSize: 0x70 }
  - { offsetInCU: 0x1DDD6, offset: 0x1DDD6, size: 0x8, addend: 0x0, symName: __ZNSt3__117__compressed_pairIPiNS_22__allocator_destructorINS_9allocatorIiEEEEE6secondB7v160006Ev, symObjAddr: 0xC070, symBinAddr: 0x10000E4A0, symSize: 0x20 }
  - { offsetInCU: 0x1DDFC, offset: 0x1DDFC, size: 0x8, addend: 0x0, symName: __ZNSt3__122__allocator_destructorINS_9allocatorIiEEEclB7v160006EPi, symObjAddr: 0xC090, symBinAddr: 0x10000E4C0, symSize: 0x30 }
  - { offsetInCU: 0x1DE30, offset: 0x1DE30, size: 0x8, addend: 0x0, symName: __ZNSt3__122__compressed_pair_elemINS_22__allocator_destructorINS_9allocatorIiEEEELi1ELb0EE5__getB7v160006Ev, symObjAddr: 0xC0C0, symBinAddr: 0x10000E4F0, symSize: 0x10 }
  - { offsetInCU: 0x1DE56, offset: 0x1DE56, size: 0x8, addend: 0x0, symName: __ZNSt3__114__split_bufferIPiRNS_9allocatorIS1_EEED2Ev, symObjAddr: 0xC0D0, symBinAddr: 0x10000E500, symSize: 0x70 }
  - { offsetInCU: 0x1DE82, offset: 0x1DE82, size: 0x8, addend: 0x0, symName: __ZNSt3__114__split_bufferIPiRNS_9allocatorIS1_EEE5clearB7v160006Ev, symObjAddr: 0xC140, symBinAddr: 0x10000E570, symSize: 0x20 }
  - { offsetInCU: 0x1DEA8, offset: 0x1DEA8, size: 0x8, addend: 0x0, symName: __ZNKSt3__114__split_bufferIPiRNS_9allocatorIS1_EEE8capacityB7v160006Ev, symObjAddr: 0xC160, symBinAddr: 0x10000E590, symSize: 0x30 }
  - { offsetInCU: 0x1DECE, offset: 0x1DECE, size: 0x8, addend: 0x0, symName: __ZNSt3__114__split_bufferIPiRNS_9allocatorIS1_EEE17__destruct_at_endB7v160006EPS1_, symObjAddr: 0xC190, symBinAddr: 0x10000E5C0, symSize: 0x30 }
  - { offsetInCU: 0x1DF02, offset: 0x1DF02, size: 0x8, addend: 0x0, symName: __ZNSt3__114__split_bufferIPiRNS_9allocatorIS1_EEE17__destruct_at_endB7v160006EPS1_NS_17integral_constantIbLb0EEE, symObjAddr: 0xC1C0, symBinAddr: 0x10000E5F0, symSize: 0x80 }
  - { offsetInCU: 0x1DF43, offset: 0x1DF43, size: 0x8, addend: 0x0, symName: __ZNKSt3__114__split_bufferIPiRNS_9allocatorIS1_EEE9__end_capB7v160006Ev, symObjAddr: 0xC240, symBinAddr: 0x10000E670, symSize: 0x20 }
  - { offsetInCU: 0x1DF69, offset: 0x1DF69, size: 0x8, addend: 0x0, symName: __ZNKSt3__117__compressed_pairIPPiRNS_9allocatorIS1_EEE5firstB7v160006Ev, symObjAddr: 0xC260, symBinAddr: 0x10000E690, symSize: 0x20 }
  - { offsetInCU: 0x1DF8F, offset: 0x1DF8F, size: 0x8, addend: 0x0, symName: __ZNKSt3__15dequeIiNS_9allocatorIiEEE5emptyB7v160006Ev, symObjAddr: 0xC280, symBinAddr: 0x10000E6B0, symSize: 0x30 }
  - { offsetInCU: 0x1DFB5, offset: 0x1DFB5, size: 0x8, addend: 0x0, symName: __ZNSt3__15dequeIiNS_9allocatorIiEEE4backEv, symObjAddr: 0xC2B0, symBinAddr: 0x10000E6E0, symSize: 0x60 }
  - { offsetInCU: 0x1DFEC, offset: 0x1DFEC, size: 0x8, addend: 0x0, symName: __ZNSt3__15dequeIiNS_9allocatorIiEEE8pop_backEv, symObjAddr: 0xC310, symBinAddr: 0x10000E740, symSize: 0xA0 }
  - { offsetInCU: 0x1E032, offset: 0x1E032, size: 0x8, addend: 0x0, symName: __ZNSt3__15dequeIiNS_9allocatorIiEEE25__maybe_remove_back_spareB7v160006Eb, symObjAddr: 0xC3B0, symBinAddr: 0x10000E7E0, symSize: 0xA0 }
  - { offsetInCU: 0x1E067, offset: 0x1E067, size: 0x8, addend: 0x0, symName: __ZNKSt3__15dequeIiNS_9allocatorIiEEE19__back_spare_blocksB7v160006Ev, symObjAddr: 0xC450, symBinAddr: 0x10000E880, symSize: 0x20 }
  - { offsetInCU: 0x1E08D, offset: 0x1E08D, size: 0x8, addend: 0x0, symName: __ZNSt3__114__split_bufferIPiNS_9allocatorIS1_EEE4backB7v160006Ev, symObjAddr: 0xC470, symBinAddr: 0x10000E8A0, symSize: 0x20 }
  - { offsetInCU: 0x1E0B3, offset: 0x1E0B3, size: 0x8, addend: 0x0, symName: __ZNSt3__114__split_bufferIPiNS_9allocatorIS1_EEE8pop_backB7v160006Ev, symObjAddr: 0xC490, symBinAddr: 0x10000E8C0, symSize: 0x30 }
  - { offsetInCU: 0x1E0D9, offset: 0x1E0D9, size: 0x8, addend: 0x0, symName: __ZNSt3__111char_traitsIcE6lengthEPKc, symObjAddr: 0xC6B0, symBinAddr: 0x10000EAE0, symSize: 0x30 }
  - { offsetInCU: 0x1E11F, offset: 0x1E11F, size: 0x8, addend: 0x0, symName: __ZNKSt3__113basic_ostreamIcNS_11char_traitsIcEEE6sentrycvbB7v160006Ev, symObjAddr: 0xC6E0, symBinAddr: 0x10000EB10, symSize: 0x20 }
  - { offsetInCU: 0x1E145, offset: 0x1E145, size: 0x8, addend: 0x0, symName: __ZNSt3__119ostreambuf_iteratorIcNS_11char_traitsIcEEEC1B7v160006ERNS_13basic_ostreamIcS2_EE, symObjAddr: 0xC920, symBinAddr: 0x10000ED50, symSize: 0x30 }
  - { offsetInCU: 0x1E17D, offset: 0x1E17D, size: 0x8, addend: 0x0, symName: __ZNKSt3__18ios_base5flagsB7v160006Ev, symObjAddr: 0xC950, symBinAddr: 0x10000ED80, symSize: 0x20 }
  - { offsetInCU: 0x1E1A5, offset: 0x1E1A5, size: 0x8, addend: 0x0, symName: __ZNKSt3__19basic_iosIcNS_11char_traitsIcEEE4fillB7v160006Ev, symObjAddr: 0xC970, symBinAddr: 0x10000EDA0, symSize: 0x70 }
  - { offsetInCU: 0x1E1CD, offset: 0x1E1CD, size: 0x8, addend: 0x0, symName: __ZNKSt3__119ostreambuf_iteratorIcNS_11char_traitsIcEEE6failedB7v160006Ev, symObjAddr: 0xC9E0, symBinAddr: 0x10000EE10, symSize: 0x20 }
  - { offsetInCU: 0x1E1F3, offset: 0x1E1F3, size: 0x8, addend: 0x0, symName: __ZNSt3__19basic_iosIcNS_11char_traitsIcEEE8setstateB7v160006Ej, symObjAddr: 0xCA00, symBinAddr: 0x10000EE30, symSize: 0x30 }
  - { offsetInCU: 0x1E228, offset: 0x1E228, size: 0x8, addend: 0x0, symName: __ZNKSt3__18ios_base5widthB7v160006Ev, symObjAddr: 0xCA30, symBinAddr: 0x10000EE60, symSize: 0x20 }
  - { offsetInCU: 0x1E250, offset: 0x1E250, size: 0x8, addend: 0x0, symName: __ZNSt3__115basic_streambufIcNS_11char_traitsIcEEE5sputnB7v160006EPKcl, symObjAddr: 0xCA50, symBinAddr: 0x10000EE80, symSize: 0x30 }
  - { offsetInCU: 0x1E292, offset: 0x1E292, size: 0x8, addend: 0x0, symName: __ZNSt3__112basic_stringIcNS_11char_traitsIcEENS_9allocatorIcEEEC1B7v160006Emc, symObjAddr: 0xCA80, symBinAddr: 0x10000EEB0, symSize: 0x30 }
  - { offsetInCU: 0x1E2DA, offset: 0x1E2DA, size: 0x8, addend: 0x0, symName: __ZNSt3__112basic_stringIcNS_11char_traitsIcEENS_9allocatorIcEEE4dataB7v160006Ev, symObjAddr: 0xCAB0, symBinAddr: 0x10000EEE0, symSize: 0x30 }
  - { offsetInCU: 0x1E300, offset: 0x1E300, size: 0x8, addend: 0x0, symName: __ZNSt3__18ios_base5widthB7v160006El, symObjAddr: 0xCAE0, symBinAddr: 0x10000EF10, symSize: 0x30 }
  - { offsetInCU: 0x1E346, offset: 0x1E346, size: 0x8, addend: 0x0, symName: __ZNSt3__112basic_stringIcNS_11char_traitsIcEENS_9allocatorIcEEEC2B7v160006Emc, symObjAddr: 0xCB10, symBinAddr: 0x10000EF40, symSize: 0x50 }
  - { offsetInCU: 0x1E38E, offset: 0x1E38E, size: 0x8, addend: 0x0, symName: __ZNSt3__117__compressed_pairINS_12basic_stringIcNS_11char_traitsIcEENS_9allocatorIcEEE5__repES5_EC1B7v160006INS_18__default_init_tagESA_EEOT_OT0_, symObjAddr: 0xCB60, symBinAddr: 0x10000EF90, symSize: 0x30 }
  - { offsetInCU: 0x1E3E6, offset: 0x1E3E6, size: 0x8, addend: 0x0, symName: __ZNSt3__117__compressed_pairINS_12basic_stringIcNS_11char_traitsIcEENS_9allocatorIcEEE5__repES5_EC2B7v160006INS_18__default_init_tagESA_EEOT_OT0_, symObjAddr: 0xCBA0, symBinAddr: 0x10000EFD0, symSize: 0x30 }
  - { offsetInCU: 0x1E43E, offset: 0x1E43E, size: 0x8, addend: 0x0, symName: __ZNSt3__122__compressed_pair_elemINS_12basic_stringIcNS_11char_traitsIcEENS_9allocatorIcEEE5__repELi0ELb0EEC2B7v160006ENS_18__default_init_tagE, symObjAddr: 0xCBD0, symBinAddr: 0x10000F000, symSize: 0x10 }
  - { offsetInCU: 0x1E473, offset: 0x1E473, size: 0x8, addend: 0x0, symName: __ZNSt3__122__compressed_pair_elemINS_9allocatorIcEELi1ELb1EEC2B7v160006ENS_18__default_init_tagE, symObjAddr: 0xCBE0, symBinAddr: 0x10000F010, symSize: 0x20 }
  - { offsetInCU: 0x1E4A8, offset: 0x1E4A8, size: 0x8, addend: 0x0, symName: __ZNSt3__19allocatorIcEC2B7v160006Ev, symObjAddr: 0xCC00, symBinAddr: 0x10000F030, symSize: 0x20 }
  - { offsetInCU: 0x1E4D2, offset: 0x1E4D2, size: 0x8, addend: 0x0, symName: __ZNSt3__116__non_trivial_ifILb1ENS_9allocatorIcEEEC2B7v160006Ev, symObjAddr: 0xCC20, symBinAddr: 0x10000F050, symSize: 0x10 }
  - { offsetInCU: 0x1E4FC, offset: 0x1E4FC, size: 0x8, addend: 0x0, symName: __ZNSt3__112basic_stringIcNS_11char_traitsIcEENS_9allocatorIcEEE13__get_pointerB7v160006Ev, symObjAddr: 0xCC40, symBinAddr: 0x10000F070, symSize: 0x50 }
  - { offsetInCU: 0x1E522, offset: 0x1E522, size: 0x8, addend: 0x0, symName: __ZNKSt3__112basic_stringIcNS_11char_traitsIcEENS_9allocatorIcEEE9__is_longB7v160006Ev, symObjAddr: 0xCC90, symBinAddr: 0x10000F0C0, symSize: 0x30 }
  - { offsetInCU: 0x1E548, offset: 0x1E548, size: 0x8, addend: 0x0, symName: __ZNSt3__112basic_stringIcNS_11char_traitsIcEENS_9allocatorIcEEE18__get_long_pointerB7v160006Ev, symObjAddr: 0xCCC0, symBinAddr: 0x10000F0F0, symSize: 0x20 }
  - { offsetInCU: 0x1E56E, offset: 0x1E56E, size: 0x8, addend: 0x0, symName: __ZNSt3__112basic_stringIcNS_11char_traitsIcEENS_9allocatorIcEEE19__get_short_pointerB7v160006Ev, symObjAddr: 0xCCE0, symBinAddr: 0x10000F110, symSize: 0x30 }
  - { offsetInCU: 0x1E594, offset: 0x1E594, size: 0x8, addend: 0x0, symName: __ZNKSt3__117__compressed_pairINS_12basic_stringIcNS_11char_traitsIcEENS_9allocatorIcEEE5__repES5_E5firstB7v160006Ev, symObjAddr: 0xCD10, symBinAddr: 0x10000F140, symSize: 0x20 }
  - { offsetInCU: 0x1E5BA, offset: 0x1E5BA, size: 0x8, addend: 0x0, symName: __ZNKSt3__122__compressed_pair_elemINS_12basic_stringIcNS_11char_traitsIcEENS_9allocatorIcEEE5__repELi0ELb0EE5__getB7v160006Ev, symObjAddr: 0xCD30, symBinAddr: 0x10000F160, symSize: 0x10 }
  - { offsetInCU: 0x1E5E0, offset: 0x1E5E0, size: 0x8, addend: 0x0, symName: __ZNSt3__117__compressed_pairINS_12basic_stringIcNS_11char_traitsIcEENS_9allocatorIcEEE5__repES5_E5firstB7v160006Ev, symObjAddr: 0xCD40, symBinAddr: 0x10000F170, symSize: 0x20 }
  - { offsetInCU: 0x1E606, offset: 0x1E606, size: 0x8, addend: 0x0, symName: __ZNSt3__122__compressed_pair_elemINS_12basic_stringIcNS_11char_traitsIcEENS_9allocatorIcEEE5__repELi0ELb0EE5__getB7v160006Ev, symObjAddr: 0xCD60, symBinAddr: 0x10000F190, symSize: 0x10 }
  - { offsetInCU: 0x1E62C, offset: 0x1E62C, size: 0x8, addend: 0x0, symName: __ZNSt3__114pointer_traitsIPcE10pointer_toB7v160006ERc, symObjAddr: 0xCD70, symBinAddr: 0x10000F1A0, symSize: 0x10 }
  - { offsetInCU: 0x1E64F, offset: 0x1E64F, size: 0x8, addend: 0x0, symName: __ZNSt3__119ostreambuf_iteratorIcNS_11char_traitsIcEEEC2B7v160006ERNS_13basic_ostreamIcS2_EE, symObjAddr: 0xCD80, symBinAddr: 0x10000F1B0, symSize: 0x50 }
  - { offsetInCU: 0x1E687, offset: 0x1E687, size: 0x8, addend: 0x0, symName: __ZNKSt3__19basic_iosIcNS_11char_traitsIcEEE5rdbufB7v160006Ev, symObjAddr: 0xCDD0, symBinAddr: 0x10000F200, symSize: 0x20 }
  - { offsetInCU: 0x1E6AF, offset: 0x1E6AF, size: 0x8, addend: 0x0, symName: __ZNKSt3__18ios_base5rdbufB7v160006Ev, symObjAddr: 0xCDF0, symBinAddr: 0x10000F220, symSize: 0x20 }
  - { offsetInCU: 0x1E6D5, offset: 0x1E6D5, size: 0x8, addend: 0x0, symName: __ZNSt3__111char_traitsIcE11eq_int_typeEii, symObjAddr: 0xCE10, symBinAddr: 0x10000F240, symSize: 0x20 }
  - { offsetInCU: 0x1E706, offset: 0x1E706, size: 0x8, addend: 0x0, symName: __ZNSt3__111char_traitsIcE3eofEv, symObjAddr: 0xCE30, symBinAddr: 0x10000F260, symSize: 0x10 }
  - { offsetInCU: 0x1E71A, offset: 0x1E71A, size: 0x8, addend: 0x0, symName: __ZNKSt3__19basic_iosIcNS_11char_traitsIcEEE5widenB7v160006Ec, symObjAddr: 0xCE40, symBinAddr: 0x10000F270, symSize: 0x80 }
  - { offsetInCU: 0x1E78F, offset: 0x1E78F, size: 0x8, addend: 0x0, symName: __ZNKSt3__15ctypeIcE5widenB7v160006Ec, symObjAddr: 0xCEF0, symBinAddr: 0x10000F320, symSize: 0x30 }
  - { offsetInCU: 0x1E7C4, offset: 0x1E7C4, size: 0x8, addend: 0x0, symName: __ZNSt3__18ios_base8setstateB7v160006Ej, symObjAddr: 0xCF20, symBinAddr: 0x10000F350, symSize: 0x30 }
...
