---
triple:          'x86_64-apple-darwin'
binary-path:     'Binaries/SplitTextIntoWords'
relocations:
  - { offsetInCU: 0x5C, offset: 0x5C, size: 0x8, addend: 0x0, symName: __ZNSt3__119piecewise_constructE, symObjAddr: 0xB2AF, symBinAddr: 0x10000BC7C, symSize: 0x0 }
  - { offsetInCU: 0x96, offset: 0x96, size: 0x8, addend: 0x0, symName: __ZNSt3__16ranges5__cpo9iter_moveE, symObjAddr: 0xB2B0, symBinAddr: 0x10000BC7D, symSize: 0x0 }
  - { offsetInCU: 0xB9E0, offset: 0xB9E0, size: 0x8, addend: 0x0, symName: __ZNSt3__124__put_character_sequenceB8ne180100IcNS_11char_traitsIcEEEERNS_13basic_ostreamIT_T0_EES7_PKS4_m, symObjAddr: 0xA6C0, symBinAddr: 0x10000AF20, symSize: 0x1F0 }
  - { offsetInCU: 0xCB77, offset: 0xCB77, size: 0x8, addend: 0x0, symName: __ZNSt3__16__math4ceilB8ne180100Ef, symObjAddr: 0x3530, symBinAddr: 0x100003D90, symSize: 0x20 }
  - { offsetInCU: 0xD53C, offset: 0xD53C, size: 0x8, addend: 0x0, symName: __ZNSt3__1rsB8ne180100IcNS_11char_traitsIcEENS_9allocatorIcEEEERNS_13basic_istreamIT_T0_EES9_RNS_12basic_stringIS6_S7_T1_EE, symObjAddr: 0x280, symBinAddr: 0x100000AE0, symSize: 0x2F0 }
  - { offsetInCU: 0xE6E2, offset: 0xE6E2, size: 0x8, addend: 0x0, symName: __ZNSt3__1lsB8ne180100INS_11char_traitsIcEEEERNS_13basic_ostreamIcT_EES6_c, symObjAddr: 0xCB0, symBinAddr: 0x100001510, symSize: 0x30 }
  - { offsetInCU: 0xE728, offset: 0xE728, size: 0x8, addend: 0x0, symName: __ZNSt3__14endlB8ne180100IcNS_11char_traitsIcEEEERNS_13basic_ostreamIT_T0_EES7_, symObjAddr: 0xD00, symBinAddr: 0x100001560, symSize: 0x50 }
  - { offsetInCU: 0xE768, offset: 0xE768, size: 0x8, addend: 0x0, symName: __ZNSt3__1lsB8ne180100INS_11char_traitsIcEEEERNS_13basic_ostreamIcT_EES6_PKc, symObjAddr: 0xE70, symBinAddr: 0x1000016D0, symSize: 0x40 }
  - { offsetInCU: 0xE7AE, offset: 0xE7AE, size: 0x8, addend: 0x0, symName: __ZNSt3__112__to_addressB8ne180100IKcEEPT_S3_, symObjAddr: 0x1650, symBinAddr: 0x100001EB0, symSize: 0x10 }
  - { offsetInCU: 0xE816, offset: 0xE816, size: 0x8, addend: 0x0, symName: __ZNSt3__112__destroy_atB8ne180100INS_11__hash_nodeINS_17__hash_value_typeIc4NodeEEPvEELi0EEEvPT_, symObjAddr: 0x1A00, symBinAddr: 0x100002260, symSize: 0x20 }
  - { offsetInCU: 0xE880, offset: 0xE880, size: 0x8, addend: 0x0, symName: __ZNSt3__112__destroy_atB8ne180100INS_4pairIKc4NodeEELi0EEEvPT_, symObjAddr: 0x1A90, symBinAddr: 0x1000022F0, symSize: 0x20 }
  - { offsetInCU: 0xE8B7, offset: 0xE8B7, size: 0x8, addend: 0x0, symName: __ZNSt3__17launderB8ne180100INS_4pairIKc4NodeEEEEPT_S6_, symObjAddr: 0x1B10, symBinAddr: 0x100002370, symSize: 0x20 }
  - { offsetInCU: 0xE8EE, offset: 0xE8EE, size: 0x8, addend: 0x0, symName: __ZNSt3__19__launderB8ne180100INS_4pairIKc4NodeEEEEPT_S6_, symObjAddr: 0x1B30, symBinAddr: 0x100002390, symSize: 0x10 }
  - { offsetInCU: 0xE925, offset: 0xE925, size: 0x8, addend: 0x0, symName: __ZNSt3__119__libcpp_deallocateB8ne180100EPvmm, symObjAddr: 0x1BC0, symBinAddr: 0x100002420, symSize: 0x60 }
  - { offsetInCU: 0xE98A, offset: 0xE98A, size: 0x8, addend: 0x0, symName: __ZNSt3__124__is_overaligned_for_newB8ne180100Em, symObjAddr: 0x1C20, symBinAddr: 0x100002480, symSize: 0x20 }
  - { offsetInCU: 0xE9B8, offset: 0xE9B8, size: 0x8, addend: 0x0, symName: __ZNSt3__127__do_deallocate_handle_sizeB8ne180100IJSt11align_val_tEEEvPvmDpT_, symObjAddr: 0x1C40, symBinAddr: 0x1000024A0, symSize: 0x30 }
  - { offsetInCU: 0xEA0B, offset: 0xEA0B, size: 0x8, addend: 0x0, symName: __ZNSt3__127__do_deallocate_handle_sizeB8ne180100IJEEEvPvmDpT_, symObjAddr: 0x1C70, symBinAddr: 0x1000024D0, symSize: 0x20 }
  - { offsetInCU: 0xEA49, offset: 0xEA49, size: 0x8, addend: 0x0, symName: __ZNSt3__124__libcpp_operator_deleteB8ne180100IJPvSt11align_val_tEEEvDpT_, symObjAddr: 0x1C90, symBinAddr: 0x1000024F0, symSize: 0x30 }
  - { offsetInCU: 0xEA92, offset: 0xEA92, size: 0x8, addend: 0x0, symName: __ZNSt3__124__libcpp_operator_deleteB8ne180100IJPvEEEvDpT_, symObjAddr: 0x1CC0, symBinAddr: 0x100002520, symSize: 0x20 }
  - { offsetInCU: 0xEAC7, offset: 0xEAC7, size: 0x8, addend: 0x0, symName: __ZNSt3__1neB8ne180100ERKNS_16__deque_iteratorImPmRmPS1_lLl512EEES6_, symObjAddr: 0x2430, symBinAddr: 0x100002C90, symSize: 0x30 }
  - { offsetInCU: 0xEB04, offset: 0xEB04, size: 0x8, addend: 0x0, symName: __ZNSt3__1eqB8ne180100ERKNS_16__deque_iteratorImPmRmPS1_lLl512EEES6_, symObjAddr: 0x2690, symBinAddr: 0x100002EF0, symSize: 0x30 }
  - { offsetInCU: 0xEB41, offset: 0xEB41, size: 0x8, addend: 0x0, symName: __ZNSt3__112__destroy_atB8ne180100ImLi0EEEvPT_, symObjAddr: 0x26C0, symBinAddr: 0x100002F20, symSize: 0x10 }
  - { offsetInCU: 0xEB78, offset: 0xEB78, size: 0x8, addend: 0x0, symName: __ZNSt3__112__to_addressB8ne180100IPmEEPT_S3_, symObjAddr: 0x2990, symBinAddr: 0x1000031F0, symSize: 0x10 }
  - { offsetInCU: 0xEBAD, offset: 0xEBAD, size: 0x8, addend: 0x0, symName: __ZNSt3__112__destroy_atB8ne180100IPmLi0EEEvPT_, symObjAddr: 0x29A0, symBinAddr: 0x100003200, symSize: 0x10 }
  - { offsetInCU: 0xEC33, offset: 0xEC33, size: 0x8, addend: 0x0, symName: __ZNSt3__116forward_as_tupleB8ne180100IJRKcEEENS_5tupleIJDpOT_EEES6_, symObjAddr: 0x30D0, symBinAddr: 0x100003930, symSize: 0x30 }
  - { offsetInCU: 0xEC6C, offset: 0xEC6C, size: 0x8, addend: 0x0, symName: __ZNSt3__116forward_as_tupleB8ne180100IJEEENS_5tupleIJDpOT_EEES4_, symObjAddr: 0x3100, symBinAddr: 0x100003960, symSize: 0x10 }
  - { offsetInCU: 0xEC90, offset: 0xEC90, size: 0x8, addend: 0x0, symName: __ZNSt3__116__constrain_hashB8ne180100Emm, symObjAddr: 0x31C0, symBinAddr: 0x100003A20, symSize: 0x80 }
  - { offsetInCU: 0xECCA, offset: 0xECCA, size: 0x8, addend: 0x0, symName: __ZNSt3__13maxB8ne180100ImEERKT_S3_S3_, symObjAddr: 0x34C0, symBinAddr: 0x100003D20, symSize: 0x30 }
  - { offsetInCU: 0xED0D, offset: 0xED0D, size: 0x8, addend: 0x0, symName: __ZNSt3__116__is_hash_power2B8ne180100Em, symObjAddr: 0x34F0, symBinAddr: 0x100003D50, symSize: 0x40 }
  - { offsetInCU: 0xED39, offset: 0xED39, size: 0x8, addend: 0x0, symName: __ZNSt3__17launderB8ne180100IKNS_4pairIKc4NodeEEEEPT_S7_, symObjAddr: 0x3800, symBinAddr: 0x100004060, symSize: 0x20 }
  - { offsetInCU: 0xED70, offset: 0xED70, size: 0x8, addend: 0x0, symName: __ZNSt3__19__launderB8ne180100IKNS_4pairIKc4NodeEEEEPT_S7_, symObjAddr: 0x3820, symBinAddr: 0x100004080, symSize: 0x10 }
  - { offsetInCU: 0xEDC5, offset: 0xEDC5, size: 0x8, addend: 0x0, symName: __ZNSt3__114__construct_atB8ne180100INS_11__hash_nodeINS_17__hash_value_typeIc4NodeEEPvEEJDnRmEPS6_EEPT_SA_DpOT0_, symObjAddr: 0x38D0, symBinAddr: 0x100004130, symSize: 0x30 }
  - { offsetInCU: 0xEE2B, offset: 0xEE2B, size: 0x8, addend: 0x0, symName: __ZNSt3__117__libcpp_allocateB8ne180100Emm, symObjAddr: 0x3A40, symBinAddr: 0x1000042A0, symSize: 0x60 }
  - { offsetInCU: 0xEE85, offset: 0xEE85, size: 0x8, addend: 0x0, symName: __ZNSt3__121__libcpp_operator_newB8ne180100IJmSt11align_val_tEEEPvDpT_, symObjAddr: 0x3AC0, symBinAddr: 0x100004320, symSize: 0x30 }
  - { offsetInCU: 0xEED2, offset: 0xEED2, size: 0x8, addend: 0x0, symName: __ZNSt3__121__libcpp_operator_newB8ne180100IJmEEEPvDpT_, symObjAddr: 0x3AF0, symBinAddr: 0x100004350, symSize: 0x20 }
  - { offsetInCU: 0xEF0B, offset: 0xEF0B, size: 0x8, addend: 0x0, symName: __ZNSt3__112construct_atB8ne180100INS_11__hash_nodeINS_17__hash_value_typeIc4NodeEEPvEEJDnRmEPS6_EEPT_SA_DpOT0_, symObjAddr: 0x3C40, symBinAddr: 0x1000044A0, symSize: 0x40 }
  - { offsetInCU: 0xEF71, offset: 0xEF71, size: 0x8, addend: 0x0, symName: __ZNSt3__114__construct_atB8ne180100INS_4pairIKc4NodeEEJRKNS_21piecewise_construct_tENS_5tupleIJRS2_EEENS8_IJEEEEPS4_EEPT_SE_DpOT0_, symObjAddr: 0x3D40, symBinAddr: 0x1000045A0, symSize: 0x40 }
  - { offsetInCU: 0xEFEA, offset: 0xEFEA, size: 0x8, addend: 0x0, symName: __ZNSt3__112construct_atB8ne180100INS_4pairIKc4NodeEEJRKNS_21piecewise_construct_tENS_5tupleIJRS2_EEENS8_IJEEEEPS4_EEPT_SE_DpOT0_, symObjAddr: 0x3D80, symBinAddr: 0x1000045E0, symSize: 0x40 }
  - { offsetInCU: 0xF06E, offset: 0xF06E, size: 0x8, addend: 0x0, symName: __ZNSt3__13getB8ne180100ILm0EJRKcEEERNS_13tuple_elementIXT_ENS_5tupleIJDpT0_EEEE4typeERS7_, symObjAddr: 0x3E80, symBinAddr: 0x1000046E0, symSize: 0x20 }
  - { offsetInCU: 0xF0B1, offset: 0xF0B1, size: 0x8, addend: 0x0, symName: __ZNSt3__116__next_hash_pow2B8ne180100Em, symObjAddr: 0x43C0, symBinAddr: 0x100004C20, symSize: 0x60 }
  - { offsetInCU: 0xF0DD, offset: 0xF0DD, size: 0x8, addend: 0x0, symName: __ZNSt3__112__libcpp_clzB8ne180100Em, symObjAddr: 0x4550, symBinAddr: 0x100004DB0, symSize: 0x20 }
  - { offsetInCU: 0xF109, offset: 0xF109, size: 0x8, addend: 0x0, symName: __ZNSt3__13maxB8ne180100ImNS_6__lessIvvEEEERKT_S5_S5_T0_, symObjAddr: 0x4570, symBinAddr: 0x100004DD0, symSize: 0x50 }
  - { offsetInCU: 0xF992, offset: 0xF992, size: 0x8, addend: 0x0, symName: __ZNSt3__19use_facetB8ne180100INS_5ctypeIcEEEERKT_RKNS_6localeE, symObjAddr: 0x4A10, symBinAddr: 0x100005270, symSize: 0x30 }
  - { offsetInCU: 0x101C1, offset: 0x101C1, size: 0x8, addend: 0x0, symName: __ZNSt3__14swapB8ne180100IPPmEENS_9enable_ifIXaasr21is_move_constructibleIT_EE5valuesr18is_move_assignableIS4_EE5valueEvE4typeERS4_S7_, symObjAddr: 0x6530, symBinAddr: 0x100006D90, symSize: 0x40 }
  - { offsetInCU: 0x10212, offset: 0x10212, size: 0x8, addend: 0x0, symName: __ZNSt3__14moveB8ne180100IPPmS2_EET0_T_S4_S3_, symObjAddr: 0x65F0, symBinAddr: 0x100006E50, symSize: 0x40 }
  - { offsetInCU: 0x1026C, offset: 0x1026C, size: 0x8, addend: 0x0, symName: __ZNSt3__16__moveB8ne180100INS_17_ClassicAlgPolicyEPPmS3_S3_EENS_4pairIT0_T2_EES5_T1_S6_, symObjAddr: 0x66F0, symBinAddr: 0x100006F50, symSize: 0x40 }
  - { offsetInCU: 0x102D8, offset: 0x102D8, size: 0x8, addend: 0x0, symName: __ZNSt3__123__dispatch_copy_or_moveB8ne180100INS_17_ClassicAlgPolicyENS_11__move_loopIS1_EENS_14__move_trivialEPPmS6_S6_EENS_4pairIT2_T4_EES8_T3_S9_, symObjAddr: 0x6730, symBinAddr: 0x100006F90, symSize: 0x40 }
  - { offsetInCU: 0x10356, offset: 0x10356, size: 0x8, addend: 0x0, symName: __ZNSt3__121__unwrap_and_dispatchB8ne180100INS_10__overloadINS_11__move_loopINS_17_ClassicAlgPolicyEEENS_14__move_trivialEEEPPmS8_S8_Li0EEENS_4pairIT0_T2_EESA_T1_SB_, symObjAddr: 0x6770, symBinAddr: 0x100006FD0, symSize: 0xB0 }
  - { offsetInCU: 0x103E5, offset: 0x103E5, size: 0x8, addend: 0x0, symName: __ZNSt3__114__unwrap_rangeB8ne180100IPPmS2_EEDaT_T0_, symObjAddr: 0x6820, symBinAddr: 0x100007080, symSize: 0x40 }
  - { offsetInCU: 0x105F6, offset: 0x105F6, size: 0x8, addend: 0x0, symName: __ZNSt3__113__unwrap_iterB8ne180100IPPmNS_18__unwrap_iter_implIS2_Lb1EEELi0EEEDTclsrT0_8__unwrapclsr3stdE7declvalIT_EEEES6_, symObjAddr: 0x68A0, symBinAddr: 0x100007100, symSize: 0x20 }
  - { offsetInCU: 0x1063A, offset: 0x1063A, size: 0x8, addend: 0x0, symName: __ZNSt3__19make_pairB8ne180100IPPmS2_EENS_4pairINS_18__unwrap_ref_decayIT_E4typeENS4_IT0_E4typeEEEOS5_OS8_, symObjAddr: 0x68C0, symBinAddr: 0x100007120, symSize: 0x30 }
  - { offsetInCU: 0x10689, offset: 0x10689, size: 0x8, addend: 0x0, symName: __ZNSt3__114__rewrap_rangeB8ne180100IPPmS2_S2_EET0_S3_T1_, symObjAddr: 0x68F0, symBinAddr: 0x100007150, symSize: 0x30 }
  - { offsetInCU: 0x106DE, offset: 0x106DE, size: 0x8, addend: 0x0, symName: __ZNSt3__113__rewrap_iterB8ne180100IPPmS2_NS_18__unwrap_iter_implIS2_Lb1EEEEET_S5_T0_, symObjAddr: 0x6920, symBinAddr: 0x100007180, symSize: 0x40 }
  - { offsetInCU: 0x10783, offset: 0x10783, size: 0x8, addend: 0x0, symName: __ZNSt3__119__copy_trivial_implB8ne180100IPmS1_EENS_4pairIPT_PT0_EES4_S4_S6_, symObjAddr: 0x6A10, symBinAddr: 0x100007270, symSize: 0x70 }
  - { offsetInCU: 0x107EB, offset: 0x107EB, size: 0x8, addend: 0x0, symName: __ZNSt3__119__constexpr_memmoveB8ne180100IPmS1_Li0EEEPT_S3_PT0_NS_15__element_countE, symObjAddr: 0x6A80, symBinAddr: 0x1000072E0, symSize: 0x50 }
  - { offsetInCU: 0x10859, offset: 0x10859, size: 0x8, addend: 0x0, symName: __ZNSt3__19make_pairB8ne180100IRPPmS2_EENS_4pairINS_18__unwrap_ref_decayIT_E4typeENS5_IT0_E4typeEEEOS6_OS9_, symObjAddr: 0x6AD0, symBinAddr: 0x100007330, symSize: 0x30 }
  - { offsetInCU: 0x108FB, offset: 0x108FB, size: 0x8, addend: 0x0, symName: __ZNSt3__18distanceB8ne180100INS_13move_iteratorIPPmEEEENS_15iterator_traitsIT_E15difference_typeES6_S6_, symObjAddr: 0x6CE0, symBinAddr: 0x100007540, symSize: 0x40 }
  - { offsetInCU: 0x1093E, offset: 0x1093E, size: 0x8, addend: 0x0, symName: __ZNSt3__114__construct_atB8ne180100IPmJS1_EPS1_EEPT_S4_DpOT0_, symObjAddr: 0x6E50, symBinAddr: 0x1000076B0, symSize: 0x30 }
  - { offsetInCU: 0x10991, offset: 0x10991, size: 0x8, addend: 0x0, symName: __ZNSt3__112construct_atB8ne180100IPmJS1_EPS1_EEPT_S4_DpOT0_, symObjAddr: 0x6E80, symBinAddr: 0x1000076E0, symSize: 0x20 }
  - { offsetInCU: 0x109E4, offset: 0x109E4, size: 0x8, addend: 0x0, symName: __ZNSt3__110__distanceB8ne180100INS_13move_iteratorIPPmEEEENS_15iterator_traitsIT_E15difference_typeES6_S6_NS_26random_access_iterator_tagE, symObjAddr: 0x6F20, symBinAddr: 0x100007780, symSize: 0x30 }
  - { offsetInCU: 0x10A31, offset: 0x10A31, size: 0x8, addend: 0x0, symName: __ZNSt3__1miB8ne180100IPPmS2_EEDTmicldtfp_4baseEcldtfp0_4baseEERKNS_13move_iteratorIT_EERKNS4_IT0_EE, symObjAddr: 0x6F50, symBinAddr: 0x1000077B0, symSize: 0x40 }
  - { offsetInCU: 0x10A80, offset: 0x10A80, size: 0x8, addend: 0x0, symName: __ZNSt3__114__construct_atB8ne180100IPmJRKS1_EPS1_EEPT_S6_DpOT0_, symObjAddr: 0x6FC0, symBinAddr: 0x100007820, symSize: 0x30 }
  - { offsetInCU: 0x10AD3, offset: 0x10AD3, size: 0x8, addend: 0x0, symName: __ZNSt3__112construct_atB8ne180100IPmJRKS1_EPS1_EEPT_S6_DpOT0_, symObjAddr: 0x6FF0, symBinAddr: 0x100007850, symSize: 0x20 }
  - { offsetInCU: 0x10B26, offset: 0x10B26, size: 0x8, addend: 0x0, symName: __ZNSt3__113move_backwardB8ne180100IPPmS2_EET0_T_S4_S3_, symObjAddr: 0x7080, symBinAddr: 0x1000078E0, symSize: 0x40 }
  - { offsetInCU: 0x10B80, offset: 0x10B80, size: 0x8, addend: 0x0, symName: __ZNSt3__115__move_backwardB8ne180100INS_17_ClassicAlgPolicyEPPmS3_S3_EENS_4pairIT0_T2_EES5_T1_S6_, symObjAddr: 0x70C0, symBinAddr: 0x100007920, symSize: 0x40 }
  - { offsetInCU: 0x10BEC, offset: 0x10BEC, size: 0x8, addend: 0x0, symName: __ZNSt3__123__dispatch_copy_or_moveB8ne180100INS_17_ClassicAlgPolicyENS_20__move_backward_loopIS1_EENS_23__move_backward_trivialEPPmS6_S6_EENS_4pairIT2_T4_EES8_T3_S9_, symObjAddr: 0x7100, symBinAddr: 0x100007960, symSize: 0x40 }
  - { offsetInCU: 0x10C6A, offset: 0x10C6A, size: 0x8, addend: 0x0, symName: __ZNSt3__121__unwrap_and_dispatchB8ne180100INS_10__overloadINS_20__move_backward_loopINS_17_ClassicAlgPolicyEEENS_23__move_backward_trivialEEEPPmS8_S8_Li0EEENS_4pairIT0_T2_EESA_T1_SB_, symObjAddr: 0x7140, symBinAddr: 0x1000079A0, symSize: 0xB0 }
  - { offsetInCU: 0x10D3F, offset: 0x10D3F, size: 0x8, addend: 0x0, symName: __ZNSt3__128__copy_backward_trivial_implB8ne180100IPmS1_EENS_4pairIPT_PT0_EES4_S4_S6_, symObjAddr: 0x7230, symBinAddr: 0x100007A90, symSize: 0x70 }
  - { offsetInCU: 0x10DA7, offset: 0x10DA7, size: 0x8, addend: 0x0, symName: __ZNSt3__19make_pairB8ne180100IRPPmS3_EENS_4pairINS_18__unwrap_ref_decayIT_E4typeENS5_IT0_E4typeEEEOS6_OS9_, symObjAddr: 0x72A0, symBinAddr: 0x100007B00, symSize: 0x30 }
  - { offsetInCU: 0x10DF6, offset: 0x10DF6, size: 0x8, addend: 0x0, symName: __ZNSt3__119__allocate_at_leastB8ne180100INS_9allocatorIPmEEEEDaRT_m, symObjAddr: 0x7430, symBinAddr: 0x100007C90, symSize: 0x40 }
  - { offsetInCU: 0x10E39, offset: 0x10E39, size: 0x8, addend: 0x0, symName: __ZNSt3__117allocate_at_leastB8ne180100INS_9allocatorIPmEEEENS_17allocation_resultINS_16allocator_traitsIT_E7pointerEEERS6_m, symObjAddr: 0x74D0, symBinAddr: 0x100007D30, symSize: 0x40 }
  - { offsetInCU: 0x10E7C, offset: 0x10E7C, size: 0x8, addend: 0x0, symName: __ZNSt3__114__construct_atB8ne180100ImJmEPmEEPT_S3_DpOT0_, symObjAddr: 0x7A40, symBinAddr: 0x1000082A0, symSize: 0x30 }
  - { offsetInCU: 0x10ECF, offset: 0x10ECF, size: 0x8, addend: 0x0, symName: __ZNSt3__112construct_atB8ne180100ImJmEPmEEPT_S3_DpOT0_, symObjAddr: 0x7A70, symBinAddr: 0x1000082D0, symSize: 0x20 }
  - { offsetInCU: 0x10F22, offset: 0x10F22, size: 0x8, addend: 0x0, symName: __ZNSt3__112__destroy_atB8ne180100INS_11__hash_nodeImPvEELi0EEEvPT_, symObjAddr: 0x8180, symBinAddr: 0x1000089E0, symSize: 0x20 }
  - { offsetInCU: 0x10F8C, offset: 0x10F8C, size: 0x8, addend: 0x0, symName: __ZNSt3__112__to_addressB8ne180100ImEEPT_S2_, symObjAddr: 0x8610, symBinAddr: 0x100008E70, symSize: 0x10 }
  - { offsetInCU: 0x10FC1, offset: 0x10FC1, size: 0x8, addend: 0x0, symName: __ZNSt3__1neB8ne180100ERKNS_21__hash_const_iteratorIPNS_11__hash_nodeINS_17__hash_value_typeIc4NodeEEPvEEEESA_, symObjAddr: 0x87C0, symBinAddr: 0x100009020, symSize: 0x30 }
  - { offsetInCU: 0x10FFE, offset: 0x10FFE, size: 0x8, addend: 0x0, symName: __ZNSt3__1eqB8ne180100ERKNS_21__hash_const_iteratorIPNS_11__hash_nodeINS_17__hash_value_typeIc4NodeEEPvEEEESA_, symObjAddr: 0x89B0, symBinAddr: 0x100009210, symSize: 0x30 }
  - { offsetInCU: 0x1103B, offset: 0x1103B, size: 0x8, addend: 0x0, symName: __ZNSt3__1neB8ne180100ERKNS_21__hash_const_iteratorIPNS_11__hash_nodeImPvEEEES7_, symObjAddr: 0x8B20, symBinAddr: 0x100009380, symSize: 0x30 }
  - { offsetInCU: 0x11078, offset: 0x11078, size: 0x8, addend: 0x0, symName: __ZNSt3__1eqB8ne180100ERKNS_21__hash_const_iteratorIPNS_11__hash_nodeImPvEEEES7_, symObjAddr: 0x8D10, symBinAddr: 0x100009570, symSize: 0x30 }
  - { offsetInCU: 0x110B5, offset: 0x110B5, size: 0x8, addend: 0x0, symName: __ZNSt3__114__construct_atB8ne180100ImJRKmEPmEEPT_S5_DpOT0_, symObjAddr: 0x9090, symBinAddr: 0x1000098F0, symSize: 0x30 }
  - { offsetInCU: 0x11108, offset: 0x11108, size: 0x8, addend: 0x0, symName: __ZNSt3__112construct_atB8ne180100ImJRKmEPmEEPT_S5_DpOT0_, symObjAddr: 0x90C0, symBinAddr: 0x100009920, symSize: 0x20 }
  - { offsetInCU: 0x11179, offset: 0x11179, size: 0x8, addend: 0x0, symName: __ZNSt3__114__construct_atB8ne180100INS_11__hash_nodeImPvEEJDnRmEPS3_EEPT_S7_DpOT0_, symObjAddr: 0x9B30, symBinAddr: 0x10000A390, symSize: 0x30 }
  - { offsetInCU: 0x111DF, offset: 0x111DF, size: 0x8, addend: 0x0, symName: __ZNSt3__112construct_atB8ne180100INS_11__hash_nodeImPvEEJDnRmEPS3_EEPT_S7_DpOT0_, symObjAddr: 0x9D80, symBinAddr: 0x10000A5E0, symSize: 0x40 }
  - { offsetInCU: 0x11245, offset: 0x11245, size: 0x8, addend: 0x0, symName: __ZNSt3__116__pad_and_outputB8ne180100IcNS_11char_traitsIcEEEENS_19ostreambuf_iteratorIT_T0_EES6_PKS4_S8_S8_RNS_8ios_baseES4_, symObjAddr: 0xA8D0, symBinAddr: 0x10000B130, symSize: 0x220 }
  - { offsetInCU: 0x11315, offset: 0x11315, size: 0x8, addend: 0x0, symName: __ZNSt3__112__to_addressB8ne180100IcEEPT_S2_, symObjAddr: 0xAD20, symBinAddr: 0x10000B580, symSize: 0x10 }
  - { offsetInCU: 0x1134A, offset: 0x1134A, size: 0x8, addend: 0x0, symName: __ZNSt3__118__constexpr_strlenB8ne180100EPKc, symObjAddr: 0xAEB0, symBinAddr: 0x10000B710, symSize: 0x1B }
  - { offsetInCU: 0x1161D, offset: 0x1161D, size: 0x8, addend: 0x0, symName: __ZSt28__throw_bad_array_new_lengthB8ne180100v, symObjAddr: 0x3A00, symBinAddr: 0x100004260, symSize: 0x40 }
  - { offsetInCU: 0x14BD7, offset: 0x14BD7, size: 0x8, addend: 0x0, symName: __Z21AddStringToPrefixTreeNSt3__117basic_string_viewIcNS_11char_traitsIcEEEER4Node, symObjAddr: 0x0, symBinAddr: 0x100000860, symSize: 0x90 }
  - { offsetInCU: 0x14C6D, offset: 0x14C6D, size: 0x8, addend: 0x0, symName: __ZNKSt3__117basic_string_viewIcNS_11char_traitsIcEEE5beginB8ne180100Ev, symObjAddr: 0x90, symBinAddr: 0x1000008F0, symSize: 0x20 }
  - { offsetInCU: 0x14C93, offset: 0x14C93, size: 0x8, addend: 0x0, symName: __ZNKSt3__117basic_string_viewIcNS_11char_traitsIcEEE3endB8ne180100Ev, symObjAddr: 0xB0, symBinAddr: 0x100000910, symSize: 0x20 }
  - { offsetInCU: 0x14CB9, offset: 0x14CB9, size: 0x8, addend: 0x0, symName: __ZNSt3__113unordered_mapIc4NodeNS_4hashIcEENS_8equal_toIcEENS_9allocatorINS_4pairIKcS1_EEEEEixERS8_, symObjAddr: 0xD0, symBinAddr: 0x100000930, symSize: 0x70 }
  - { offsetInCU: 0x14CEF, offset: 0x14CEF, size: 0x8, addend: 0x0, symName: __Z15BuildPrefixTreev, symObjAddr: 0x140, symBinAddr: 0x1000009A0, symSize: 0x100 }
  - { offsetInCU: 0x14D39, offset: 0x14D39, size: 0x8, addend: 0x0, symName: __ZNSt3__112basic_stringIcNS_11char_traitsIcEENS_9allocatorIcEEEC1B8ne180100Ev, symObjAddr: 0x240, symBinAddr: 0x100000AA0, symSize: 0x20 }
  - { offsetInCU: 0x14D69, offset: 0x14D69, size: 0x8, addend: 0x0, symName: __ZN4NodeC1Ev, symObjAddr: 0x260, symBinAddr: 0x100000AC0, symSize: 0x20 }
  - { offsetInCU: 0x14D95, offset: 0x14D95, size: 0x8, addend: 0x0, symName: __ZNKSt3__112basic_stringIcNS_11char_traitsIcEENS_9allocatorIcEEEcvNS_17basic_string_viewIcS2_EEB8ne180100Ev, symObjAddr: 0x570, symBinAddr: 0x100000DD0, symSize: 0x50 }
  - { offsetInCU: 0x14DBB, offset: 0x14DBB, size: 0x8, addend: 0x0, symName: __ZN4NodeD1Ev, symObjAddr: 0x5C0, symBinAddr: 0x100000E20, symSize: 0x20 }
  - { offsetInCU: 0x14DE6, offset: 0x14DE6, size: 0x8, addend: 0x0, symName: __Z17IsPossibleToSplitRKNSt3__112basic_stringIcNS_11char_traitsIcEENS_9allocatorIcEEEER4Node, symObjAddr: 0x5E0, symBinAddr: 0x100000E40, symSize: 0x470 }
  - { offsetInCU: 0x14EB0, offset: 0x14EB0, size: 0x8, addend: 0x0, symName: __ZNSt3__15queueImNS_5dequeImNS_9allocatorImEEEEEC1B8ne180100Ev, symObjAddr: 0xA50, symBinAddr: 0x1000012B0, symSize: 0x20 }
  - { offsetInCU: 0x14EDA, offset: 0x14EDA, size: 0x8, addend: 0x0, symName: __ZNSt3__15queueImNS_5dequeImNS_9allocatorImEEEEE4pushB8ne180100EOm, symObjAddr: 0xA70, symBinAddr: 0x1000012D0, symSize: 0x30 }
  - { offsetInCU: 0x1505D, offset: 0x1505D, size: 0x8, addend: 0x0, symName: __ZNSt3__113unordered_setImNS_4hashImEENS_8equal_toImEENS_9allocatorImEEEC1B8ne180100Ev, symObjAddr: 0xAA0, symBinAddr: 0x100001300, symSize: 0x20 }
  - { offsetInCU: 0x15087, offset: 0x15087, size: 0x8, addend: 0x0, symName: __ZNKSt3__15queueImNS_5dequeImNS_9allocatorImEEEEE5emptyB8ne180100Ev, symObjAddr: 0xAC0, symBinAddr: 0x100001320, symSize: 0x20 }
  - { offsetInCU: 0x150AD, offset: 0x150AD, size: 0x8, addend: 0x0, symName: __ZNKSt3__112basic_stringIcNS_11char_traitsIcEENS_9allocatorIcEEE4sizeB8ne180100Ev, symObjAddr: 0xAE0, symBinAddr: 0x100001340, symSize: 0x50 }
  - { offsetInCU: 0x150D3, offset: 0x150D3, size: 0x8, addend: 0x0, symName: __ZNSt3__15queueImNS_5dequeImNS_9allocatorImEEEEE5frontB8ne180100Ev, symObjAddr: 0xB30, symBinAddr: 0x100001390, symSize: 0x20 }
  - { offsetInCU: 0x150F9, offset: 0x150F9, size: 0x8, addend: 0x0, symName: __ZNSt3__15queueImNS_5dequeImNS_9allocatorImEEEEE3popB8ne180100Ev, symObjAddr: 0xB50, symBinAddr: 0x1000013B0, symSize: 0x20 }
  - { offsetInCU: 0x1511F, offset: 0x1511F, size: 0x8, addend: 0x0, symName: __ZNKSt3__113unordered_mapIc4NodeNS_4hashIcEENS_8equal_toIcEENS_9allocatorINS_4pairIKcS1_EEEEE5emptyB8ne180100Ev, symObjAddr: 0xB70, symBinAddr: 0x1000013D0, symSize: 0x30 }
  - { offsetInCU: 0x15145, offset: 0x15145, size: 0x8, addend: 0x0, symName: __ZNKSt3__113unordered_mapIc4NodeNS_4hashIcEENS_8equal_toIcEENS_9allocatorINS_4pairIKcS1_EEEEE5countB8ne180100ERS8_, symObjAddr: 0xBA0, symBinAddr: 0x100001400, symSize: 0x30 }
  - { offsetInCU: 0x1517A, offset: 0x1517A, size: 0x8, addend: 0x0, symName: __ZNKSt3__112basic_stringIcNS_11char_traitsIcEENS_9allocatorIcEEEixB8ne180100Em, symObjAddr: 0xBD0, symBinAddr: 0x100001430, symSize: 0x40 }
  - { offsetInCU: 0x151AF, offset: 0x151AF, size: 0x8, addend: 0x0, symName: __ZNKSt3__113unordered_setImNS_4hashImEENS_8equal_toImEENS_9allocatorImEEE5countB8ne180100ERKm, symObjAddr: 0xC10, symBinAddr: 0x100001470, symSize: 0x30 }
  - { offsetInCU: 0x151E4, offset: 0x151E4, size: 0x8, addend: 0x0, symName: __ZNSt3__15queueImNS_5dequeImNS_9allocatorImEEEEE4pushB8ne180100ERKm, symObjAddr: 0xC40, symBinAddr: 0x1000014A0, symSize: 0x30 }
  - { offsetInCU: 0x15219, offset: 0x15219, size: 0x8, addend: 0x0, symName: __ZNSt3__113unordered_setImNS_4hashImEENS_8equal_toImEENS_9allocatorImEEE6insertB8ne180100ERKm, symObjAddr: 0xC70, symBinAddr: 0x1000014D0, symSize: 0x40 }
  - { offsetInCU: 0x1524E, offset: 0x1524E, size: 0x8, addend: 0x0, symName: __ZNSt3__113basic_ostreamIcNS_11char_traitsIcEEElsB8ne180100EPFRS3_S4_E, symObjAddr: 0xCE0, symBinAddr: 0x100001540, symSize: 0x20 }
  - { offsetInCU: 0x15282, offset: 0x15282, size: 0x8, addend: 0x0, symName: __ZNSt3__113unordered_setImNS_4hashImEENS_8equal_toImEENS_9allocatorImEEED1B8ne180100Ev, symObjAddr: 0xD50, symBinAddr: 0x1000015B0, symSize: 0x20 }
  - { offsetInCU: 0x152AC, offset: 0x152AC, size: 0x8, addend: 0x0, symName: __ZNSt3__15queueImNS_5dequeImNS_9allocatorImEEEEED1Ev, symObjAddr: 0xD70, symBinAddr: 0x1000015D0, symSize: 0x20 }
  - { offsetInCU: 0x152D9, offset: 0x152D9, size: 0x8, addend: 0x0, symName: _main, symObjAddr: 0xD90, symBinAddr: 0x1000015F0, symSize: 0xE0 }
  - { offsetInCU: 0x15311, offset: 0x15311, size: 0x8, addend: 0x0, symName: __ZNKSt3__117basic_string_viewIcNS_11char_traitsIcEEE6cbeginB8ne180100Ev, symObjAddr: 0xEB0, symBinAddr: 0x100001710, symSize: 0x20 }
  - { offsetInCU: 0x15337, offset: 0x15337, size: 0x8, addend: 0x0, symName: __ZNKSt3__117basic_string_viewIcNS_11char_traitsIcEEE4cendB8ne180100Ev, symObjAddr: 0xED0, symBinAddr: 0x100001730, symSize: 0x20 }
  - { offsetInCU: 0x1535D, offset: 0x1535D, size: 0x8, addend: 0x0, symName: __ZNSt3__112basic_stringIcNS_11char_traitsIcEENS_9allocatorIcEEEC2B8ne180100Ev, symObjAddr: 0xEF0, symBinAddr: 0x100001750, symSize: 0x50 }
  - { offsetInCU: 0x15393, offset: 0x15393, size: 0x8, addend: 0x0, symName: __ZNSt3__117__compressed_pairINS_12basic_stringIcNS_11char_traitsIcEENS_9allocatorIcEEE5__repES5_EC1B8ne180100INS_16__value_init_tagENS_18__default_init_tagEEEOT_OT0_, symObjAddr: 0xF40, symBinAddr: 0x1000017A0, symSize: 0x30 }
  - { offsetInCU: 0x153EB, offset: 0x153EB, size: 0x8, addend: 0x0, symName: __ZNKSt3__112basic_stringIcNS_11char_traitsIcEENS_9allocatorIcEEE14__annotate_newB8ne180100Em, symObjAddr: 0xF80, symBinAddr: 0x1000017E0, symSize: 0x10 }
  - { offsetInCU: 0x15420, offset: 0x15420, size: 0x8, addend: 0x0, symName: __ZNSt3__117__compressed_pairINS_12basic_stringIcNS_11char_traitsIcEENS_9allocatorIcEEE5__repES5_EC2B8ne180100INS_16__value_init_tagENS_18__default_init_tagEEEOT_OT0_, symObjAddr: 0xF90, symBinAddr: 0x1000017F0, symSize: 0x30 }
  - { offsetInCU: 0x15478, offset: 0x15478, size: 0x8, addend: 0x0, symName: __ZNSt3__122__compressed_pair_elemINS_12basic_stringIcNS_11char_traitsIcEENS_9allocatorIcEEE5__repELi0ELb0EEC2B8ne180100ENS_16__value_init_tagE, symObjAddr: 0xFC0, symBinAddr: 0x100001820, symSize: 0x30 }
  - { offsetInCU: 0x154AC, offset: 0x154AC, size: 0x8, addend: 0x0, symName: __ZNSt3__122__compressed_pair_elemINS_9allocatorIcEELi1ELb1EEC2B8ne180100ENS_18__default_init_tagE, symObjAddr: 0xFF0, symBinAddr: 0x100001850, symSize: 0x20 }
  - { offsetInCU: 0x154E0, offset: 0x154E0, size: 0x8, addend: 0x0, symName: __ZNSt3__19allocatorIcEC2B8ne180100Ev, symObjAddr: 0x1010, symBinAddr: 0x100001870, symSize: 0x20 }
  - { offsetInCU: 0x1550A, offset: 0x1550A, size: 0x8, addend: 0x0, symName: __ZNSt3__116__non_trivial_ifILb1ENS_9allocatorIcEEEC2B8ne180100Ev, symObjAddr: 0x1030, symBinAddr: 0x100001890, symSize: 0x10 }
  - { offsetInCU: 0x15534, offset: 0x15534, size: 0x8, addend: 0x0, symName: __ZN4NodeC2Ev, symObjAddr: 0x1040, symBinAddr: 0x1000018A0, symSize: 0x30 }
  - { offsetInCU: 0x15560, offset: 0x15560, size: 0x8, addend: 0x0, symName: __ZNSt3__113unordered_mapIc4NodeNS_4hashIcEENS_8equal_toIcEENS_9allocatorINS_4pairIKcS1_EEEEEC1B8ne180100Ev, symObjAddr: 0x1070, symBinAddr: 0x1000018D0, symSize: 0x20 }
  - { offsetInCU: 0x1558A, offset: 0x1558A, size: 0x8, addend: 0x0, symName: __ZNSt3__113unordered_mapIc4NodeNS_4hashIcEENS_8equal_toIcEENS_9allocatorINS_4pairIKcS1_EEEEEC2B8ne180100Ev, symObjAddr: 0x1090, symBinAddr: 0x1000018F0, symSize: 0x20 }
  - { offsetInCU: 0x155B4, offset: 0x155B4, size: 0x8, addend: 0x0, symName: __ZNSt3__112__hash_tableINS_17__hash_value_typeIc4NodeEENS_22__unordered_map_hasherIcS3_NS_4hashIcEENS_8equal_toIcEELb1EEENS_21__unordered_map_equalIcS3_S8_S6_Lb1EEENS_9allocatorIS3_EEEC1Ev, symObjAddr: 0x10B0, symBinAddr: 0x100001910, symSize: 0x20 }
  - { offsetInCU: 0x155E0, offset: 0x155E0, size: 0x8, addend: 0x0, symName: __ZNSt3__112__hash_tableINS_17__hash_value_typeIc4NodeEENS_22__unordered_map_hasherIcS3_NS_4hashIcEENS_8equal_toIcEELb1EEENS_21__unordered_map_equalIcS3_S8_S6_Lb1EEENS_9allocatorIS3_EEEC2Ev, symObjAddr: 0x10D0, symBinAddr: 0x100001930, symSize: 0x80 }
  - { offsetInCU: 0x1560C, offset: 0x1560C, size: 0x8, addend: 0x0, symName: __ZNSt3__110unique_ptrIA_PNS_16__hash_node_baseIPNS_11__hash_nodeINS_17__hash_value_typeIc4NodeEEPvEEEENS_25__bucket_list_deallocatorINS_9allocatorISA_EEEEEC1B8ne180100ILb1EvEEv, symObjAddr: 0x1150, symBinAddr: 0x1000019B0, symSize: 0x20 }
  - { offsetInCU: 0x15641, offset: 0x15641, size: 0x8, addend: 0x0, symName: __ZNSt3__117__compressed_pairINS_16__hash_node_baseIPNS_11__hash_nodeINS_17__hash_value_typeIc4NodeEEPvEEEENS_9allocatorIS7_EEEC1B8ne180100ILb1EvEEv, symObjAddr: 0x1170, symBinAddr: 0x1000019D0, symSize: 0x20 }
  - { offsetInCU: 0x1567C, offset: 0x1567C, size: 0x8, addend: 0x0, symName: __ZNSt3__117__compressed_pairImNS_22__unordered_map_hasherIcNS_17__hash_value_typeIc4NodeEENS_4hashIcEENS_8equal_toIcEELb1EEEEC1B8ne180100IiNS_18__default_init_tagEEEOT_OT0_, symObjAddr: 0x1190, symBinAddr: 0x1000019F0, symSize: 0x30 }
  - { offsetInCU: 0x156DA, offset: 0x156DA, size: 0x8, addend: 0x0, symName: __ZNSt3__117__compressed_pairIfNS_21__unordered_map_equalIcNS_17__hash_value_typeIc4NodeEENS_8equal_toIcEENS_4hashIcEELb1EEEEC1B8ne180100IfNS_18__default_init_tagEEEOT_OT0_, symObjAddr: 0x11C0, symBinAddr: 0x100001A20, symSize: 0x30 }
  - { offsetInCU: 0x15732, offset: 0x15732, size: 0x8, addend: 0x0, symName: __ZNSt3__110unique_ptrIA_PNS_16__hash_node_baseIPNS_11__hash_nodeINS_17__hash_value_typeIc4NodeEEPvEEEENS_25__bucket_list_deallocatorINS_9allocatorISA_EEEEEC2B8ne180100ILb1EvEEv, symObjAddr: 0x11F0, symBinAddr: 0x100001A50, symSize: 0x30 }
  - { offsetInCU: 0x15767, offset: 0x15767, size: 0x8, addend: 0x0, symName: __ZNSt3__117__compressed_pairIPPNS_16__hash_node_baseIPNS_11__hash_nodeINS_17__hash_value_typeIc4NodeEEPvEEEENS_25__bucket_list_deallocatorINS_9allocatorISA_EEEEEC1B8ne180100INS_16__value_init_tagESI_EEOT_OT0_, symObjAddr: 0x1220, symBinAddr: 0x100001A80, symSize: 0x30 }
  - { offsetInCU: 0x157BF, offset: 0x157BF, size: 0x8, addend: 0x0, symName: __ZNSt3__117__compressed_pairIPPNS_16__hash_node_baseIPNS_11__hash_nodeINS_17__hash_value_typeIc4NodeEEPvEEEENS_25__bucket_list_deallocatorINS_9allocatorISA_EEEEEC2B8ne180100INS_16__value_init_tagESI_EEOT_OT0_, symObjAddr: 0x1250, symBinAddr: 0x100001AB0, symSize: 0x40 }
  - { offsetInCU: 0x15817, offset: 0x15817, size: 0x8, addend: 0x0, symName: __ZNSt3__122__compressed_pair_elemIPPNS_16__hash_node_baseIPNS_11__hash_nodeINS_17__hash_value_typeIc4NodeEEPvEEEELi0ELb0EEC2B8ne180100ENS_16__value_init_tagE, symObjAddr: 0x1290, symBinAddr: 0x100001AF0, symSize: 0x20 }
  - { offsetInCU: 0x1584B, offset: 0x1584B, size: 0x8, addend: 0x0, symName: __ZNSt3__122__compressed_pair_elemINS_25__bucket_list_deallocatorINS_9allocatorIPNS_16__hash_node_baseIPNS_11__hash_nodeINS_17__hash_value_typeIc4NodeEEPvEEEEEEEELi1ELb0EEC2B8ne180100ENS_16__value_init_tagE, symObjAddr: 0x12B0, symBinAddr: 0x100001B10, symSize: 0x20 }
  - { offsetInCU: 0x1587F, offset: 0x1587F, size: 0x8, addend: 0x0, symName: __ZNSt3__125__bucket_list_deallocatorINS_9allocatorIPNS_16__hash_node_baseIPNS_11__hash_nodeINS_17__hash_value_typeIc4NodeEEPvEEEEEEEC1B8ne180100Ev, symObjAddr: 0x12D0, symBinAddr: 0x100001B30, symSize: 0x20 }
  - { offsetInCU: 0x158A9, offset: 0x158A9, size: 0x8, addend: 0x0, symName: __ZNSt3__125__bucket_list_deallocatorINS_9allocatorIPNS_16__hash_node_baseIPNS_11__hash_nodeINS_17__hash_value_typeIc4NodeEEPvEEEEEEEC2B8ne180100Ev, symObjAddr: 0x12F0, symBinAddr: 0x100001B50, symSize: 0x40 }
  - { offsetInCU: 0x158D3, offset: 0x158D3, size: 0x8, addend: 0x0, symName: __ZNSt3__117__compressed_pairImNS_9allocatorIPNS_16__hash_node_baseIPNS_11__hash_nodeINS_17__hash_value_typeIc4NodeEEPvEEEEEEEC1B8ne180100IiNS_18__default_init_tagEEEOT_OT0_, symObjAddr: 0x1330, symBinAddr: 0x100001B90, symSize: 0x30 }
  - { offsetInCU: 0x1592B, offset: 0x1592B, size: 0x8, addend: 0x0, symName: __ZNSt3__117__compressed_pairImNS_9allocatorIPNS_16__hash_node_baseIPNS_11__hash_nodeINS_17__hash_value_typeIc4NodeEEPvEEEEEEEC2B8ne180100IiNS_18__default_init_tagEEEOT_OT0_, symObjAddr: 0x1360, symBinAddr: 0x100001BC0, symSize: 0x40 }
  - { offsetInCU: 0x15983, offset: 0x15983, size: 0x8, addend: 0x0, symName: __ZNSt3__122__compressed_pair_elemImLi0ELb0EEC2B8ne180100IivEEOT_, symObjAddr: 0x13A0, symBinAddr: 0x100001C00, symSize: 0x20 }
  - { offsetInCU: 0x159C5, offset: 0x159C5, size: 0x8, addend: 0x0, symName: __ZNSt3__122__compressed_pair_elemINS_9allocatorIPNS_16__hash_node_baseIPNS_11__hash_nodeINS_17__hash_value_typeIc4NodeEEPvEEEEEELi1ELb1EEC2B8ne180100ENS_18__default_init_tagE, symObjAddr: 0x13C0, symBinAddr: 0x100001C20, symSize: 0x20 }
  - { offsetInCU: 0x159F9, offset: 0x159F9, size: 0x8, addend: 0x0, symName: __ZNSt3__19allocatorIPNS_16__hash_node_baseIPNS_11__hash_nodeINS_17__hash_value_typeIc4NodeEEPvEEEEEC2B8ne180100Ev, symObjAddr: 0x13E0, symBinAddr: 0x100001C40, symSize: 0x20 }
  - { offsetInCU: 0x15A23, offset: 0x15A23, size: 0x8, addend: 0x0, symName: __ZNSt3__116__non_trivial_ifILb1ENS_9allocatorIPNS_16__hash_node_baseIPNS_11__hash_nodeINS_17__hash_value_typeIc4NodeEEPvEEEEEEEC2B8ne180100Ev, symObjAddr: 0x1400, symBinAddr: 0x100001C60, symSize: 0x10 }
  - { offsetInCU: 0x15A4D, offset: 0x15A4D, size: 0x8, addend: 0x0, symName: __ZNSt3__117__compressed_pairINS_16__hash_node_baseIPNS_11__hash_nodeINS_17__hash_value_typeIc4NodeEEPvEEEENS_9allocatorIS7_EEEC2B8ne180100ILb1EvEEv, symObjAddr: 0x1410, symBinAddr: 0x100001C70, symSize: 0x30 }
  - { offsetInCU: 0x15A82, offset: 0x15A82, size: 0x8, addend: 0x0, symName: __ZNSt3__122__compressed_pair_elemINS_16__hash_node_baseIPNS_11__hash_nodeINS_17__hash_value_typeIc4NodeEEPvEEEELi0ELb0EEC2B8ne180100ENS_16__value_init_tagE, symObjAddr: 0x1440, symBinAddr: 0x100001CA0, symSize: 0x20 }
  - { offsetInCU: 0x15AB6, offset: 0x15AB6, size: 0x8, addend: 0x0, symName: __ZNSt3__122__compressed_pair_elemINS_9allocatorINS_11__hash_nodeINS_17__hash_value_typeIc4NodeEEPvEEEELi1ELb1EEC2B8ne180100ENS_16__value_init_tagE, symObjAddr: 0x1460, symBinAddr: 0x100001CC0, symSize: 0x20 }
  - { offsetInCU: 0x15AEA, offset: 0x15AEA, size: 0x8, addend: 0x0, symName: __ZNSt3__116__hash_node_baseIPNS_11__hash_nodeINS_17__hash_value_typeIc4NodeEEPvEEEC1B8ne180100Ev, symObjAddr: 0x1480, symBinAddr: 0x100001CE0, symSize: 0x20 }
  - { offsetInCU: 0x15B14, offset: 0x15B14, size: 0x8, addend: 0x0, symName: __ZNSt3__116__hash_node_baseIPNS_11__hash_nodeINS_17__hash_value_typeIc4NodeEEPvEEEC2B8ne180100Ev, symObjAddr: 0x14A0, symBinAddr: 0x100001D00, symSize: 0x20 }
  - { offsetInCU: 0x15B3E, offset: 0x15B3E, size: 0x8, addend: 0x0, symName: __ZNSt3__19allocatorINS_11__hash_nodeINS_17__hash_value_typeIc4NodeEEPvEEEC2B8ne180100Ev, symObjAddr: 0x14C0, symBinAddr: 0x100001D20, symSize: 0x20 }
  - { offsetInCU: 0x15B68, offset: 0x15B68, size: 0x8, addend: 0x0, symName: __ZNSt3__116__non_trivial_ifILb1ENS_9allocatorINS_11__hash_nodeINS_17__hash_value_typeIc4NodeEEPvEEEEEC2B8ne180100Ev, symObjAddr: 0x14E0, symBinAddr: 0x100001D40, symSize: 0x10 }
  - { offsetInCU: 0x15B92, offset: 0x15B92, size: 0x8, addend: 0x0, symName: __ZNSt3__117__compressed_pairImNS_22__unordered_map_hasherIcNS_17__hash_value_typeIc4NodeEENS_4hashIcEENS_8equal_toIcEELb1EEEEC2B8ne180100IiNS_18__default_init_tagEEEOT_OT0_, symObjAddr: 0x14F0, symBinAddr: 0x100001D50, symSize: 0x40 }
  - { offsetInCU: 0x15BEA, offset: 0x15BEA, size: 0x8, addend: 0x0, symName: __ZNSt3__122__compressed_pair_elemINS_22__unordered_map_hasherIcNS_17__hash_value_typeIc4NodeEENS_4hashIcEENS_8equal_toIcEELb1EEELi1ELb1EEC2B8ne180100ENS_18__default_init_tagE, symObjAddr: 0x1530, symBinAddr: 0x100001D90, symSize: 0x20 }
  - { offsetInCU: 0x15C1E, offset: 0x15C1E, size: 0x8, addend: 0x0, symName: __ZNSt3__122__unordered_map_hasherIcNS_17__hash_value_typeIc4NodeEENS_4hashIcEENS_8equal_toIcEELb1EEC2B8ne180100Ev, symObjAddr: 0x1550, symBinAddr: 0x100001DB0, symSize: 0x10 }
  - { offsetInCU: 0x15C48, offset: 0x15C48, size: 0x8, addend: 0x0, symName: __ZNSt3__117__compressed_pairIfNS_21__unordered_map_equalIcNS_17__hash_value_typeIc4NodeEENS_8equal_toIcEENS_4hashIcEELb1EEEEC2B8ne180100IfNS_18__default_init_tagEEEOT_OT0_, symObjAddr: 0x1560, symBinAddr: 0x100001DC0, symSize: 0x40 }
  - { offsetInCU: 0x15CA0, offset: 0x15CA0, size: 0x8, addend: 0x0, symName: __ZNSt3__122__compressed_pair_elemIfLi0ELb0EEC2B8ne180100IfvEEOT_, symObjAddr: 0x15A0, symBinAddr: 0x100001E00, symSize: 0x20 }
  - { offsetInCU: 0x15CE2, offset: 0x15CE2, size: 0x8, addend: 0x0, symName: __ZNSt3__122__compressed_pair_elemINS_21__unordered_map_equalIcNS_17__hash_value_typeIc4NodeEENS_8equal_toIcEENS_4hashIcEELb1EEELi1ELb1EEC2B8ne180100ENS_18__default_init_tagE, symObjAddr: 0x15C0, symBinAddr: 0x100001E20, symSize: 0x20 }
  - { offsetInCU: 0x15D16, offset: 0x15D16, size: 0x8, addend: 0x0, symName: __ZNSt3__121__unordered_map_equalIcNS_17__hash_value_typeIc4NodeEENS_8equal_toIcEENS_4hashIcEELb1EEC2B8ne180100Ev, symObjAddr: 0x15E0, symBinAddr: 0x100001E40, symSize: 0x10 }
  - { offsetInCU: 0x15D40, offset: 0x15D40, size: 0x8, addend: 0x0, symName: __ZNKSt3__112basic_stringIcNS_11char_traitsIcEENS_9allocatorIcEEE4dataB8ne180100Ev, symObjAddr: 0x15F0, symBinAddr: 0x100001E50, symSize: 0x30 }
  - { offsetInCU: 0x15D66, offset: 0x15D66, size: 0x8, addend: 0x0, symName: __ZNSt3__117basic_string_viewIcNS_11char_traitsIcEEEC1B8ne180100EPKcm, symObjAddr: 0x1620, symBinAddr: 0x100001E80, symSize: 0x30 }
  - { offsetInCU: 0x15DAE, offset: 0x15DAE, size: 0x8, addend: 0x0, symName: __ZNKSt3__112basic_stringIcNS_11char_traitsIcEENS_9allocatorIcEEE13__get_pointerB8ne180100Ev, symObjAddr: 0x1660, symBinAddr: 0x100001EC0, symSize: 0x50 }
  - { offsetInCU: 0x15DD4, offset: 0x15DD4, size: 0x8, addend: 0x0, symName: __ZNKSt3__112basic_stringIcNS_11char_traitsIcEENS_9allocatorIcEEE9__is_longB8ne180100Ev, symObjAddr: 0x16B0, symBinAddr: 0x100001F10, symSize: 0x30 }
  - { offsetInCU: 0x15DFA, offset: 0x15DFA, size: 0x8, addend: 0x0, symName: __ZNKSt3__112basic_stringIcNS_11char_traitsIcEENS_9allocatorIcEEE18__get_long_pointerB8ne180100Ev, symObjAddr: 0x16E0, symBinAddr: 0x100001F40, symSize: 0x20 }
  - { offsetInCU: 0x15E20, offset: 0x15E20, size: 0x8, addend: 0x0, symName: __ZNKSt3__112basic_stringIcNS_11char_traitsIcEENS_9allocatorIcEEE19__get_short_pointerB8ne180100Ev, symObjAddr: 0x1700, symBinAddr: 0x100001F60, symSize: 0x30 }
  - { offsetInCU: 0x15E46, offset: 0x15E46, size: 0x8, addend: 0x0, symName: __ZNKSt3__117__compressed_pairINS_12basic_stringIcNS_11char_traitsIcEENS_9allocatorIcEEE5__repES5_E5firstB8ne180100Ev, symObjAddr: 0x1730, symBinAddr: 0x100001F90, symSize: 0x20 }
  - { offsetInCU: 0x15E6C, offset: 0x15E6C, size: 0x8, addend: 0x0, symName: __ZNKSt3__122__compressed_pair_elemINS_12basic_stringIcNS_11char_traitsIcEENS_9allocatorIcEEE5__repELi0ELb0EE5__getB8ne180100Ev, symObjAddr: 0x1750, symBinAddr: 0x100001FB0, symSize: 0x10 }
  - { offsetInCU: 0x15E92, offset: 0x15E92, size: 0x8, addend: 0x0, symName: __ZNSt3__114pointer_traitsIPKcE10pointer_toB8ne180100ERS1_, symObjAddr: 0x1760, symBinAddr: 0x100001FC0, symSize: 0x10 }
  - { offsetInCU: 0x15EB5, offset: 0x15EB5, size: 0x8, addend: 0x0, symName: __ZNSt3__117basic_string_viewIcNS_11char_traitsIcEEEC2B8ne180100EPKcm, symObjAddr: 0x1770, symBinAddr: 0x100001FD0, symSize: 0x30 }
  - { offsetInCU: 0x15EFD, offset: 0x15EFD, size: 0x8, addend: 0x0, symName: __ZN4NodeD2Ev, symObjAddr: 0x17A0, symBinAddr: 0x100002000, symSize: 0x20 }
  - { offsetInCU: 0x15F29, offset: 0x15F29, size: 0x8, addend: 0x0, symName: __ZNSt3__113unordered_mapIc4NodeNS_4hashIcEENS_8equal_toIcEENS_9allocatorINS_4pairIKcS1_EEEEED1B8ne180100Ev, symObjAddr: 0x17C0, symBinAddr: 0x100002020, symSize: 0x20 }
  - { offsetInCU: 0x15F53, offset: 0x15F53, size: 0x8, addend: 0x0, symName: __ZNSt3__113unordered_mapIc4NodeNS_4hashIcEENS_8equal_toIcEENS_9allocatorINS_4pairIKcS1_EEEEED2B8ne180100Ev, symObjAddr: 0x17E0, symBinAddr: 0x100002040, symSize: 0x20 }
  - { offsetInCU: 0x15F7D, offset: 0x15F7D, size: 0x8, addend: 0x0, symName: __ZNSt3__112__hash_tableINS_17__hash_value_typeIc4NodeEENS_22__unordered_map_hasherIcS3_NS_4hashIcEENS_8equal_toIcEELb1EEENS_21__unordered_map_equalIcS3_S8_S6_Lb1EEENS_9allocatorIS3_EEED1Ev, symObjAddr: 0x1800, symBinAddr: 0x100002060, symSize: 0x20 }
  - { offsetInCU: 0x15FA9, offset: 0x15FA9, size: 0x8, addend: 0x0, symName: __ZNSt3__112__hash_tableINS_17__hash_value_typeIc4NodeEENS_22__unordered_map_hasherIcS3_NS_4hashIcEENS_8equal_toIcEELb1EEENS_21__unordered_map_equalIcS3_S8_S6_Lb1EEENS_9allocatorIS3_EEED2Ev, symObjAddr: 0x1820, symBinAddr: 0x100002080, symSize: 0x40 }
  - { offsetInCU: 0x15FD5, offset: 0x15FD5, size: 0x8, addend: 0x0, symName: __ZNSt3__112__hash_tableINS_17__hash_value_typeIc4NodeEENS_22__unordered_map_hasherIcS3_NS_4hashIcEENS_8equal_toIcEELb1EEENS_21__unordered_map_equalIcS3_S8_S6_Lb1EEENS_9allocatorIS3_EEE17__deallocate_nodeEPNS_16__hash_node_baseIPNS_11__hash_nodeIS3_PvEEEE, symObjAddr: 0x1860, symBinAddr: 0x1000020C0, symSize: 0xC0 }
  - { offsetInCU: 0x1603F, offset: 0x1603F, size: 0x8, addend: 0x0, symName: __ZNSt3__117__compressed_pairINS_16__hash_node_baseIPNS_11__hash_nodeINS_17__hash_value_typeIc4NodeEEPvEEEENS_9allocatorIS7_EEE5firstB8ne180100Ev, symObjAddr: 0x1920, symBinAddr: 0x100002180, symSize: 0x20 }
  - { offsetInCU: 0x16065, offset: 0x16065, size: 0x8, addend: 0x0, symName: __ZNSt3__110unique_ptrIA_PNS_16__hash_node_baseIPNS_11__hash_nodeINS_17__hash_value_typeIc4NodeEEPvEEEENS_25__bucket_list_deallocatorINS_9allocatorISA_EEEEED1B8ne180100Ev, symObjAddr: 0x1940, symBinAddr: 0x1000021A0, symSize: 0x20 }
  - { offsetInCU: 0x1608F, offset: 0x1608F, size: 0x8, addend: 0x0, symName: __ZNSt3__112__hash_tableINS_17__hash_value_typeIc4NodeEENS_22__unordered_map_hasherIcS3_NS_4hashIcEENS_8equal_toIcEELb1EEENS_21__unordered_map_equalIcS3_S8_S6_Lb1EEENS_9allocatorIS3_EEE12__node_allocB8ne180100Ev, symObjAddr: 0x1960, symBinAddr: 0x1000021C0, symSize: 0x20 }
  - { offsetInCU: 0x160B5, offset: 0x160B5, size: 0x8, addend: 0x0, symName: __ZNSt3__116__hash_node_baseIPNS_11__hash_nodeINS_17__hash_value_typeIc4NodeEEPvEEE8__upcastB8ne180100Ev, symObjAddr: 0x1980, symBinAddr: 0x1000021E0, symSize: 0x20 }
  - { offsetInCU: 0x160DB, offset: 0x160DB, size: 0x8, addend: 0x0, symName: __ZNSt3__116allocator_traitsINS_9allocatorINS_11__hash_nodeINS_17__hash_value_typeIc4NodeEEPvEEEEE7destroyB8ne180100INS_4pairIKcS4_EEvvEEvRS8_PT_, symObjAddr: 0x19A0, symBinAddr: 0x100002200, symSize: 0x20 }
  - { offsetInCU: 0x16116, offset: 0x16116, size: 0x8, addend: 0x0, symName: __ZNSt3__122__hash_key_value_typesINS_17__hash_value_typeIc4NodeEEE9__get_ptrB8ne180100ERS3_, symObjAddr: 0x19C0, symBinAddr: 0x100002220, symSize: 0x20 }
  - { offsetInCU: 0x16139, offset: 0x16139, size: 0x8, addend: 0x0, symName: __ZNSt3__111__hash_nodeINS_17__hash_value_typeIc4NodeEEPvE11__get_valueB8ne180100Ev, symObjAddr: 0x19E0, symBinAddr: 0x100002240, symSize: 0x20 }
  - { offsetInCU: 0x1615F, offset: 0x1615F, size: 0x8, addend: 0x0, symName: __ZNSt3__116allocator_traitsINS_9allocatorINS_11__hash_nodeINS_17__hash_value_typeIc4NodeEEPvEEEEE10deallocateB8ne180100ERS8_PS7_m, symObjAddr: 0x1A20, symBinAddr: 0x100002280, symSize: 0x30 }
  - { offsetInCU: 0x161A1, offset: 0x161A1, size: 0x8, addend: 0x0, symName: __ZNSt3__117__compressed_pairINS_16__hash_node_baseIPNS_11__hash_nodeINS_17__hash_value_typeIc4NodeEEPvEEEENS_9allocatorIS7_EEE6secondB8ne180100Ev, symObjAddr: 0x1A50, symBinAddr: 0x1000022B0, symSize: 0x20 }
  - { offsetInCU: 0x161C7, offset: 0x161C7, size: 0x8, addend: 0x0, symName: __ZNSt3__122__compressed_pair_elemINS_9allocatorINS_11__hash_nodeINS_17__hash_value_typeIc4NodeEEPvEEEELi1ELb1EE5__getB8ne180100Ev, symObjAddr: 0x1A70, symBinAddr: 0x1000022D0, symSize: 0x10 }
  - { offsetInCU: 0x161ED, offset: 0x161ED, size: 0x8, addend: 0x0, symName: __ZNSt3__114pointer_traitsIPNS_16__hash_node_baseIPNS_11__hash_nodeINS_17__hash_value_typeIc4NodeEEPvEEEEE10pointer_toB8ne180100ERS9_, symObjAddr: 0x1A80, symBinAddr: 0x1000022E0, symSize: 0x10 }
  - { offsetInCU: 0x16210, offset: 0x16210, size: 0x8, addend: 0x0, symName: __ZNSt3__14pairIKc4NodeED1Ev, symObjAddr: 0x1AB0, symBinAddr: 0x100002310, symSize: 0x20 }
  - { offsetInCU: 0x1623C, offset: 0x1623C, size: 0x8, addend: 0x0, symName: __ZNSt3__14pairIKc4NodeED2Ev, symObjAddr: 0x1AD0, symBinAddr: 0x100002330, symSize: 0x20 }
  - { offsetInCU: 0x16268, offset: 0x16268, size: 0x8, addend: 0x0, symName: __ZNSt3__117__hash_value_typeIc4NodeE11__get_valueB8ne180100Ev, symObjAddr: 0x1AF0, symBinAddr: 0x100002350, symSize: 0x20 }
  - { offsetInCU: 0x1628E, offset: 0x1628E, size: 0x8, addend: 0x0, symName: __ZNSt3__111__hash_nodeINS_17__hash_value_typeIc4NodeEEPvED1B8ne180100Ev, symObjAddr: 0x1B40, symBinAddr: 0x1000023A0, symSize: 0x20 }
  - { offsetInCU: 0x162B8, offset: 0x162B8, size: 0x8, addend: 0x0, symName: __ZNSt3__111__hash_nodeINS_17__hash_value_typeIc4NodeEEPvED2B8ne180100Ev, symObjAddr: 0x1B60, symBinAddr: 0x1000023C0, symSize: 0x10 }
  - { offsetInCU: 0x162E2, offset: 0x162E2, size: 0x8, addend: 0x0, symName: __ZNSt3__19allocatorINS_11__hash_nodeINS_17__hash_value_typeIc4NodeEEPvEEE10deallocateB8ne180100EPS6_m, symObjAddr: 0x1B70, symBinAddr: 0x1000023D0, symSize: 0x50 }
  - { offsetInCU: 0x16324, offset: 0x16324, size: 0x8, addend: 0x0, symName: __ZNSt3__122__compressed_pair_elemINS_16__hash_node_baseIPNS_11__hash_nodeINS_17__hash_value_typeIc4NodeEEPvEEEELi0ELb0EE5__getB8ne180100Ev, symObjAddr: 0x1CE0, symBinAddr: 0x100002540, symSize: 0x10 }
  - { offsetInCU: 0x1634A, offset: 0x1634A, size: 0x8, addend: 0x0, symName: __ZNSt3__110unique_ptrIA_PNS_16__hash_node_baseIPNS_11__hash_nodeINS_17__hash_value_typeIc4NodeEEPvEEEENS_25__bucket_list_deallocatorINS_9allocatorISA_EEEEED2B8ne180100Ev, symObjAddr: 0x1CF0, symBinAddr: 0x100002550, symSize: 0x20 }
  - { offsetInCU: 0x16374, offset: 0x16374, size: 0x8, addend: 0x0, symName: __ZNSt3__110unique_ptrIA_PNS_16__hash_node_baseIPNS_11__hash_nodeINS_17__hash_value_typeIc4NodeEEPvEEEENS_25__bucket_list_deallocatorINS_9allocatorISA_EEEEE5resetB8ne180100EDn, symObjAddr: 0x1D10, symBinAddr: 0x100002570, symSize: 0x60 }
  - { offsetInCU: 0x163B5, offset: 0x163B5, size: 0x8, addend: 0x0, symName: __ZNSt3__117__compressed_pairIPPNS_16__hash_node_baseIPNS_11__hash_nodeINS_17__hash_value_typeIc4NodeEEPvEEEENS_25__bucket_list_deallocatorINS_9allocatorISA_EEEEE5firstB8ne180100Ev, symObjAddr: 0x1D70, symBinAddr: 0x1000025D0, symSize: 0x20 }
  - { offsetInCU: 0x163DB, offset: 0x163DB, size: 0x8, addend: 0x0, symName: __ZNSt3__117__compressed_pairIPPNS_16__hash_node_baseIPNS_11__hash_nodeINS_17__hash_value_typeIc4NodeEEPvEEEENS_25__bucket_list_deallocatorINS_9allocatorISA_EEEEE6secondB8ne180100Ev, symObjAddr: 0x1D90, symBinAddr: 0x1000025F0, symSize: 0x20 }
  - { offsetInCU: 0x16401, offset: 0x16401, size: 0x8, addend: 0x0, symName: __ZNSt3__125__bucket_list_deallocatorINS_9allocatorIPNS_16__hash_node_baseIPNS_11__hash_nodeINS_17__hash_value_typeIc4NodeEEPvEEEEEEEclB8ne180100EPSB_, symObjAddr: 0x1DB0, symBinAddr: 0x100002610, symSize: 0x50 }
  - { offsetInCU: 0x16436, offset: 0x16436, size: 0x8, addend: 0x0, symName: __ZNSt3__122__compressed_pair_elemIPPNS_16__hash_node_baseIPNS_11__hash_nodeINS_17__hash_value_typeIc4NodeEEPvEEEELi0ELb0EE5__getB8ne180100Ev, symObjAddr: 0x1E00, symBinAddr: 0x100002660, symSize: 0x10 }
  - { offsetInCU: 0x1645C, offset: 0x1645C, size: 0x8, addend: 0x0, symName: __ZNSt3__122__compressed_pair_elemINS_25__bucket_list_deallocatorINS_9allocatorIPNS_16__hash_node_baseIPNS_11__hash_nodeINS_17__hash_value_typeIc4NodeEEPvEEEEEEEELi1ELb0EE5__getB8ne180100Ev, symObjAddr: 0x1E10, symBinAddr: 0x100002670, symSize: 0x10 }
  - { offsetInCU: 0x16482, offset: 0x16482, size: 0x8, addend: 0x0, symName: __ZNSt3__116allocator_traitsINS_9allocatorIPNS_16__hash_node_baseIPNS_11__hash_nodeINS_17__hash_value_typeIc4NodeEEPvEEEEEEE10deallocateB8ne180100ERSC_PSB_m, symObjAddr: 0x1E20, symBinAddr: 0x100002680, symSize: 0x30 }
  - { offsetInCU: 0x164C4, offset: 0x164C4, size: 0x8, addend: 0x0, symName: __ZNSt3__125__bucket_list_deallocatorINS_9allocatorIPNS_16__hash_node_baseIPNS_11__hash_nodeINS_17__hash_value_typeIc4NodeEEPvEEEEEEE7__allocB8ne180100Ev, symObjAddr: 0x1E50, symBinAddr: 0x1000026B0, symSize: 0x20 }
  - { offsetInCU: 0x164EA, offset: 0x164EA, size: 0x8, addend: 0x0, symName: __ZNSt3__125__bucket_list_deallocatorINS_9allocatorIPNS_16__hash_node_baseIPNS_11__hash_nodeINS_17__hash_value_typeIc4NodeEEPvEEEEEEE4sizeB8ne180100Ev, symObjAddr: 0x1E70, symBinAddr: 0x1000026D0, symSize: 0x20 }
  - { offsetInCU: 0x16510, offset: 0x16510, size: 0x8, addend: 0x0, symName: __ZNSt3__19allocatorIPNS_16__hash_node_baseIPNS_11__hash_nodeINS_17__hash_value_typeIc4NodeEEPvEEEEE10deallocateB8ne180100EPSA_m, symObjAddr: 0x1E90, symBinAddr: 0x1000026F0, symSize: 0x40 }
  - { offsetInCU: 0x16552, offset: 0x16552, size: 0x8, addend: 0x0, symName: __ZNSt3__117__compressed_pairImNS_9allocatorIPNS_16__hash_node_baseIPNS_11__hash_nodeINS_17__hash_value_typeIc4NodeEEPvEEEEEEE6secondB8ne180100Ev, symObjAddr: 0x1ED0, symBinAddr: 0x100002730, symSize: 0x20 }
  - { offsetInCU: 0x16578, offset: 0x16578, size: 0x8, addend: 0x0, symName: __ZNSt3__122__compressed_pair_elemINS_9allocatorIPNS_16__hash_node_baseIPNS_11__hash_nodeINS_17__hash_value_typeIc4NodeEEPvEEEEEELi1ELb1EE5__getB8ne180100Ev, symObjAddr: 0x1EF0, symBinAddr: 0x100002750, symSize: 0x10 }
  - { offsetInCU: 0x1659E, offset: 0x1659E, size: 0x8, addend: 0x0, symName: __ZNSt3__117__compressed_pairImNS_9allocatorIPNS_16__hash_node_baseIPNS_11__hash_nodeINS_17__hash_value_typeIc4NodeEEPvEEEEEEE5firstB8ne180100Ev, symObjAddr: 0x1F00, symBinAddr: 0x100002760, symSize: 0x20 }
  - { offsetInCU: 0x165C4, offset: 0x165C4, size: 0x8, addend: 0x0, symName: __ZNSt3__122__compressed_pair_elemImLi0ELb0EE5__getB8ne180100Ev, symObjAddr: 0x1F20, symBinAddr: 0x100002780, symSize: 0x10 }
  - { offsetInCU: 0x165EA, offset: 0x165EA, size: 0x8, addend: 0x0, symName: __ZNKSt3__112basic_stringIcNS_11char_traitsIcEENS_9allocatorIcEEE15__get_long_sizeB8ne180100Ev, symObjAddr: 0x1F30, symBinAddr: 0x100002790, symSize: 0x20 }
  - { offsetInCU: 0x16610, offset: 0x16610, size: 0x8, addend: 0x0, symName: __ZNKSt3__112basic_stringIcNS_11char_traitsIcEENS_9allocatorIcEEE16__get_short_sizeB8ne180100Ev, symObjAddr: 0x1F50, symBinAddr: 0x1000027B0, symSize: 0x30 }
  - { offsetInCU: 0x16636, offset: 0x16636, size: 0x8, addend: 0x0, symName: __ZNSt3__112basic_stringIcNS_11char_traitsIcEENS_9allocatorIcEEE13__fits_in_ssoB8ne180100Em, symObjAddr: 0x1F80, symBinAddr: 0x1000027E0, symSize: 0x20 }
  - { offsetInCU: 0x1665A, offset: 0x1665A, size: 0x8, addend: 0x0, symName: __ZNSt3__15queueImNS_5dequeImNS_9allocatorImEEEEED2Ev, symObjAddr: 0x1FA0, symBinAddr: 0x100002800, symSize: 0x20 }
  - { offsetInCU: 0x16687, offset: 0x16687, size: 0x8, addend: 0x0, symName: __ZNSt3__15dequeImNS_9allocatorImEEED1B8ne180100Ev, symObjAddr: 0x1FC0, symBinAddr: 0x100002820, symSize: 0x20 }
  - { offsetInCU: 0x166B1, offset: 0x166B1, size: 0x8, addend: 0x0, symName: __ZNSt3__15dequeImNS_9allocatorImEEED2B8ne180100Ev, symObjAddr: 0x1FE0, symBinAddr: 0x100002840, symSize: 0x90 }
  - { offsetInCU: 0x16707, offset: 0x16707, size: 0x8, addend: 0x0, symName: __ZNSt3__15dequeImNS_9allocatorImEEE5clearEv, symObjAddr: 0x2070, symBinAddr: 0x1000028D0, symSize: 0x1A0 }
  - { offsetInCU: 0x16762, offset: 0x16762, size: 0x8, addend: 0x0, symName: __ZNKSt3__15dequeImNS_9allocatorImEEE17__annotate_deleteB8ne180100Ev, symObjAddr: 0x2210, symBinAddr: 0x100002A70, symSize: 0x10 }
  - { offsetInCU: 0x16788, offset: 0x16788, size: 0x8, addend: 0x0, symName: __ZNSt3__114__split_bufferIPmNS_9allocatorIS1_EEE5beginB8ne180100Ev, symObjAddr: 0x2220, symBinAddr: 0x100002A80, symSize: 0x20 }
  - { offsetInCU: 0x167AE, offset: 0x167AE, size: 0x8, addend: 0x0, symName: __ZNSt3__114__split_bufferIPmNS_9allocatorIS1_EEE3endB8ne180100Ev, symObjAddr: 0x2240, symBinAddr: 0x100002AA0, symSize: 0x20 }
  - { offsetInCU: 0x167D4, offset: 0x167D4, size: 0x8, addend: 0x0, symName: __ZNSt3__116allocator_traitsINS_9allocatorImEEE10deallocateB8ne180100ERS2_Pmm, symObjAddr: 0x2260, symBinAddr: 0x100002AC0, symSize: 0x30 }
  - { offsetInCU: 0x16816, offset: 0x16816, size: 0x8, addend: 0x0, symName: __ZNSt3__15dequeImNS_9allocatorImEEE7__allocB8ne180100Ev, symObjAddr: 0x2290, symBinAddr: 0x100002AF0, symSize: 0x20 }
  - { offsetInCU: 0x1683C, offset: 0x1683C, size: 0x8, addend: 0x0, symName: __ZNSt3__114__split_bufferIPmNS_9allocatorIS1_EEED1Ev, symObjAddr: 0x22B0, symBinAddr: 0x100002B10, symSize: 0x20 }
  - { offsetInCU: 0x16868, offset: 0x16868, size: 0x8, addend: 0x0, symName: __ZNSt3__15dequeImNS_9allocatorImEEE5beginB8ne180100Ev, symObjAddr: 0x22D0, symBinAddr: 0x100002B30, symSize: 0xB0 }
  - { offsetInCU: 0x1689D, offset: 0x1689D, size: 0x8, addend: 0x0, symName: __ZNSt3__15dequeImNS_9allocatorImEEE3endB8ne180100Ev, symObjAddr: 0x2380, symBinAddr: 0x100002BE0, symSize: 0xB0 }
  - { offsetInCU: 0x168E1, offset: 0x168E1, size: 0x8, addend: 0x0, symName: __ZNSt3__116allocator_traitsINS_9allocatorImEEE7destroyB8ne180100ImvvEEvRS2_PT_, symObjAddr: 0x2460, symBinAddr: 0x100002CC0, symSize: 0x20 }
  - { offsetInCU: 0x1691C, offset: 0x1691C, size: 0x8, addend: 0x0, symName: __ZNKSt3__116__deque_iteratorImPmRmPS1_lLl512EEdeB8ne180100Ev, symObjAddr: 0x2480, symBinAddr: 0x100002CE0, symSize: 0x20 }
  - { offsetInCU: 0x16942, offset: 0x16942, size: 0x8, addend: 0x0, symName: __ZNSt3__116__deque_iteratorImPmRmPS1_lLl512EEppB8ne180100Ev, symObjAddr: 0x24A0, symBinAddr: 0x100002D00, symSize: 0x60 }
  - { offsetInCU: 0x16968, offset: 0x16968, size: 0x8, addend: 0x0, symName: __ZNSt3__15dequeImNS_9allocatorImEEE6__sizeB8ne180100Ev, symObjAddr: 0x2500, symBinAddr: 0x100002D60, symSize: 0x20 }
  - { offsetInCU: 0x1698E, offset: 0x1698E, size: 0x8, addend: 0x0, symName: __ZNKSt3__114__split_bufferIPmNS_9allocatorIS1_EEE4sizeB8ne180100Ev, symObjAddr: 0x2520, symBinAddr: 0x100002D80, symSize: 0x20 }
  - { offsetInCU: 0x169B4, offset: 0x169B4, size: 0x8, addend: 0x0, symName: __ZNSt3__114__split_bufferIPmNS_9allocatorIS1_EEE5frontB8ne180100Ev, symObjAddr: 0x2540, symBinAddr: 0x100002DA0, symSize: 0x20 }
  - { offsetInCU: 0x169DA, offset: 0x169DA, size: 0x8, addend: 0x0, symName: __ZNSt3__114__split_bufferIPmNS_9allocatorIS1_EEE9pop_frontB8ne180100Ev, symObjAddr: 0x2560, symBinAddr: 0x100002DC0, symSize: 0x30 }
  - { offsetInCU: 0x16A00, offset: 0x16A00, size: 0x8, addend: 0x0, symName: __ZNKSt3__15dequeImNS_9allocatorImEEE14__annotate_newB8ne180100Em, symObjAddr: 0x2590, symBinAddr: 0x100002DF0, symSize: 0x10 }
  - { offsetInCU: 0x16A35, offset: 0x16A35, size: 0x8, addend: 0x0, symName: __ZNKSt3__114__split_bufferIPmNS_9allocatorIS1_EEE5emptyB8ne180100Ev, symObjAddr: 0x25A0, symBinAddr: 0x100002E00, symSize: 0x20 }
  - { offsetInCU: 0x16A5B, offset: 0x16A5B, size: 0x8, addend: 0x0, symName: __ZNSt3__116__deque_iteratorImPmRmPS1_lLl512EEC1B8ne180100ES3_S1_, symObjAddr: 0x25C0, symBinAddr: 0x100002E20, symSize: 0x30 }
  - { offsetInCU: 0x16AA3, offset: 0x16AA3, size: 0x8, addend: 0x0, symName: __ZNSt3__116__deque_iteratorImPmRmPS1_lLl512EEC2B8ne180100ES3_S1_, symObjAddr: 0x25F0, symBinAddr: 0x100002E50, symSize: 0x30 }
  - { offsetInCU: 0x16AEB, offset: 0x16AEB, size: 0x8, addend: 0x0, symName: __ZNKSt3__15dequeImNS_9allocatorImEEE4sizeB8ne180100Ev, symObjAddr: 0x2620, symBinAddr: 0x100002E80, symSize: 0x20 }
  - { offsetInCU: 0x16B11, offset: 0x16B11, size: 0x8, addend: 0x0, symName: __ZNKSt3__15dequeImNS_9allocatorImEEE6__sizeB8ne180100Ev, symObjAddr: 0x2640, symBinAddr: 0x100002EA0, symSize: 0x20 }
  - { offsetInCU: 0x16B37, offset: 0x16B37, size: 0x8, addend: 0x0, symName: __ZNKSt3__117__compressed_pairImNS_9allocatorImEEE5firstB8ne180100Ev, symObjAddr: 0x2660, symBinAddr: 0x100002EC0, symSize: 0x20 }
  - { offsetInCU: 0x16B5D, offset: 0x16B5D, size: 0x8, addend: 0x0, symName: __ZNKSt3__122__compressed_pair_elemImLi0ELb0EE5__getB8ne180100Ev, symObjAddr: 0x2680, symBinAddr: 0x100002EE0, symSize: 0x10 }
  - { offsetInCU: 0x16B83, offset: 0x16B83, size: 0x8, addend: 0x0, symName: __ZNSt3__117__compressed_pairImNS_9allocatorImEEE5firstB8ne180100Ev, symObjAddr: 0x26D0, symBinAddr: 0x100002F30, symSize: 0x20 }
  - { offsetInCU: 0x16BA9, offset: 0x16BA9, size: 0x8, addend: 0x0, symName: __ZNSt3__114__split_bufferIPmNS_9allocatorIS1_EEE19__destruct_at_beginB8ne180100EPS1_, symObjAddr: 0x26F0, symBinAddr: 0x100002F50, symSize: 0x30 }
  - { offsetInCU: 0x16BDD, offset: 0x16BDD, size: 0x8, addend: 0x0, symName: __ZNSt3__114__split_bufferIPmNS_9allocatorIS1_EEE19__destruct_at_beginEPS1_NS_17integral_constantIbLb1EEE, symObjAddr: 0x2720, symBinAddr: 0x100002F80, symSize: 0x20 }
  - { offsetInCU: 0x16C1D, offset: 0x16C1D, size: 0x8, addend: 0x0, symName: __ZNSt3__19allocatorImE10deallocateB8ne180100EPmm, symObjAddr: 0x2740, symBinAddr: 0x100002FA0, symSize: 0x40 }
  - { offsetInCU: 0x16C5F, offset: 0x16C5F, size: 0x8, addend: 0x0, symName: __ZNSt3__117__compressed_pairImNS_9allocatorImEEE6secondB8ne180100Ev, symObjAddr: 0x2780, symBinAddr: 0x100002FE0, symSize: 0x20 }
  - { offsetInCU: 0x16C85, offset: 0x16C85, size: 0x8, addend: 0x0, symName: __ZNSt3__122__compressed_pair_elemINS_9allocatorImEELi1ELb1EE5__getB8ne180100Ev, symObjAddr: 0x27A0, symBinAddr: 0x100003000, symSize: 0x10 }
  - { offsetInCU: 0x16CAB, offset: 0x16CAB, size: 0x8, addend: 0x0, symName: __ZNSt3__114__split_bufferIPmNS_9allocatorIS1_EEED2Ev, symObjAddr: 0x27B0, symBinAddr: 0x100003010, symSize: 0x70 }
  - { offsetInCU: 0x16CD7, offset: 0x16CD7, size: 0x8, addend: 0x0, symName: __ZNSt3__114__split_bufferIPmNS_9allocatorIS1_EEE5clearB8ne180100Ev, symObjAddr: 0x2820, symBinAddr: 0x100003080, symSize: 0x20 }
  - { offsetInCU: 0x16CFD, offset: 0x16CFD, size: 0x8, addend: 0x0, symName: __ZNSt3__116allocator_traitsINS_9allocatorIPmEEE10deallocateB8ne180100ERS3_PS2_m, symObjAddr: 0x2840, symBinAddr: 0x1000030A0, symSize: 0x30 }
  - { offsetInCU: 0x16D3F, offset: 0x16D3F, size: 0x8, addend: 0x0, symName: __ZNSt3__114__split_bufferIPmNS_9allocatorIS1_EEE7__allocB8ne180100Ev, symObjAddr: 0x2870, symBinAddr: 0x1000030D0, symSize: 0x20 }
  - { offsetInCU: 0x16D65, offset: 0x16D65, size: 0x8, addend: 0x0, symName: __ZNKSt3__114__split_bufferIPmNS_9allocatorIS1_EEE8capacityB8ne180100Ev, symObjAddr: 0x2890, symBinAddr: 0x1000030F0, symSize: 0x30 }
  - { offsetInCU: 0x16D8B, offset: 0x16D8B, size: 0x8, addend: 0x0, symName: __ZNSt3__114__split_bufferIPmNS_9allocatorIS1_EEE17__destruct_at_endB8ne180100EPS1_, symObjAddr: 0x28C0, symBinAddr: 0x100003120, symSize: 0x30 }
  - { offsetInCU: 0x16DBF, offset: 0x16DBF, size: 0x8, addend: 0x0, symName: __ZNSt3__114__split_bufferIPmNS_9allocatorIS1_EEE17__destruct_at_endB8ne180100EPS1_NS_17integral_constantIbLb0EEE, symObjAddr: 0x28F0, symBinAddr: 0x100003150, symSize: 0x80 }
  - { offsetInCU: 0x16DFF, offset: 0x16DFF, size: 0x8, addend: 0x0, symName: __ZNSt3__116allocator_traitsINS_9allocatorIPmEEE7destroyB8ne180100IS2_vvEEvRS3_PT_, symObjAddr: 0x2970, symBinAddr: 0x1000031D0, symSize: 0x20 }
  - { offsetInCU: 0x16E3A, offset: 0x16E3A, size: 0x8, addend: 0x0, symName: __ZNSt3__19allocatorIPmE10deallocateB8ne180100EPS1_m, symObjAddr: 0x29B0, symBinAddr: 0x100003210, symSize: 0x40 }
  - { offsetInCU: 0x16E7C, offset: 0x16E7C, size: 0x8, addend: 0x0, symName: __ZNSt3__117__compressed_pairIPPmNS_9allocatorIS1_EEE6secondB8ne180100Ev, symObjAddr: 0x29F0, symBinAddr: 0x100003250, symSize: 0x20 }
  - { offsetInCU: 0x16EA2, offset: 0x16EA2, size: 0x8, addend: 0x0, symName: __ZNSt3__122__compressed_pair_elemINS_9allocatorIPmEELi1ELb1EE5__getB8ne180100Ev, symObjAddr: 0x2A10, symBinAddr: 0x100003270, symSize: 0x10 }
  - { offsetInCU: 0x16EC8, offset: 0x16EC8, size: 0x8, addend: 0x0, symName: __ZNKSt3__114__split_bufferIPmNS_9allocatorIS1_EEE9__end_capB8ne180100Ev, symObjAddr: 0x2A20, symBinAddr: 0x100003280, symSize: 0x20 }
  - { offsetInCU: 0x16EEE, offset: 0x16EEE, size: 0x8, addend: 0x0, symName: __ZNKSt3__117__compressed_pairIPPmNS_9allocatorIS1_EEE5firstB8ne180100Ev, symObjAddr: 0x2A40, symBinAddr: 0x1000032A0, symSize: 0x20 }
  - { offsetInCU: 0x16F14, offset: 0x16F14, size: 0x8, addend: 0x0, symName: __ZNKSt3__122__compressed_pair_elemIPPmLi0ELb0EE5__getB8ne180100Ev, symObjAddr: 0x2A60, symBinAddr: 0x1000032C0, symSize: 0x10 }
  - { offsetInCU: 0x16F63, offset: 0x16F63, size: 0x8, addend: 0x0, symName: __ZNSt3__112__hash_tableINS_17__hash_value_typeIc4NodeEENS_22__unordered_map_hasherIcS3_NS_4hashIcEENS_8equal_toIcEELb1EEENS_21__unordered_map_equalIcS3_S8_S6_Lb1EEENS_9allocatorIS3_EEE25__emplace_unique_key_argsIcJRKNS_21piecewise_construct_tENS_5tupleIJRKcEEENSJ_IJEEEEEENS_4pairINS_15__hash_iteratorIPNS_11__hash_nodeIS3_PvEEEEbEERKT_DpOT0_, symObjAddr: 0x2A70, symBinAddr: 0x1000032D0, symSize: 0x660 }
  - { offsetInCU: 0x1706B, offset: 0x1706B, size: 0x8, addend: 0x0, symName: __ZNKSt3__115__hash_iteratorIPNS_11__hash_nodeINS_17__hash_value_typeIc4NodeEEPvEEEptB8ne180100Ev, symObjAddr: 0x3110, symBinAddr: 0x100003970, symSize: 0x30 }
  - { offsetInCU: 0x17091, offset: 0x17091, size: 0x8, addend: 0x0, symName: __ZNSt3__112__hash_tableINS_17__hash_value_typeIc4NodeEENS_22__unordered_map_hasherIcS3_NS_4hashIcEENS_8equal_toIcEELb1EEENS_21__unordered_map_equalIcS3_S8_S6_Lb1EEENS_9allocatorIS3_EEE13hash_functionB8ne180100Ev, symObjAddr: 0x3140, symBinAddr: 0x1000039A0, symSize: 0x20 }
  - { offsetInCU: 0x170B7, offset: 0x170B7, size: 0x8, addend: 0x0, symName: __ZNKSt3__122__unordered_map_hasherIcNS_17__hash_value_typeIc4NodeEENS_4hashIcEENS_8equal_toIcEELb1EEclB8ne180100ERKc, symObjAddr: 0x3160, symBinAddr: 0x1000039C0, symSize: 0x30 }
  - { offsetInCU: 0x170EC, offset: 0x170EC, size: 0x8, addend: 0x0, symName: __ZNKSt3__112__hash_tableINS_17__hash_value_typeIc4NodeEENS_22__unordered_map_hasherIcS3_NS_4hashIcEENS_8equal_toIcEELb1EEENS_21__unordered_map_equalIcS3_S8_S6_Lb1EEENS_9allocatorIS3_EEE12bucket_countB8ne180100Ev, symObjAddr: 0x3190, symBinAddr: 0x1000039F0, symSize: 0x30 }
  - { offsetInCU: 0x17112, offset: 0x17112, size: 0x8, addend: 0x0, symName: __ZNKSt3__110unique_ptrIA_PNS_16__hash_node_baseIPNS_11__hash_nodeINS_17__hash_value_typeIc4NodeEEPvEEEENS_25__bucket_list_deallocatorINS_9allocatorISA_EEEEEixB8ne180100Em, symObjAddr: 0x3240, symBinAddr: 0x100003AA0, symSize: 0x30 }
  - { offsetInCU: 0x17147, offset: 0x17147, size: 0x8, addend: 0x0, symName: __ZNKSt3__116__hash_node_baseIPNS_11__hash_nodeINS_17__hash_value_typeIc4NodeEEPvEEE6__hashB8ne180100Ev, symObjAddr: 0x3270, symBinAddr: 0x100003AD0, symSize: 0x20 }
  - { offsetInCU: 0x1716D, offset: 0x1716D, size: 0x8, addend: 0x0, symName: __ZNSt3__112__hash_tableINS_17__hash_value_typeIc4NodeEENS_22__unordered_map_hasherIcS3_NS_4hashIcEENS_8equal_toIcEELb1EEENS_21__unordered_map_equalIcS3_S8_S6_Lb1EEENS_9allocatorIS3_EEE6key_eqB8ne180100Ev, symObjAddr: 0x3290, symBinAddr: 0x100003AF0, symSize: 0x20 }
  - { offsetInCU: 0x17193, offset: 0x17193, size: 0x8, addend: 0x0, symName: __ZNKSt3__121__unordered_map_equalIcNS_17__hash_value_typeIc4NodeEENS_8equal_toIcEENS_4hashIcEELb1EEclB8ne180100ERKS3_RKc, symObjAddr: 0x32B0, symBinAddr: 0x100003B10, symSize: 0x40 }
  - { offsetInCU: 0x171D7, offset: 0x171D7, size: 0x8, addend: 0x0, symName: __ZNSt3__112__hash_tableINS_17__hash_value_typeIc4NodeEENS_22__unordered_map_hasherIcS3_NS_4hashIcEENS_8equal_toIcEELb1EEENS_21__unordered_map_equalIcS3_S8_S6_Lb1EEENS_9allocatorIS3_EEE21__construct_node_hashIRKNS_21piecewise_construct_tEJNS_5tupleIJRKcEEENSJ_IJEEEEEENS_10unique_ptrINS_11__hash_nodeIS3_PvEENS_22__hash_node_destructorINSC_ISR_EEEEEEmOT_DpOT0_, symObjAddr: 0x32F0, symBinAddr: 0x100003B50, symSize: 0x160 }
  - { offsetInCU: 0x17273, offset: 0x17273, size: 0x8, addend: 0x0, symName: __ZNSt3__112__hash_tableINS_17__hash_value_typeIc4NodeEENS_22__unordered_map_hasherIcS3_NS_4hashIcEENS_8equal_toIcEELb1EEENS_21__unordered_map_equalIcS3_S8_S6_Lb1EEENS_9allocatorIS3_EEE4sizeB8ne180100Ev, symObjAddr: 0x3450, symBinAddr: 0x100003CB0, symSize: 0x20 }
  - { offsetInCU: 0x17299, offset: 0x17299, size: 0x8, addend: 0x0, symName: __ZNSt3__112__hash_tableINS_17__hash_value_typeIc4NodeEENS_22__unordered_map_hasherIcS3_NS_4hashIcEENS_8equal_toIcEELb1EEENS_21__unordered_map_equalIcS3_S8_S6_Lb1EEENS_9allocatorIS3_EEE15max_load_factorB8ne180100Ev, symObjAddr: 0x3470, symBinAddr: 0x100003CD0, symSize: 0x20 }
  - { offsetInCU: 0x172BF, offset: 0x172BF, size: 0x8, addend: 0x0, symName: __ZNSt3__112__hash_tableINS_17__hash_value_typeIc4NodeEENS_22__unordered_map_hasherIcS3_NS_4hashIcEENS_8equal_toIcEELb1EEENS_21__unordered_map_equalIcS3_S8_S6_Lb1EEENS_9allocatorIS3_EEE15__rehash_uniqueB8ne180100Em, symObjAddr: 0x3490, symBinAddr: 0x100003CF0, symSize: 0x30 }
  - { offsetInCU: 0x172F4, offset: 0x172F4, size: 0x8, addend: 0x0, symName: __ZNSt3__116__hash_node_baseIPNS_11__hash_nodeINS_17__hash_value_typeIc4NodeEEPvEEE5__ptrB8ne180100Ev, symObjAddr: 0x3550, symBinAddr: 0x100003DB0, symSize: 0x20 }
  - { offsetInCU: 0x1731A, offset: 0x1731A, size: 0x8, addend: 0x0, symName: __ZNKSt3__110unique_ptrINS_11__hash_nodeINS_17__hash_value_typeIc4NodeEEPvEENS_22__hash_node_destructorINS_9allocatorIS6_EEEEEptB8ne180100Ev, symObjAddr: 0x3570, symBinAddr: 0x100003DD0, symSize: 0x20 }
  - { offsetInCU: 0x17340, offset: 0x17340, size: 0x8, addend: 0x0, symName: __ZNKSt3__110unique_ptrINS_11__hash_nodeINS_17__hash_value_typeIc4NodeEEPvEENS_22__hash_node_destructorINS_9allocatorIS6_EEEEE3getB8ne180100Ev, symObjAddr: 0x3590, symBinAddr: 0x100003DF0, symSize: 0x20 }
  - { offsetInCU: 0x17366, offset: 0x17366, size: 0x8, addend: 0x0, symName: __ZNSt3__110unique_ptrINS_11__hash_nodeINS_17__hash_value_typeIc4NodeEEPvEENS_22__hash_node_destructorINS_9allocatorIS6_EEEEE7releaseB8ne180100Ev, symObjAddr: 0x35B0, symBinAddr: 0x100003E10, symSize: 0x40 }
  - { offsetInCU: 0x1739B, offset: 0x1739B, size: 0x8, addend: 0x0, symName: __ZNSt3__110unique_ptrINS_11__hash_nodeINS_17__hash_value_typeIc4NodeEEPvEENS_22__hash_node_destructorINS_9allocatorIS6_EEEEED1B8ne180100Ev, symObjAddr: 0x35F0, symBinAddr: 0x100003E50, symSize: 0x20 }
  - { offsetInCU: 0x173C5, offset: 0x173C5, size: 0x8, addend: 0x0, symName: __ZNSt3__115__hash_iteratorIPNS_11__hash_nodeINS_17__hash_value_typeIc4NodeEEPvEEEC1B8ne180100EPNS_16__hash_node_baseIS7_EE, symObjAddr: 0x3610, symBinAddr: 0x100003E70, symSize: 0x30 }
  - { offsetInCU: 0x1740A, offset: 0x1740A, size: 0x8, addend: 0x0, symName: __ZNSt3__14pairINS_15__hash_iteratorIPNS_11__hash_nodeINS_17__hash_value_typeIc4NodeEEPvEEEEbEC1B8ne180100IS9_RbLi0EEEOT_OT0_, symObjAddr: 0x3640, symBinAddr: 0x100003EA0, symSize: 0x30 }
  - { offsetInCU: 0x17468, offset: 0x17468, size: 0x8, addend: 0x0, symName: __ZNSt3__117__compressed_pairImNS_22__unordered_map_hasherIcNS_17__hash_value_typeIc4NodeEENS_4hashIcEENS_8equal_toIcEELb1EEEE6secondB8ne180100Ev, symObjAddr: 0x3670, symBinAddr: 0x100003ED0, symSize: 0x20 }
  - { offsetInCU: 0x1748E, offset: 0x1748E, size: 0x8, addend: 0x0, symName: __ZNSt3__122__compressed_pair_elemINS_22__unordered_map_hasherIcNS_17__hash_value_typeIc4NodeEENS_4hashIcEENS_8equal_toIcEELb1EEELi1ELb1EE5__getB8ne180100Ev, symObjAddr: 0x3690, symBinAddr: 0x100003EF0, symSize: 0x10 }
  - { offsetInCU: 0x174B4, offset: 0x174B4, size: 0x8, addend: 0x0, symName: __ZNKSt3__14hashIcEclB8ne180100Ec, symObjAddr: 0x36A0, symBinAddr: 0x100003F00, symSize: 0x20 }
  - { offsetInCU: 0x174E9, offset: 0x174E9, size: 0x8, addend: 0x0, symName: __ZNKSt3__110unique_ptrIA_PNS_16__hash_node_baseIPNS_11__hash_nodeINS_17__hash_value_typeIc4NodeEEPvEEEENS_25__bucket_list_deallocatorINS_9allocatorISA_EEEEE11get_deleterB8ne180100Ev, symObjAddr: 0x36C0, symBinAddr: 0x100003F20, symSize: 0x20 }
  - { offsetInCU: 0x1750F, offset: 0x1750F, size: 0x8, addend: 0x0, symName: __ZNKSt3__125__bucket_list_deallocatorINS_9allocatorIPNS_16__hash_node_baseIPNS_11__hash_nodeINS_17__hash_value_typeIc4NodeEEPvEEEEEEE4sizeB8ne180100Ev, symObjAddr: 0x36E0, symBinAddr: 0x100003F40, symSize: 0x20 }
  - { offsetInCU: 0x17535, offset: 0x17535, size: 0x8, addend: 0x0, symName: __ZNKSt3__117__compressed_pairIPPNS_16__hash_node_baseIPNS_11__hash_nodeINS_17__hash_value_typeIc4NodeEEPvEEEENS_25__bucket_list_deallocatorINS_9allocatorISA_EEEEE6secondB8ne180100Ev, symObjAddr: 0x3700, symBinAddr: 0x100003F60, symSize: 0x20 }
  - { offsetInCU: 0x1755B, offset: 0x1755B, size: 0x8, addend: 0x0, symName: __ZNKSt3__122__compressed_pair_elemINS_25__bucket_list_deallocatorINS_9allocatorIPNS_16__hash_node_baseIPNS_11__hash_nodeINS_17__hash_value_typeIc4NodeEEPvEEEEEEEELi1ELb0EE5__getB8ne180100Ev, symObjAddr: 0x3720, symBinAddr: 0x100003F80, symSize: 0x10 }
  - { offsetInCU: 0x17581, offset: 0x17581, size: 0x8, addend: 0x0, symName: __ZNKSt3__117__compressed_pairImNS_9allocatorIPNS_16__hash_node_baseIPNS_11__hash_nodeINS_17__hash_value_typeIc4NodeEEPvEEEEEEE5firstB8ne180100Ev, symObjAddr: 0x3730, symBinAddr: 0x100003F90, symSize: 0x20 }
  - { offsetInCU: 0x175A7, offset: 0x175A7, size: 0x8, addend: 0x0, symName: __ZNKSt3__117__compressed_pairIPPNS_16__hash_node_baseIPNS_11__hash_nodeINS_17__hash_value_typeIc4NodeEEPvEEEENS_25__bucket_list_deallocatorINS_9allocatorISA_EEEEE5firstB8ne180100Ev, symObjAddr: 0x3750, symBinAddr: 0x100003FB0, symSize: 0x20 }
  - { offsetInCU: 0x175CD, offset: 0x175CD, size: 0x8, addend: 0x0, symName: __ZNKSt3__122__compressed_pair_elemIPPNS_16__hash_node_baseIPNS_11__hash_nodeINS_17__hash_value_typeIc4NodeEEPvEEEELi0ELb0EE5__getB8ne180100Ev, symObjAddr: 0x3770, symBinAddr: 0x100003FD0, symSize: 0x10 }
  - { offsetInCU: 0x175F3, offset: 0x175F3, size: 0x8, addend: 0x0, symName: __ZNSt3__117__compressed_pairIfNS_21__unordered_map_equalIcNS_17__hash_value_typeIc4NodeEENS_8equal_toIcEENS_4hashIcEELb1EEEE6secondB8ne180100Ev, symObjAddr: 0x3780, symBinAddr: 0x100003FE0, symSize: 0x20 }
  - { offsetInCU: 0x17619, offset: 0x17619, size: 0x8, addend: 0x0, symName: __ZNSt3__122__compressed_pair_elemINS_21__unordered_map_equalIcNS_17__hash_value_typeIc4NodeEENS_8equal_toIcEENS_4hashIcEELb1EEELi1ELb1EE5__getB8ne180100Ev, symObjAddr: 0x37A0, symBinAddr: 0x100004000, symSize: 0x10 }
  - { offsetInCU: 0x1763F, offset: 0x1763F, size: 0x8, addend: 0x0, symName: __ZNKSt3__18equal_toIcEclB8ne180100ERKcS3_, symObjAddr: 0x37B0, symBinAddr: 0x100004010, symSize: 0x30 }
  - { offsetInCU: 0x17683, offset: 0x17683, size: 0x8, addend: 0x0, symName: __ZNKSt3__117__hash_value_typeIc4NodeE11__get_valueB8ne180100Ev, symObjAddr: 0x37E0, symBinAddr: 0x100004040, symSize: 0x20 }
  - { offsetInCU: 0x176A9, offset: 0x176A9, size: 0x8, addend: 0x0, symName: __ZNSt3__116allocator_traitsINS_9allocatorINS_11__hash_nodeINS_17__hash_value_typeIc4NodeEEPvEEEEE8allocateB8ne180100ERS8_m, symObjAddr: 0x3830, symBinAddr: 0x100004090, symSize: 0x30 }
  - { offsetInCU: 0x176DC, offset: 0x176DC, size: 0x8, addend: 0x0, symName: __ZNSt3__122__hash_node_destructorINS_9allocatorINS_11__hash_nodeINS_17__hash_value_typeIc4NodeEEPvEEEEEC1B8ne180100ERS8_b, symObjAddr: 0x3860, symBinAddr: 0x1000040C0, symSize: 0x40 }
  - { offsetInCU: 0x1772A, offset: 0x1772A, size: 0x8, addend: 0x0, symName: __ZNSt3__110unique_ptrINS_11__hash_nodeINS_17__hash_value_typeIc4NodeEEPvEENS_22__hash_node_destructorINS_9allocatorIS6_EEEEEC1B8ne180100ILb1EvEEPS6_NS_16__dependent_typeINS_27__unique_ptr_deleter_sfinaeISA_EEXT_EE20__good_rval_ref_typeE, symObjAddr: 0x38A0, symBinAddr: 0x100004100, symSize: 0x30 }
  - { offsetInCU: 0x1777B, offset: 0x1777B, size: 0x8, addend: 0x0, symName: __ZNKSt3__110unique_ptrINS_11__hash_nodeINS_17__hash_value_typeIc4NodeEEPvEENS_22__hash_node_destructorINS_9allocatorIS6_EEEEEdeB8ne180100Ev, symObjAddr: 0x3900, symBinAddr: 0x100004160, symSize: 0x20 }
  - { offsetInCU: 0x177A1, offset: 0x177A1, size: 0x8, addend: 0x0, symName: __ZNSt3__116allocator_traitsINS_9allocatorINS_11__hash_nodeINS_17__hash_value_typeIc4NodeEEPvEEEEE9constructB8ne180100INS_4pairIKcS4_EEJRKNS_21piecewise_construct_tENS_5tupleIJRSC_EEENSH_IJEEEEvvEEvRS8_PT_DpOT0_, symObjAddr: 0x3920, symBinAddr: 0x100004180, symSize: 0x40 }
  - { offsetInCU: 0x1781E, offset: 0x1781E, size: 0x8, addend: 0x0, symName: __ZNSt3__110unique_ptrINS_11__hash_nodeINS_17__hash_value_typeIc4NodeEEPvEENS_22__hash_node_destructorINS_9allocatorIS6_EEEEE11get_deleterB8ne180100Ev, symObjAddr: 0x3960, symBinAddr: 0x1000041C0, symSize: 0x20 }
  - { offsetInCU: 0x17844, offset: 0x17844, size: 0x8, addend: 0x0, symName: __ZNSt3__19allocatorINS_11__hash_nodeINS_17__hash_value_typeIc4NodeEEPvEEE8allocateB8ne180100Em, symObjAddr: 0x3980, symBinAddr: 0x1000041E0, symSize: 0x50 }
  - { offsetInCU: 0x17883, offset: 0x17883, size: 0x8, addend: 0x0, symName: __ZNSt3__116allocator_traitsINS_9allocatorINS_11__hash_nodeINS_17__hash_value_typeIc4NodeEEPvEEEEE8max_sizeB8ne180100IS8_vvEEmRKS8_, symObjAddr: 0x39D0, symBinAddr: 0x100004230, symSize: 0x30 }
  - { offsetInCU: 0x178AF, offset: 0x178AF, size: 0x8, addend: 0x0, symName: __ZNSt3__114numeric_limitsImE3maxB8ne180100Ev, symObjAddr: 0x3AA0, symBinAddr: 0x100004300, symSize: 0x10 }
  - { offsetInCU: 0x178C3, offset: 0x178C3, size: 0x8, addend: 0x0, symName: __ZNSt3__123__libcpp_numeric_limitsImLb1EE3maxB8ne180100Ev, symObjAddr: 0x3AB0, symBinAddr: 0x100004310, symSize: 0x10 }
  - { offsetInCU: 0x178D7, offset: 0x178D7, size: 0x8, addend: 0x0, symName: __ZNSt3__122__hash_node_destructorINS_9allocatorINS_11__hash_nodeINS_17__hash_value_typeIc4NodeEEPvEEEEEC2B8ne180100ERS8_b, symObjAddr: 0x3B10, symBinAddr: 0x100004370, symSize: 0x30 }
  - { offsetInCU: 0x1791F, offset: 0x1791F, size: 0x8, addend: 0x0, symName: __ZNSt3__110unique_ptrINS_11__hash_nodeINS_17__hash_value_typeIc4NodeEEPvEENS_22__hash_node_destructorINS_9allocatorIS6_EEEEEC2B8ne180100ILb1EvEEPS6_NS_16__dependent_typeINS_27__unique_ptr_deleter_sfinaeISA_EEXT_EE20__good_rval_ref_typeE, symObjAddr: 0x3B40, symBinAddr: 0x1000043A0, symSize: 0x40 }
  - { offsetInCU: 0x17970, offset: 0x17970, size: 0x8, addend: 0x0, symName: __ZNSt3__117__compressed_pairIPNS_11__hash_nodeINS_17__hash_value_typeIc4NodeEEPvEENS_22__hash_node_destructorINS_9allocatorIS6_EEEEEC1B8ne180100IRS7_SB_EEOT_OT0_, symObjAddr: 0x3B80, symBinAddr: 0x1000043E0, symSize: 0x30 }
  - { offsetInCU: 0x179C8, offset: 0x179C8, size: 0x8, addend: 0x0, symName: __ZNSt3__117__compressed_pairIPNS_11__hash_nodeINS_17__hash_value_typeIc4NodeEEPvEENS_22__hash_node_destructorINS_9allocatorIS6_EEEEEC2B8ne180100IRS7_SB_EEOT_OT0_, symObjAddr: 0x3BB0, symBinAddr: 0x100004410, symSize: 0x40 }
  - { offsetInCU: 0x17A20, offset: 0x17A20, size: 0x8, addend: 0x0, symName: __ZNSt3__122__compressed_pair_elemIPNS_11__hash_nodeINS_17__hash_value_typeIc4NodeEEPvEELi0ELb0EEC2B8ne180100IRS7_vEEOT_, symObjAddr: 0x3BF0, symBinAddr: 0x100004450, symSize: 0x20 }
  - { offsetInCU: 0x17A62, offset: 0x17A62, size: 0x8, addend: 0x0, symName: __ZNSt3__122__compressed_pair_elemINS_22__hash_node_destructorINS_9allocatorINS_11__hash_nodeINS_17__hash_value_typeIc4NodeEEPvEEEEEELi1ELb0EEC2B8ne180100ISA_vEEOT_, symObjAddr: 0x3C10, symBinAddr: 0x100004470, symSize: 0x30 }
  - { offsetInCU: 0x17AA4, offset: 0x17AA4, size: 0x8, addend: 0x0, symName: __ZNSt3__111__hash_nodeINS_17__hash_value_typeIc4NodeEEPvEC1B8ne180100EPNS_16__hash_node_baseIPS5_EEm, symObjAddr: 0x3C80, symBinAddr: 0x1000044E0, symSize: 0x30 }
  - { offsetInCU: 0x17AEA, offset: 0x17AEA, size: 0x8, addend: 0x0, symName: __ZNSt3__111__hash_nodeINS_17__hash_value_typeIc4NodeEEPvEC2B8ne180100EPNS_16__hash_node_baseIPS5_EEm, symObjAddr: 0x3CB0, symBinAddr: 0x100004510, symSize: 0x40 }
  - { offsetInCU: 0x17B30, offset: 0x17B30, size: 0x8, addend: 0x0, symName: __ZNSt3__116__hash_node_baseIPNS_11__hash_nodeINS_17__hash_value_typeIc4NodeEEPvEEEC2B8ne180100EPS8_, symObjAddr: 0x3CF0, symBinAddr: 0x100004550, symSize: 0x20 }
  - { offsetInCU: 0x17B68, offset: 0x17B68, size: 0x8, addend: 0x0, symName: __ZNKSt3__117__compressed_pairIPNS_11__hash_nodeINS_17__hash_value_typeIc4NodeEEPvEENS_22__hash_node_destructorINS_9allocatorIS6_EEEEE5firstB8ne180100Ev, symObjAddr: 0x3D10, symBinAddr: 0x100004570, symSize: 0x20 }
  - { offsetInCU: 0x17B8E, offset: 0x17B8E, size: 0x8, addend: 0x0, symName: __ZNKSt3__122__compressed_pair_elemIPNS_11__hash_nodeINS_17__hash_value_typeIc4NodeEEPvEELi0ELb0EE5__getB8ne180100Ev, symObjAddr: 0x3D30, symBinAddr: 0x100004590, symSize: 0x10 }
  - { offsetInCU: 0x17BB4, offset: 0x17BB4, size: 0x8, addend: 0x0, symName: __ZNSt3__14pairIKc4NodeEC1B8ne180100IJRS1_EJEEENS_21piecewise_construct_tENS_5tupleIJDpT_EEENS7_IJDpT0_EEE, symObjAddr: 0x3DC0, symBinAddr: 0x100004620, symSize: 0x40 }
  - { offsetInCU: 0x17C1B, offset: 0x17C1B, size: 0x8, addend: 0x0, symName: __ZNSt3__14pairIKc4NodeEC1B8ne180100IJRS1_EJEJLm0EEJEEENS_21piecewise_construct_tERNS_5tupleIJDpT_EEERNS7_IJDpT0_EEENS_15__tuple_indicesIJXspT1_EEEENSG_IJXspT2_EEEE, symObjAddr: 0x3E00, symBinAddr: 0x100004660, symSize: 0x30 }
  - { offsetInCU: 0x17CAB, offset: 0x17CAB, size: 0x8, addend: 0x0, symName: __ZNSt3__14pairIKc4NodeEC2B8ne180100IJRS1_EJEJLm0EEJEEENS_21piecewise_construct_tERNS_5tupleIJDpT_EEERNS7_IJDpT0_EEENS_15__tuple_indicesIJXspT1_EEEENSG_IJXspT2_EEEE, symObjAddr: 0x3E30, symBinAddr: 0x100004690, symSize: 0x50 }
  - { offsetInCU: 0x17D3B, offset: 0x17D3B, size: 0x8, addend: 0x0, symName: __ZNSt3__112__tuple_leafILm0ERKcLb0EE3getB8ne180100Ev, symObjAddr: 0x3EA0, symBinAddr: 0x100004700, symSize: 0x20 }
  - { offsetInCU: 0x17D61, offset: 0x17D61, size: 0x8, addend: 0x0, symName: __ZNSt3__117__compressed_pairIPNS_11__hash_nodeINS_17__hash_value_typeIc4NodeEEPvEENS_22__hash_node_destructorINS_9allocatorIS6_EEEEE6secondB8ne180100Ev, symObjAddr: 0x3EC0, symBinAddr: 0x100004720, symSize: 0x20 }
  - { offsetInCU: 0x17D87, offset: 0x17D87, size: 0x8, addend: 0x0, symName: __ZNSt3__122__compressed_pair_elemINS_22__hash_node_destructorINS_9allocatorINS_11__hash_nodeINS_17__hash_value_typeIc4NodeEEPvEEEEEELi1ELb0EE5__getB8ne180100Ev, symObjAddr: 0x3EE0, symBinAddr: 0x100004740, symSize: 0x10 }
  - { offsetInCU: 0x17DAD, offset: 0x17DAD, size: 0x8, addend: 0x0, symName: __ZNSt3__117__compressed_pairImNS_22__unordered_map_hasherIcNS_17__hash_value_typeIc4NodeEENS_4hashIcEENS_8equal_toIcEELb1EEEE5firstB8ne180100Ev, symObjAddr: 0x3EF0, symBinAddr: 0x100004750, symSize: 0x20 }
  - { offsetInCU: 0x17DD3, offset: 0x17DD3, size: 0x8, addend: 0x0, symName: __ZNSt3__117__compressed_pairIfNS_21__unordered_map_equalIcNS_17__hash_value_typeIc4NodeEENS_8equal_toIcEENS_4hashIcEELb1EEEE5firstB8ne180100Ev, symObjAddr: 0x3F10, symBinAddr: 0x100004770, symSize: 0x20 }
  - { offsetInCU: 0x17DF9, offset: 0x17DF9, size: 0x8, addend: 0x0, symName: __ZNSt3__122__compressed_pair_elemIfLi0ELb0EE5__getB8ne180100Ev, symObjAddr: 0x3F30, symBinAddr: 0x100004790, symSize: 0x10 }
  - { offsetInCU: 0x17E1F, offset: 0x17E1F, size: 0x8, addend: 0x0, symName: __ZNSt3__112__hash_tableINS_17__hash_value_typeIc4NodeEENS_22__unordered_map_hasherIcS3_NS_4hashIcEENS_8equal_toIcEELb1EEENS_21__unordered_map_equalIcS3_S8_S6_Lb1EEENS_9allocatorIS3_EEE8__rehashILb1EEEvm, symObjAddr: 0x3F40, symBinAddr: 0x1000047A0, symSize: 0x230 }
  - { offsetInCU: 0x17E6F, offset: 0x17E6F, size: 0x8, addend: 0x0, symName: __ZNSt3__112__hash_tableINS_17__hash_value_typeIc4NodeEENS_22__unordered_map_hasherIcS3_NS_4hashIcEENS_8equal_toIcEELb1EEENS_21__unordered_map_equalIcS3_S8_S6_Lb1EEENS_9allocatorIS3_EEE11__do_rehashILb1EEEvm, symObjAddr: 0x4170, symBinAddr: 0x1000049D0, symSize: 0x250 }
  - { offsetInCU: 0x17F52, offset: 0x17F52, size: 0x8, addend: 0x0, symName: __ZNSt3__110unique_ptrIA_PNS_16__hash_node_baseIPNS_11__hash_nodeINS_17__hash_value_typeIc4NodeEEPvEEEENS_25__bucket_list_deallocatorINS_9allocatorISA_EEEEE11get_deleterB8ne180100Ev, symObjAddr: 0x4420, symBinAddr: 0x100004C80, symSize: 0x20 }
  - { offsetInCU: 0x17F78, offset: 0x17F78, size: 0x8, addend: 0x0, symName: __ZNSt3__110unique_ptrIA_PNS_16__hash_node_baseIPNS_11__hash_nodeINS_17__hash_value_typeIc4NodeEEPvEEEENS_25__bucket_list_deallocatorINS_9allocatorISA_EEEEE5resetB8ne180100IPSA_Li0EEEvT_, symObjAddr: 0x4440, symBinAddr: 0x100004CA0, symSize: 0x70 }
  - { offsetInCU: 0x17FCB, offset: 0x17FCB, size: 0x8, addend: 0x0, symName: __ZNSt3__116allocator_traitsINS_9allocatorIPNS_16__hash_node_baseIPNS_11__hash_nodeINS_17__hash_value_typeIc4NodeEEPvEEEEEEE8allocateB8ne180100ERSC_m, symObjAddr: 0x44B0, symBinAddr: 0x100004D10, symSize: 0x30 }
  - { offsetInCU: 0x17FFE, offset: 0x17FFE, size: 0x8, addend: 0x0, symName: __ZNSt3__19allocatorIPNS_16__hash_node_baseIPNS_11__hash_nodeINS_17__hash_value_typeIc4NodeEEPvEEEEE8allocateB8ne180100Em, symObjAddr: 0x44E0, symBinAddr: 0x100004D40, symSize: 0x50 }
  - { offsetInCU: 0x1803D, offset: 0x1803D, size: 0x8, addend: 0x0, symName: __ZNSt3__116allocator_traitsINS_9allocatorIPNS_16__hash_node_baseIPNS_11__hash_nodeINS_17__hash_value_typeIc4NodeEEPvEEEEEEE8max_sizeB8ne180100ISC_vvEEmRKSC_, symObjAddr: 0x4530, symBinAddr: 0x100004D90, symSize: 0x20 }
  - { offsetInCU: 0x18074, offset: 0x18074, size: 0x8, addend: 0x0, symName: __ZNKSt3__16__lessIvvEclB8ne180100ImmEEbRKT_RKT0_, symObjAddr: 0x45C0, symBinAddr: 0x100004E20, symSize: 0x30 }
  - { offsetInCU: 0x180C8, offset: 0x180C8, size: 0x8, addend: 0x0, symName: __ZNSt3__117__compressed_pairIPNS_11__hash_nodeINS_17__hash_value_typeIc4NodeEEPvEENS_22__hash_node_destructorINS_9allocatorIS6_EEEEE5firstB8ne180100Ev, symObjAddr: 0x45F0, symBinAddr: 0x100004E50, symSize: 0x20 }
  - { offsetInCU: 0x180EE, offset: 0x180EE, size: 0x8, addend: 0x0, symName: __ZNSt3__122__compressed_pair_elemIPNS_11__hash_nodeINS_17__hash_value_typeIc4NodeEEPvEELi0ELb0EE5__getB8ne180100Ev, symObjAddr: 0x4610, symBinAddr: 0x100004E70, symSize: 0x10 }
  - { offsetInCU: 0x18114, offset: 0x18114, size: 0x8, addend: 0x0, symName: __ZNSt3__110unique_ptrINS_11__hash_nodeINS_17__hash_value_typeIc4NodeEEPvEENS_22__hash_node_destructorINS_9allocatorIS6_EEEEED2B8ne180100Ev, symObjAddr: 0x4620, symBinAddr: 0x100004E80, symSize: 0x20 }
  - { offsetInCU: 0x1813E, offset: 0x1813E, size: 0x8, addend: 0x0, symName: __ZNSt3__110unique_ptrINS_11__hash_nodeINS_17__hash_value_typeIc4NodeEEPvEENS_22__hash_node_destructorINS_9allocatorIS6_EEEEE5resetB8ne180100EPS6_, symObjAddr: 0x4640, symBinAddr: 0x100004EA0, symSize: 0x70 }
  - { offsetInCU: 0x18182, offset: 0x18182, size: 0x8, addend: 0x0, symName: __ZNSt3__122__hash_node_destructorINS_9allocatorINS_11__hash_nodeINS_17__hash_value_typeIc4NodeEEPvEEEEEclB8ne180100EPS7_, symObjAddr: 0x46B0, symBinAddr: 0x100004F10, symSize: 0x90 }
  - { offsetInCU: 0x181B7, offset: 0x181B7, size: 0x8, addend: 0x0, symName: __ZNSt3__115__hash_iteratorIPNS_11__hash_nodeINS_17__hash_value_typeIc4NodeEEPvEEEC2B8ne180100EPNS_16__hash_node_baseIS7_EE, symObjAddr: 0x4740, symBinAddr: 0x100004FA0, symSize: 0x20 }
  - { offsetInCU: 0x181F0, offset: 0x181F0, size: 0x8, addend: 0x0, symName: __ZNSt3__14pairINS_15__hash_iteratorIPNS_11__hash_nodeINS_17__hash_value_typeIc4NodeEEPvEEEEbEC2B8ne180100IS9_RbLi0EEEOT_OT0_, symObjAddr: 0x4760, symBinAddr: 0x100004FC0, symSize: 0x30 }
  - { offsetInCU: 0x1824E, offset: 0x1824E, size: 0x8, addend: 0x0, symName: __ZNSt3__15tupleIJRKcEEC1B8ne180100INS_4_AndELi0EEES2_, symObjAddr: 0x4790, symBinAddr: 0x100004FF0, symSize: 0x30 }
  - { offsetInCU: 0x18296, offset: 0x18296, size: 0x8, addend: 0x0, symName: __ZNSt3__15tupleIJRKcEEC2B8ne180100INS_4_AndELi0EEES2_, symObjAddr: 0x47C0, symBinAddr: 0x100005020, symSize: 0x30 }
  - { offsetInCU: 0x182DE, offset: 0x182DE, size: 0x8, addend: 0x0, symName: __ZNSt3__112__tuple_implINS_15__tuple_indicesIJLm0EEEEJRKcEEC1B8ne180100IJLm0EEJS4_EJEJEJS4_EEENS1_IJXspT_EEEENS_13__tuple_typesIJDpT0_EEENS1_IJXspT1_EEEENS8_IJDpT2_EEEDpOT3_, symObjAddr: 0x47F0, symBinAddr: 0x100005050, symSize: 0x30 }
  - { offsetInCU: 0x18373, offset: 0x18373, size: 0x8, addend: 0x0, symName: __ZNSt3__112__tuple_implINS_15__tuple_indicesIJLm0EEEEJRKcEEC2B8ne180100IJLm0EEJS4_EJEJEJS4_EEENS1_IJXspT_EEEENS_13__tuple_typesIJDpT0_EEENS1_IJXspT1_EEEENS8_IJDpT2_EEEDpOT3_, symObjAddr: 0x4820, symBinAddr: 0x100005080, symSize: 0x30 }
  - { offsetInCU: 0x18408, offset: 0x18408, size: 0x8, addend: 0x0, symName: __ZNSt3__112__tuple_leafILm0ERKcLb0EEC2B8ne180100IS2_vEEOT_, symObjAddr: 0x4850, symBinAddr: 0x1000050B0, symSize: 0x20 }
  - { offsetInCU: 0x1844B, offset: 0x1844B, size: 0x8, addend: 0x0, symName: __ZNSt3__114pointer_traitsIPNS_17__hash_value_typeIc4NodeEEE10pointer_toB8ne180100ERS3_, symObjAddr: 0x4870, symBinAddr: 0x1000050D0, symSize: 0x10 }
  - { offsetInCU: 0x18520, offset: 0x18520, size: 0x8, addend: 0x0, symName: __ZNKSt3__113basic_istreamIcNS_11char_traitsIcEEE6sentrycvbB8ne180100Ev, symObjAddr: 0x4880, symBinAddr: 0x1000050E0, symSize: 0x20 }
  - { offsetInCU: 0x18546, offset: 0x18546, size: 0x8, addend: 0x0, symName: __ZNSt3__112basic_stringIcNS_11char_traitsIcEENS_9allocatorIcEEE5clearB8ne180100Ev, symObjAddr: 0x48A0, symBinAddr: 0x100005100, symSize: 0xA0 }
  - { offsetInCU: 0x1857D, offset: 0x1857D, size: 0x8, addend: 0x0, symName: __ZNKSt3__18ios_base5widthB8ne180100Ev, symObjAddr: 0x4940, symBinAddr: 0x1000051A0, symSize: 0x20 }
  - { offsetInCU: 0x185A5, offset: 0x185A5, size: 0x8, addend: 0x0, symName: __ZNKSt3__112basic_stringIcNS_11char_traitsIcEENS_9allocatorIcEEE8max_sizeB8ne180100Ev, symObjAddr: 0x4960, symBinAddr: 0x1000051C0, symSize: 0xA0 }
  - { offsetInCU: 0x185F7, offset: 0x185F7, size: 0x8, addend: 0x0, symName: __ZNSt3__114numeric_limitsIlE3maxB8ne180100Ev, symObjAddr: 0x4A00, symBinAddr: 0x100005260, symSize: 0x10 }
  - { offsetInCU: 0x1860B, offset: 0x1860B, size: 0x8, addend: 0x0, symName: __ZNKSt3__19basic_iosIcNS_11char_traitsIcEEE5rdbufB8ne180100Ev, symObjAddr: 0x4A40, symBinAddr: 0x1000052A0, symSize: 0x20 }
  - { offsetInCU: 0x18633, offset: 0x18633, size: 0x8, addend: 0x0, symName: __ZNSt3__115basic_streambufIcNS_11char_traitsIcEEE5sgetcB8ne180100Ev, symObjAddr: 0x4A60, symBinAddr: 0x1000052C0, symSize: 0x50 }
  - { offsetInCU: 0x18659, offset: 0x18659, size: 0x8, addend: 0x0, symName: __ZNSt3__111char_traitsIcE11eq_int_typeB8ne180100Eii, symObjAddr: 0x4AB0, symBinAddr: 0x100005310, symSize: 0x20 }
  - { offsetInCU: 0x1868C, offset: 0x1868C, size: 0x8, addend: 0x0, symName: __ZNSt3__111char_traitsIcE3eofB8ne180100Ev, symObjAddr: 0x4AD0, symBinAddr: 0x100005330, symSize: 0x10 }
  - { offsetInCU: 0x186A0, offset: 0x186A0, size: 0x8, addend: 0x0, symName: __ZNSt3__111char_traitsIcE12to_char_typeB8ne180100Ei, symObjAddr: 0x4AE0, symBinAddr: 0x100005340, symSize: 0x10 }
  - { offsetInCU: 0x186F2, offset: 0x186F2, size: 0x8, addend: 0x0, symName: __ZNKSt3__15ctypeIcE2isB8ne180100Ejc, symObjAddr: 0x4AF0, symBinAddr: 0x100005350, symSize: 0x70 }
  - { offsetInCU: 0x18736, offset: 0x18736, size: 0x8, addend: 0x0, symName: __ZNSt3__115basic_streambufIcNS_11char_traitsIcEEE6sbumpcB8ne180100Ev, symObjAddr: 0x4B60, symBinAddr: 0x1000053C0, symSize: 0x60 }
  - { offsetInCU: 0x1875C, offset: 0x1875C, size: 0x8, addend: 0x0, symName: __ZNSt3__18ios_base5widthB8ne180100El, symObjAddr: 0x4BC0, symBinAddr: 0x100005420, symSize: 0x30 }
  - { offsetInCU: 0x187A2, offset: 0x187A2, size: 0x8, addend: 0x0, symName: __ZNSt3__18ios_base18__setstate_nothrowB8ne180100Ej, symObjAddr: 0x4BF0, symBinAddr: 0x100005450, symSize: 0x50 }
  - { offsetInCU: 0x187D7, offset: 0x187D7, size: 0x8, addend: 0x0, symName: __ZNKSt3__19basic_iosIcNS_11char_traitsIcEEE10exceptionsB8ne180100Ev, symObjAddr: 0x4C40, symBinAddr: 0x1000054A0, symSize: 0x20 }
  - { offsetInCU: 0x187FD, offset: 0x187FD, size: 0x8, addend: 0x0, symName: __ZNSt3__19basic_iosIcNS_11char_traitsIcEEE8setstateB8ne180100Ej, symObjAddr: 0x4C60, symBinAddr: 0x1000054C0, symSize: 0x30 }
  - { offsetInCU: 0x18832, offset: 0x18832, size: 0x8, addend: 0x0, symName: __ZNSt3__111char_traitsIcE6assignB8ne180100ERcRKc, symObjAddr: 0x4C90, symBinAddr: 0x1000054F0, symSize: 0x20 }
  - { offsetInCU: 0x18863, offset: 0x18863, size: 0x8, addend: 0x0, symName: __ZNSt3__112basic_stringIcNS_11char_traitsIcEENS_9allocatorIcEEE18__get_long_pointerB8ne180100Ev, symObjAddr: 0x4CB0, symBinAddr: 0x100005510, symSize: 0x20 }
  - { offsetInCU: 0x18889, offset: 0x18889, size: 0x8, addend: 0x0, symName: __ZNSt3__112basic_stringIcNS_11char_traitsIcEENS_9allocatorIcEEE15__set_long_sizeB8ne180100Em, symObjAddr: 0x4CD0, symBinAddr: 0x100005530, symSize: 0x30 }
  - { offsetInCU: 0x188BE, offset: 0x188BE, size: 0x8, addend: 0x0, symName: __ZNSt3__112basic_stringIcNS_11char_traitsIcEENS_9allocatorIcEEE19__get_short_pointerB8ne180100Ev, symObjAddr: 0x4D00, symBinAddr: 0x100005560, symSize: 0x30 }
  - { offsetInCU: 0x188E4, offset: 0x188E4, size: 0x8, addend: 0x0, symName: __ZNSt3__112basic_stringIcNS_11char_traitsIcEENS_9allocatorIcEEE16__set_short_sizeB8ne180100Em, symObjAddr: 0x4D30, symBinAddr: 0x100005590, symSize: 0x50 }
  - { offsetInCU: 0x18919, offset: 0x18919, size: 0x8, addend: 0x0, symName: __ZNKSt3__112basic_stringIcNS_11char_traitsIcEENS_9allocatorIcEEE17__annotate_shrinkB8ne180100Em, symObjAddr: 0x4D80, symBinAddr: 0x1000055E0, symSize: 0x10 }
  - { offsetInCU: 0x1894E, offset: 0x1894E, size: 0x8, addend: 0x0, symName: __ZNSt3__117__compressed_pairINS_12basic_stringIcNS_11char_traitsIcEENS_9allocatorIcEEE5__repES5_E5firstB8ne180100Ev, symObjAddr: 0x4D90, symBinAddr: 0x1000055F0, symSize: 0x20 }
  - { offsetInCU: 0x18974, offset: 0x18974, size: 0x8, addend: 0x0, symName: __ZNSt3__122__compressed_pair_elemINS_12basic_stringIcNS_11char_traitsIcEENS_9allocatorIcEEE5__repELi0ELb0EE5__getB8ne180100Ev, symObjAddr: 0x4DB0, symBinAddr: 0x100005610, symSize: 0x10 }
  - { offsetInCU: 0x1899A, offset: 0x1899A, size: 0x8, addend: 0x0, symName: __ZNSt3__114pointer_traitsIPcE10pointer_toB8ne180100ERc, symObjAddr: 0x4DC0, symBinAddr: 0x100005620, symSize: 0x10 }
  - { offsetInCU: 0x189C8, offset: 0x189C8, size: 0x8, addend: 0x0, symName: __ZNSt3__116allocator_traitsINS_9allocatorIcEEE8max_sizeB8ne180100IS2_vvEEmRKS2_, symObjAddr: 0x4DD0, symBinAddr: 0x100005630, symSize: 0x20 }
  - { offsetInCU: 0x189F4, offset: 0x189F4, size: 0x8, addend: 0x0, symName: __ZNKSt3__112basic_stringIcNS_11char_traitsIcEENS_9allocatorIcEEE7__allocB8ne180100Ev, symObjAddr: 0x4DF0, symBinAddr: 0x100005650, symSize: 0x20 }
  - { offsetInCU: 0x18A1A, offset: 0x18A1A, size: 0x8, addend: 0x0, symName: __ZNKSt3__117__compressed_pairINS_12basic_stringIcNS_11char_traitsIcEENS_9allocatorIcEEE5__repES5_E6secondB8ne180100Ev, symObjAddr: 0x4E10, symBinAddr: 0x100005670, symSize: 0x20 }
  - { offsetInCU: 0x18A40, offset: 0x18A40, size: 0x8, addend: 0x0, symName: __ZNKSt3__122__compressed_pair_elemINS_9allocatorIcEELi1ELb1EE5__getB8ne180100Ev, symObjAddr: 0x4E30, symBinAddr: 0x100005690, symSize: 0x10 }
  - { offsetInCU: 0x18A66, offset: 0x18A66, size: 0x8, addend: 0x0, symName: __ZNSt3__123__libcpp_numeric_limitsIlLb1EE3maxB8ne180100Ev, symObjAddr: 0x4E40, symBinAddr: 0x1000056A0, symSize: 0x10 }
  - { offsetInCU: 0x18A7A, offset: 0x18A7A, size: 0x8, addend: 0x0, symName: __ZNKSt3__18ios_base5rdbufB8ne180100Ev, symObjAddr: 0x4E50, symBinAddr: 0x1000056B0, symSize: 0x20 }
  - { offsetInCU: 0x18AA0, offset: 0x18AA0, size: 0x8, addend: 0x0, symName: __ZNSt3__111char_traitsIcE11to_int_typeB8ne180100Ec, symObjAddr: 0x4E70, symBinAddr: 0x1000056D0, symSize: 0x10 }
  - { offsetInCU: 0x18AC3, offset: 0x18AC3, size: 0x8, addend: 0x0, symName: __Z7isasciii, symObjAddr: 0x4E80, symBinAddr: 0x1000056E0, symSize: 0x20 }
  - { offsetInCU: 0x18AF0, offset: 0x18AF0, size: 0x8, addend: 0x0, symName: __ZNKSt3__18ios_base10exceptionsB8ne180100Ev, symObjAddr: 0x4EA0, symBinAddr: 0x100005700, symSize: 0x20 }
  - { offsetInCU: 0x18B18, offset: 0x18B18, size: 0x8, addend: 0x0, symName: __ZNSt3__18ios_base8setstateB8ne180100Ej, symObjAddr: 0x4EC0, symBinAddr: 0x100005720, symSize: 0x30 }
  - { offsetInCU: 0x18B4F, offset: 0x18B4F, size: 0x8, addend: 0x0, symName: __ZNSt3__15queueImNS_5dequeImNS_9allocatorImEEEEEC2B8ne180100Ev, symObjAddr: 0x4EF0, symBinAddr: 0x100005750, symSize: 0x20 }
  - { offsetInCU: 0x18B79, offset: 0x18B79, size: 0x8, addend: 0x0, symName: __ZNSt3__15dequeImNS_9allocatorImEEEC1B8ne180100Ev, symObjAddr: 0x4F10, symBinAddr: 0x100005770, symSize: 0x20 }
  - { offsetInCU: 0x18BA3, offset: 0x18BA3, size: 0x8, addend: 0x0, symName: __ZNSt3__15dequeImNS_9allocatorImEEEC2B8ne180100Ev, symObjAddr: 0x4F30, symBinAddr: 0x100005790, symSize: 0x60 }
  - { offsetInCU: 0x18BCD, offset: 0x18BCD, size: 0x8, addend: 0x0, symName: __ZNSt3__114__split_bufferIPmNS_9allocatorIS1_EEEC1B8ne180100Ev, symObjAddr: 0x4F90, symBinAddr: 0x1000057F0, symSize: 0x20 }
  - { offsetInCU: 0x18BF7, offset: 0x18BF7, size: 0x8, addend: 0x0, symName: __ZNSt3__117__compressed_pairImNS_9allocatorImEEEC1B8ne180100IiNS_18__default_init_tagEEEOT_OT0_, symObjAddr: 0x4FB0, symBinAddr: 0x100005810, symSize: 0x30 }
  - { offsetInCU: 0x18C4F, offset: 0x18C4F, size: 0x8, addend: 0x0, symName: __ZNSt3__114__split_bufferIPmNS_9allocatorIS1_EEEC2B8ne180100Ev, symObjAddr: 0x4FE0, symBinAddr: 0x100005840, symSize: 0x60 }
  - { offsetInCU: 0x18C7F, offset: 0x18C7F, size: 0x8, addend: 0x0, symName: __ZNSt3__117__compressed_pairIPPmNS_9allocatorIS1_EEEC1B8ne180100IDnNS_18__default_init_tagEEEOT_OT0_, symObjAddr: 0x5040, symBinAddr: 0x1000058A0, symSize: 0x30 }
  - { offsetInCU: 0x18CD7, offset: 0x18CD7, size: 0x8, addend: 0x0, symName: __ZNSt3__117__compressed_pairIPPmNS_9allocatorIS1_EEEC2B8ne180100IDnNS_18__default_init_tagEEEOT_OT0_, symObjAddr: 0x5070, symBinAddr: 0x1000058D0, symSize: 0x40 }
  - { offsetInCU: 0x18D2F, offset: 0x18D2F, size: 0x8, addend: 0x0, symName: __ZNSt3__122__compressed_pair_elemIPPmLi0ELb0EEC2B8ne180100IDnvEEOT_, symObjAddr: 0x50B0, symBinAddr: 0x100005910, symSize: 0x20 }
  - { offsetInCU: 0x18D71, offset: 0x18D71, size: 0x8, addend: 0x0, symName: __ZNSt3__122__compressed_pair_elemINS_9allocatorIPmEELi1ELb1EEC2B8ne180100ENS_18__default_init_tagE, symObjAddr: 0x50D0, symBinAddr: 0x100005930, symSize: 0x20 }
  - { offsetInCU: 0x18DA5, offset: 0x18DA5, size: 0x8, addend: 0x0, symName: __ZNSt3__19allocatorIPmEC2B8ne180100Ev, symObjAddr: 0x50F0, symBinAddr: 0x100005950, symSize: 0x20 }
  - { offsetInCU: 0x18DCF, offset: 0x18DCF, size: 0x8, addend: 0x0, symName: __ZNSt3__116__non_trivial_ifILb1ENS_9allocatorIPmEEEC2B8ne180100Ev, symObjAddr: 0x5110, symBinAddr: 0x100005970, symSize: 0x10 }
  - { offsetInCU: 0x18DF9, offset: 0x18DF9, size: 0x8, addend: 0x0, symName: __ZNSt3__117__compressed_pairImNS_9allocatorImEEEC2B8ne180100IiNS_18__default_init_tagEEEOT_OT0_, symObjAddr: 0x5120, symBinAddr: 0x100005980, symSize: 0x40 }
  - { offsetInCU: 0x18E51, offset: 0x18E51, size: 0x8, addend: 0x0, symName: __ZNSt3__122__compressed_pair_elemINS_9allocatorImEELi1ELb1EEC2B8ne180100ENS_18__default_init_tagE, symObjAddr: 0x5160, symBinAddr: 0x1000059C0, symSize: 0x20 }
  - { offsetInCU: 0x18E85, offset: 0x18E85, size: 0x8, addend: 0x0, symName: __ZNSt3__19allocatorImEC2B8ne180100Ev, symObjAddr: 0x5180, symBinAddr: 0x1000059E0, symSize: 0x20 }
  - { offsetInCU: 0x18EAF, offset: 0x18EAF, size: 0x8, addend: 0x0, symName: __ZNSt3__116__non_trivial_ifILb1ENS_9allocatorImEEEC2B8ne180100Ev, symObjAddr: 0x51A0, symBinAddr: 0x100005A00, symSize: 0x10 }
  - { offsetInCU: 0x18ED9, offset: 0x18ED9, size: 0x8, addend: 0x0, symName: __ZNSt3__15dequeImNS_9allocatorImEEE9push_backEOm, symObjAddr: 0x51B0, symBinAddr: 0x100005A10, symSize: 0xA0 }
  - { offsetInCU: 0x18F1F, offset: 0x18F1F, size: 0x8, addend: 0x0, symName: __ZNKSt3__15dequeImNS_9allocatorImEEE12__back_spareB8ne180100Ev, symObjAddr: 0x5250, symBinAddr: 0x100005AB0, symSize: 0x50 }
  - { offsetInCU: 0x18F45, offset: 0x18F45, size: 0x8, addend: 0x0, symName: __ZNSt3__15dequeImNS_9allocatorImEEE19__add_back_capacityEv, symObjAddr: 0x52A0, symBinAddr: 0x100005B00, symSize: 0x3C0 }
  - { offsetInCU: 0x18FFA, offset: 0x18FFA, size: 0x8, addend: 0x0, symName: __ZNKSt3__15dequeImNS_9allocatorImEEE24__annotate_increase_backB8ne180100Em, symObjAddr: 0x5660, symBinAddr: 0x100005EC0, symSize: 0x10 }
  - { offsetInCU: 0x19035, offset: 0x19035, size: 0x8, addend: 0x0, symName: __ZNSt3__116allocator_traitsINS_9allocatorImEEE9constructB8ne180100ImJmEvvEEvRS2_PT_DpOT0_, symObjAddr: 0x5670, symBinAddr: 0x100005ED0, symSize: 0x30 }
  - { offsetInCU: 0x1908A, offset: 0x1908A, size: 0x8, addend: 0x0, symName: __ZNKSt3__15dequeImNS_9allocatorImEEE10__capacityB8ne180100Ev, symObjAddr: 0x56A0, symBinAddr: 0x100005F00, symSize: 0x50 }
  - { offsetInCU: 0x190B0, offset: 0x190B0, size: 0x8, addend: 0x0, symName: __ZNKSt3__15dequeImNS_9allocatorImEEE13__front_spareB8ne180100Ev, symObjAddr: 0x56F0, symBinAddr: 0x100005F50, symSize: 0x20 }
  - { offsetInCU: 0x190D6, offset: 0x190D6, size: 0x8, addend: 0x0, symName: __ZNSt3__114__split_bufferIPmNS_9allocatorIS1_EEE9push_backB8ne180100ERKS1_, symObjAddr: 0x5710, symBinAddr: 0x100005F70, symSize: 0x290 }
  - { offsetInCU: 0x1914E, offset: 0x1914E, size: 0x8, addend: 0x0, symName: __ZNKSt3__114__split_bufferIPmNS_9allocatorIS1_EEE12__back_spareB8ne180100Ev, symObjAddr: 0x59A0, symBinAddr: 0x100006200, symSize: 0x40 }
  - { offsetInCU: 0x19174, offset: 0x19174, size: 0x8, addend: 0x0, symName: __ZNSt3__114__split_bufferIPmNS_9allocatorIS1_EEE9push_backEOS1_, symObjAddr: 0x59E0, symBinAddr: 0x100006240, symSize: 0x290 }
  - { offsetInCU: 0x191EC, offset: 0x191EC, size: 0x8, addend: 0x0, symName: __ZNSt3__116allocator_traitsINS_9allocatorImEEE8allocateB8ne180100ERS2_m, symObjAddr: 0x5C70, symBinAddr: 0x1000064D0, symSize: 0x30 }
  - { offsetInCU: 0x1921F, offset: 0x1921F, size: 0x8, addend: 0x0, symName: __ZNSt3__114__split_bufferIPmNS_9allocatorIS1_EEE10push_frontEOS1_, symObjAddr: 0x5CA0, symBinAddr: 0x100006500, symSize: 0x270 }
  - { offsetInCU: 0x19297, offset: 0x19297, size: 0x8, addend: 0x0, symName: __ZNKSt3__15dequeImNS_9allocatorImEEE22__annotate_whole_blockB8ne180100EmNS3_22__asan_annotation_typeE, symObjAddr: 0x5F10, symBinAddr: 0x100006770, symSize: 0x20 }
  - { offsetInCU: 0x192DB, offset: 0x192DB, size: 0x8, addend: 0x0, symName: __ZNSt3__114__split_bufferIPmRNS_9allocatorIS1_EEEC1EmmS4_, symObjAddr: 0x5F30, symBinAddr: 0x100006790, symSize: 0x40 }
  - { offsetInCU: 0x19337, offset: 0x19337, size: 0x8, addend: 0x0, symName: __ZNSt3__122__allocator_destructorINS_9allocatorImEEEC1B8ne180100ERS2_m, symObjAddr: 0x5F70, symBinAddr: 0x1000067D0, symSize: 0x30 }
  - { offsetInCU: 0x19413, offset: 0x19413, size: 0x8, addend: 0x0, symName: __ZNSt3__110unique_ptrIPmNS_22__allocator_destructorINS_9allocatorImEEEEEC1B8ne180100ILb1EvEES1_NS_16__dependent_typeINS_27__unique_ptr_deleter_sfinaeIS5_EEXT_EE20__good_rval_ref_typeE, symObjAddr: 0x5FA0, symBinAddr: 0x100006800, symSize: 0x30 }
  - { offsetInCU: 0x19464, offset: 0x19464, size: 0x8, addend: 0x0, symName: __ZNSt3__114__split_bufferIPmRNS_9allocatorIS1_EEE9push_backEOS1_, symObjAddr: 0x5FD0, symBinAddr: 0x100006830, symSize: 0x290 }
  - { offsetInCU: 0x194DC, offset: 0x194DC, size: 0x8, addend: 0x0, symName: __ZNKSt3__110unique_ptrIPmNS_22__allocator_destructorINS_9allocatorImEEEEE3getB8ne180100Ev, symObjAddr: 0x6260, symBinAddr: 0x100006AC0, symSize: 0x20 }
  - { offsetInCU: 0x19502, offset: 0x19502, size: 0x8, addend: 0x0, symName: __ZNSt3__110unique_ptrIPmNS_22__allocator_destructorINS_9allocatorImEEEEE7releaseB8ne180100Ev, symObjAddr: 0x6280, symBinAddr: 0x100006AE0, symSize: 0x40 }
  - { offsetInCU: 0x19537, offset: 0x19537, size: 0x8, addend: 0x0, symName: __ZNSt3__114__split_bufferIPmRNS_9allocatorIS1_EEE10push_frontERKS1_, symObjAddr: 0x62C0, symBinAddr: 0x100006B20, symSize: 0x270 }
  - { offsetInCU: 0x195AF, offset: 0x195AF, size: 0x8, addend: 0x0, symName: __ZNSt3__114__split_bufferIPmNS_9allocatorIS1_EEE9__end_capB8ne180100Ev, symObjAddr: 0x6570, symBinAddr: 0x100006DD0, symSize: 0x20 }
  - { offsetInCU: 0x195D5, offset: 0x195D5, size: 0x8, addend: 0x0, symName: __ZNSt3__114__split_bufferIPmRNS_9allocatorIS1_EEE9__end_capB8ne180100Ev, symObjAddr: 0x6590, symBinAddr: 0x100006DF0, symSize: 0x20 }
  - { offsetInCU: 0x195FB, offset: 0x195FB, size: 0x8, addend: 0x0, symName: __ZNSt3__110unique_ptrIPmNS_22__allocator_destructorINS_9allocatorImEEEEED1B8ne180100Ev, symObjAddr: 0x65B0, symBinAddr: 0x100006E10, symSize: 0x20 }
  - { offsetInCU: 0x19625, offset: 0x19625, size: 0x8, addend: 0x0, symName: __ZNSt3__114__split_bufferIPmRNS_9allocatorIS1_EEED1Ev, symObjAddr: 0x65D0, symBinAddr: 0x100006E30, symSize: 0x20 }
  - { offsetInCU: 0x19651, offset: 0x19651, size: 0x8, addend: 0x0, symName: __ZNSt3__114__split_bufferIPmRNS_9allocatorIS1_EEE18__construct_at_endINS_13move_iteratorIPS1_EELi0EEEvT_SA_, symObjAddr: 0x6630, symBinAddr: 0x100006E90, symSize: 0x60 }
  - { offsetInCU: 0x196A4, offset: 0x196A4, size: 0x8, addend: 0x0, symName: __ZNSt3__113move_iteratorIPPmEC1B8ne180100ES2_, symObjAddr: 0x6690, symBinAddr: 0x100006EF0, symSize: 0x30 }
  - { offsetInCU: 0x196DC, offset: 0x196DC, size: 0x8, addend: 0x0, symName: __ZNSt3__116allocator_traitsINS_9allocatorIPmEEE9constructB8ne180100IS2_JRKS2_EvvEEvRS3_PT_DpOT0_, symObjAddr: 0x66C0, symBinAddr: 0x100006F20, symSize: 0x30 }
  - { offsetInCU: 0x1975F, offset: 0x1975F, size: 0x8, addend: 0x0, symName: __ZNKSt3__114__move_trivialclB8ne180100IPmS2_Li0EEENS_4pairIPT_PT0_EES5_S5_S7_, symObjAddr: 0x6860, symBinAddr: 0x1000070C0, symSize: 0x40 }
  - { offsetInCU: 0x197C7, offset: 0x197C7, size: 0x8, addend: 0x0, symName: __ZNSt3__119__unwrap_range_implIPPmS2_E8__unwrapB8ne180100ES2_S2_, symObjAddr: 0x6960, symBinAddr: 0x1000071C0, symSize: 0x50 }
  - { offsetInCU: 0x197FE, offset: 0x197FE, size: 0x8, addend: 0x0, symName: __ZNSt3__14pairIPPmS2_EC1B8ne180100IS2_S2_Li0EEEOT_OT0_, symObjAddr: 0x69B0, symBinAddr: 0x100007210, symSize: 0x30 }
  - { offsetInCU: 0x1985C, offset: 0x1985C, size: 0x8, addend: 0x0, symName: __ZNSt3__14pairIPPmS2_EC2B8ne180100IS2_S2_Li0EEEOT_OT0_, symObjAddr: 0x69E0, symBinAddr: 0x100007240, symSize: 0x30 }
  - { offsetInCU: 0x198BA, offset: 0x198BA, size: 0x8, addend: 0x0, symName: __ZNSt3__14pairIPPmS2_EC1B8ne180100IRS2_S2_Li0EEEOT_OT0_, symObjAddr: 0x6B00, symBinAddr: 0x100007360, symSize: 0x30 }
  - { offsetInCU: 0x19918, offset: 0x19918, size: 0x8, addend: 0x0, symName: __ZNSt3__14pairIPPmS2_EC2B8ne180100IRS2_S2_Li0EEEOT_OT0_, symObjAddr: 0x6B30, symBinAddr: 0x100007390, symSize: 0x30 }
  - { offsetInCU: 0x19976, offset: 0x19976, size: 0x8, addend: 0x0, symName: __ZNSt3__118__unwrap_iter_implIPPmLb1EE8__unwrapB8ne180100ES2_, symObjAddr: 0x6B60, symBinAddr: 0x1000073C0, symSize: 0x20 }
  - { offsetInCU: 0x19999, offset: 0x19999, size: 0x8, addend: 0x0, symName: __ZNSt3__119__unwrap_range_implIPPmS2_E8__rewrapB8ne180100ES2_S2_, symObjAddr: 0x6B80, symBinAddr: 0x1000073E0, symSize: 0x30 }
  - { offsetInCU: 0x199CA, offset: 0x199CA, size: 0x8, addend: 0x0, symName: __ZNSt3__118__unwrap_iter_implIPPmLb1EE8__rewrapB8ne180100ES2_S2_, symObjAddr: 0x6BB0, symBinAddr: 0x100007410, symSize: 0x50 }
  - { offsetInCU: 0x199FB, offset: 0x199FB, size: 0x8, addend: 0x0, symName: __ZNSt3__114__split_bufferIPmRNS_9allocatorIS1_EEE28__construct_at_end_with_sizeINS_13move_iteratorIPS1_EEEEvT_m, symObjAddr: 0x6C00, symBinAddr: 0x100007460, symSize: 0xE0 }
  - { offsetInCU: 0x19A63, offset: 0x19A63, size: 0x8, addend: 0x0, symName: __ZNSt3__114__split_bufferIPmRNS_9allocatorIS1_EEE21_ConstructTransactionC1B8ne180100EPPS1_m, symObjAddr: 0x6D20, symBinAddr: 0x100007580, symSize: 0x30 }
  - { offsetInCU: 0x19AAF, offset: 0x19AAF, size: 0x8, addend: 0x0, symName: __ZNSt3__116allocator_traitsINS_9allocatorIPmEEE9constructB8ne180100IS2_JS2_EvvEEvRS3_PT_DpOT0_, symObjAddr: 0x6D50, symBinAddr: 0x1000075B0, symSize: 0x30 }
  - { offsetInCU: 0x19B04, offset: 0x19B04, size: 0x8, addend: 0x0, symName: __ZNSt3__114__split_bufferIPmRNS_9allocatorIS1_EEE7__allocB8ne180100Ev, symObjAddr: 0x6D80, symBinAddr: 0x1000075E0, symSize: 0x20 }
  - { offsetInCU: 0x19B2A, offset: 0x19B2A, size: 0x8, addend: 0x0, symName: __ZNKSt3__113move_iteratorIPPmEdeB8ne180100Ev, symObjAddr: 0x6DA0, symBinAddr: 0x100007600, symSize: 0x30 }
  - { offsetInCU: 0x19B50, offset: 0x19B50, size: 0x8, addend: 0x0, symName: __ZNSt3__113move_iteratorIPPmEppB8ne180100Ev, symObjAddr: 0x6DD0, symBinAddr: 0x100007630, symSize: 0x20 }
  - { offsetInCU: 0x19B76, offset: 0x19B76, size: 0x8, addend: 0x0, symName: __ZNSt3__114__split_bufferIPmRNS_9allocatorIS1_EEE21_ConstructTransactionD1B8ne180100Ev, symObjAddr: 0x6DF0, symBinAddr: 0x100007650, symSize: 0x20 }
  - { offsetInCU: 0x19BA0, offset: 0x19BA0, size: 0x8, addend: 0x0, symName: __ZNSt3__114__split_bufferIPmRNS_9allocatorIS1_EEE21_ConstructTransactionC2B8ne180100EPPS1_m, symObjAddr: 0x6E10, symBinAddr: 0x100007670, symSize: 0x40 }
  - { offsetInCU: 0x19BE6, offset: 0x19BE6, size: 0x8, addend: 0x0, symName: __ZNSt3__117__compressed_pairIPPmRNS_9allocatorIS1_EEE6secondB8ne180100Ev, symObjAddr: 0x6EA0, symBinAddr: 0x100007700, symSize: 0x20 }
  - { offsetInCU: 0x19C0C, offset: 0x19C0C, size: 0x8, addend: 0x0, symName: __ZNSt3__122__compressed_pair_elemIRNS_9allocatorIPmEELi1ELb0EE5__getB8ne180100Ev, symObjAddr: 0x6EC0, symBinAddr: 0x100007720, symSize: 0x20 }
  - { offsetInCU: 0x19C38, offset: 0x19C38, size: 0x8, addend: 0x0, symName: __ZNKSt3__16ranges11__iter_move4__fnclB8ne180100IRKPPmEEDTclsr3stdE4movedeclsr3stdE7forwardIT_Efp_EEEOS8_, symObjAddr: 0x6EE0, symBinAddr: 0x100007740, symSize: 0x20 }
  - { offsetInCU: 0x19C75, offset: 0x19C75, size: 0x8, addend: 0x0, symName: __ZNSt3__114__split_bufferIPmRNS_9allocatorIS1_EEE21_ConstructTransactionD2B8ne180100Ev, symObjAddr: 0x6F00, symBinAddr: 0x100007760, symSize: 0x20 }
  - { offsetInCU: 0x19C9F, offset: 0x19C9F, size: 0x8, addend: 0x0, symName: __ZNKRSt3__113move_iteratorIPPmE4baseB8ne180100Ev, symObjAddr: 0x6F90, symBinAddr: 0x1000077F0, symSize: 0x10 }
  - { offsetInCU: 0x19CC5, offset: 0x19CC5, size: 0x8, addend: 0x0, symName: __ZNSt3__113move_iteratorIPPmEC2B8ne180100ES2_, symObjAddr: 0x6FA0, symBinAddr: 0x100007800, symSize: 0x20 }
  - { offsetInCU: 0x19CFD, offset: 0x19CFD, size: 0x8, addend: 0x0, symName: __ZNSt3__19allocatorImE8allocateB8ne180100Em, symObjAddr: 0x7010, symBinAddr: 0x100007870, symSize: 0x50 }
  - { offsetInCU: 0x19D3C, offset: 0x19D3C, size: 0x8, addend: 0x0, symName: __ZNSt3__116allocator_traitsINS_9allocatorImEEE8max_sizeB8ne180100IS2_vvEEmRKS2_, symObjAddr: 0x7060, symBinAddr: 0x1000078C0, symSize: 0x20 }
  - { offsetInCU: 0x19D73, offset: 0x19D73, size: 0x8, addend: 0x0, symName: __ZNKSt3__123__move_backward_trivialclB8ne180100IPmS2_Li0EEENS_4pairIPT_PT0_EES5_S5_S7_, symObjAddr: 0x71F0, symBinAddr: 0x100007A50, symSize: 0x40 }
  - { offsetInCU: 0x19DDB, offset: 0x19DDB, size: 0x8, addend: 0x0, symName: __ZNSt3__14pairIPPmS2_EC1B8ne180100IRS2_S5_Li0EEEOT_OT0_, symObjAddr: 0x72D0, symBinAddr: 0x100007B30, symSize: 0x30 }
  - { offsetInCU: 0x19E39, offset: 0x19E39, size: 0x8, addend: 0x0, symName: __ZNSt3__14pairIPPmS2_EC2B8ne180100IRS2_S5_Li0EEEOT_OT0_, symObjAddr: 0x7300, symBinAddr: 0x100007B60, symSize: 0x30 }
  - { offsetInCU: 0x19E97, offset: 0x19E97, size: 0x8, addend: 0x0, symName: __ZNSt3__114__split_bufferIPmRNS_9allocatorIS1_EEEC2EmmS4_, symObjAddr: 0x7330, symBinAddr: 0x100007B90, symSize: 0xD0 }
  - { offsetInCU: 0x19F0A, offset: 0x19F0A, size: 0x8, addend: 0x0, symName: __ZNSt3__117__compressed_pairIPPmRNS_9allocatorIS1_EEEC1B8ne180100IDnS5_EEOT_OT0_, symObjAddr: 0x7400, symBinAddr: 0x100007C60, symSize: 0x30 }
  - { offsetInCU: 0x19F62, offset: 0x19F62, size: 0x8, addend: 0x0, symName: __ZNSt3__117__compressed_pairIPPmRNS_9allocatorIS1_EEEC2B8ne180100IDnS5_EEOT_OT0_, symObjAddr: 0x7470, symBinAddr: 0x100007CD0, symSize: 0x40 }
  - { offsetInCU: 0x19FBA, offset: 0x19FBA, size: 0x8, addend: 0x0, symName: __ZNSt3__122__compressed_pair_elemIRNS_9allocatorIPmEELi1ELb0EEC2B8ne180100IS4_vEEOT_, symObjAddr: 0x74B0, symBinAddr: 0x100007D10, symSize: 0x20 }
  - { offsetInCU: 0x19FFC, offset: 0x19FFC, size: 0x8, addend: 0x0, symName: __ZNSt3__19allocatorIPmE17allocate_at_leastB8ne180100Em, symObjAddr: 0x7510, symBinAddr: 0x100007D70, symSize: 0x40 }
  - { offsetInCU: 0x1A030, offset: 0x1A030, size: 0x8, addend: 0x0, symName: __ZNSt3__19allocatorIPmE8allocateB8ne180100Em, symObjAddr: 0x7550, symBinAddr: 0x100007DB0, symSize: 0x50 }
  - { offsetInCU: 0x1A06F, offset: 0x1A06F, size: 0x8, addend: 0x0, symName: __ZNSt3__116allocator_traitsINS_9allocatorIPmEEE8max_sizeB8ne180100IS3_vvEEmRKS3_, symObjAddr: 0x75A0, symBinAddr: 0x100007E00, symSize: 0x20 }
  - { offsetInCU: 0x1A09B, offset: 0x1A09B, size: 0x8, addend: 0x0, symName: __ZNSt3__122__allocator_destructorINS_9allocatorImEEEC2B8ne180100ERS2_m, symObjAddr: 0x75C0, symBinAddr: 0x100007E20, symSize: 0x30 }
  - { offsetInCU: 0x1A0E1, offset: 0x1A0E1, size: 0x8, addend: 0x0, symName: __ZNSt3__110unique_ptrIPmNS_22__allocator_destructorINS_9allocatorImEEEEEC2B8ne180100ILb1EvEES1_NS_16__dependent_typeINS_27__unique_ptr_deleter_sfinaeIS5_EEXT_EE20__good_rval_ref_typeE, symObjAddr: 0x75F0, symBinAddr: 0x100007E50, symSize: 0x40 }
  - { offsetInCU: 0x1A132, offset: 0x1A132, size: 0x8, addend: 0x0, symName: __ZNSt3__117__compressed_pairIPmNS_22__allocator_destructorINS_9allocatorImEEEEEC1B8ne180100IRS1_S5_EEOT_OT0_, symObjAddr: 0x7630, symBinAddr: 0x100007E90, symSize: 0x30 }
  - { offsetInCU: 0x1A18A, offset: 0x1A18A, size: 0x8, addend: 0x0, symName: __ZNSt3__117__compressed_pairIPmNS_22__allocator_destructorINS_9allocatorImEEEEEC2B8ne180100IRS1_S5_EEOT_OT0_, symObjAddr: 0x7660, symBinAddr: 0x100007EC0, symSize: 0x40 }
  - { offsetInCU: 0x1A1E2, offset: 0x1A1E2, size: 0x8, addend: 0x0, symName: __ZNSt3__122__compressed_pair_elemIPmLi0ELb0EEC2B8ne180100IRS1_vEEOT_, symObjAddr: 0x76A0, symBinAddr: 0x100007F00, symSize: 0x20 }
  - { offsetInCU: 0x1A224, offset: 0x1A224, size: 0x8, addend: 0x0, symName: __ZNSt3__122__compressed_pair_elemINS_22__allocator_destructorINS_9allocatorImEEEELi1ELb0EEC2B8ne180100IS4_vEEOT_, symObjAddr: 0x76C0, symBinAddr: 0x100007F20, symSize: 0x30 }
  - { offsetInCU: 0x1A266, offset: 0x1A266, size: 0x8, addend: 0x0, symName: __ZNKSt3__117__compressed_pairIPmNS_22__allocator_destructorINS_9allocatorImEEEEE5firstB8ne180100Ev, symObjAddr: 0x76F0, symBinAddr: 0x100007F50, symSize: 0x20 }
  - { offsetInCU: 0x1A28C, offset: 0x1A28C, size: 0x8, addend: 0x0, symName: __ZNKSt3__122__compressed_pair_elemIPmLi0ELb0EE5__getB8ne180100Ev, symObjAddr: 0x7710, symBinAddr: 0x100007F70, symSize: 0x10 }
  - { offsetInCU: 0x1A2B2, offset: 0x1A2B2, size: 0x8, addend: 0x0, symName: __ZNSt3__117__compressed_pairIPmNS_22__allocator_destructorINS_9allocatorImEEEEE5firstB8ne180100Ev, symObjAddr: 0x7720, symBinAddr: 0x100007F80, symSize: 0x20 }
  - { offsetInCU: 0x1A2D8, offset: 0x1A2D8, size: 0x8, addend: 0x0, symName: __ZNSt3__122__compressed_pair_elemIPmLi0ELb0EE5__getB8ne180100Ev, symObjAddr: 0x7740, symBinAddr: 0x100007FA0, symSize: 0x10 }
  - { offsetInCU: 0x1A2FE, offset: 0x1A2FE, size: 0x8, addend: 0x0, symName: __ZNSt3__117__compressed_pairIPPmNS_9allocatorIS1_EEE5firstB8ne180100Ev, symObjAddr: 0x7750, symBinAddr: 0x100007FB0, symSize: 0x20 }
  - { offsetInCU: 0x1A324, offset: 0x1A324, size: 0x8, addend: 0x0, symName: __ZNSt3__122__compressed_pair_elemIPPmLi0ELb0EE5__getB8ne180100Ev, symObjAddr: 0x7770, symBinAddr: 0x100007FD0, symSize: 0x10 }
  - { offsetInCU: 0x1A34A, offset: 0x1A34A, size: 0x8, addend: 0x0, symName: __ZNSt3__117__compressed_pairIPPmRNS_9allocatorIS1_EEE5firstB8ne180100Ev, symObjAddr: 0x7780, symBinAddr: 0x100007FE0, symSize: 0x20 }
  - { offsetInCU: 0x1A370, offset: 0x1A370, size: 0x8, addend: 0x0, symName: __ZNSt3__110unique_ptrIPmNS_22__allocator_destructorINS_9allocatorImEEEEED2B8ne180100Ev, symObjAddr: 0x77A0, symBinAddr: 0x100008000, symSize: 0x20 }
  - { offsetInCU: 0x1A39A, offset: 0x1A39A, size: 0x8, addend: 0x0, symName: __ZNSt3__110unique_ptrIPmNS_22__allocator_destructorINS_9allocatorImEEEEE5resetB8ne180100ES1_, symObjAddr: 0x77C0, symBinAddr: 0x100008020, symSize: 0x70 }
  - { offsetInCU: 0x1A3DE, offset: 0x1A3DE, size: 0x8, addend: 0x0, symName: __ZNSt3__117__compressed_pairIPmNS_22__allocator_destructorINS_9allocatorImEEEEE6secondB8ne180100Ev, symObjAddr: 0x7830, symBinAddr: 0x100008090, symSize: 0x20 }
  - { offsetInCU: 0x1A404, offset: 0x1A404, size: 0x8, addend: 0x0, symName: __ZNSt3__122__allocator_destructorINS_9allocatorImEEEclB8ne180100EPm, symObjAddr: 0x7850, symBinAddr: 0x1000080B0, symSize: 0x30 }
  - { offsetInCU: 0x1A438, offset: 0x1A438, size: 0x8, addend: 0x0, symName: __ZNSt3__122__compressed_pair_elemINS_22__allocator_destructorINS_9allocatorImEEEELi1ELb0EE5__getB8ne180100Ev, symObjAddr: 0x7880, symBinAddr: 0x1000080E0, symSize: 0x10 }
  - { offsetInCU: 0x1A45E, offset: 0x1A45E, size: 0x8, addend: 0x0, symName: __ZNSt3__114__split_bufferIPmRNS_9allocatorIS1_EEED2Ev, symObjAddr: 0x7890, symBinAddr: 0x1000080F0, symSize: 0x70 }
  - { offsetInCU: 0x1A48A, offset: 0x1A48A, size: 0x8, addend: 0x0, symName: __ZNSt3__114__split_bufferIPmRNS_9allocatorIS1_EEE5clearB8ne180100Ev, symObjAddr: 0x7900, symBinAddr: 0x100008160, symSize: 0x20 }
  - { offsetInCU: 0x1A4B0, offset: 0x1A4B0, size: 0x8, addend: 0x0, symName: __ZNKSt3__114__split_bufferIPmRNS_9allocatorIS1_EEE8capacityB8ne180100Ev, symObjAddr: 0x7920, symBinAddr: 0x100008180, symSize: 0x30 }
  - { offsetInCU: 0x1A4D6, offset: 0x1A4D6, size: 0x8, addend: 0x0, symName: __ZNSt3__114__split_bufferIPmRNS_9allocatorIS1_EEE17__destruct_at_endB8ne180100EPS1_, symObjAddr: 0x7950, symBinAddr: 0x1000081B0, symSize: 0x30 }
  - { offsetInCU: 0x1A50A, offset: 0x1A50A, size: 0x8, addend: 0x0, symName: __ZNSt3__114__split_bufferIPmRNS_9allocatorIS1_EEE17__destruct_at_endB8ne180100EPS1_NS_17integral_constantIbLb0EEE, symObjAddr: 0x7980, symBinAddr: 0x1000081E0, symSize: 0x80 }
  - { offsetInCU: 0x1A54A, offset: 0x1A54A, size: 0x8, addend: 0x0, symName: __ZNKSt3__114__split_bufferIPmRNS_9allocatorIS1_EEE9__end_capB8ne180100Ev, symObjAddr: 0x7A00, symBinAddr: 0x100008260, symSize: 0x20 }
  - { offsetInCU: 0x1A570, offset: 0x1A570, size: 0x8, addend: 0x0, symName: __ZNKSt3__117__compressed_pairIPPmRNS_9allocatorIS1_EEE5firstB8ne180100Ev, symObjAddr: 0x7A20, symBinAddr: 0x100008280, symSize: 0x20 }
  - { offsetInCU: 0x1A596, offset: 0x1A596, size: 0x8, addend: 0x0, symName: __ZNSt3__113unordered_setImNS_4hashImEENS_8equal_toImEENS_9allocatorImEEEC2B8ne180100Ev, symObjAddr: 0x7A90, symBinAddr: 0x1000082F0, symSize: 0x20 }
  - { offsetInCU: 0x1A5C0, offset: 0x1A5C0, size: 0x8, addend: 0x0, symName: __ZNSt3__112__hash_tableImNS_4hashImEENS_8equal_toImEENS_9allocatorImEEEC1Ev, symObjAddr: 0x7AB0, symBinAddr: 0x100008310, symSize: 0x20 }
  - { offsetInCU: 0x1A5EC, offset: 0x1A5EC, size: 0x8, addend: 0x0, symName: __ZNSt3__112__hash_tableImNS_4hashImEENS_8equal_toImEENS_9allocatorImEEEC2Ev, symObjAddr: 0x7AD0, symBinAddr: 0x100008330, symSize: 0x80 }
  - { offsetInCU: 0x1A618, offset: 0x1A618, size: 0x8, addend: 0x0, symName: __ZNSt3__110unique_ptrIA_PNS_16__hash_node_baseIPNS_11__hash_nodeImPvEEEENS_25__bucket_list_deallocatorINS_9allocatorIS7_EEEEEC1B8ne180100ILb1EvEEv, symObjAddr: 0x7B50, symBinAddr: 0x1000083B0, symSize: 0x20 }
  - { offsetInCU: 0x1A64D, offset: 0x1A64D, size: 0x8, addend: 0x0, symName: __ZNSt3__117__compressed_pairINS_16__hash_node_baseIPNS_11__hash_nodeImPvEEEENS_9allocatorIS4_EEEC1B8ne180100ILb1EvEEv, symObjAddr: 0x7B70, symBinAddr: 0x1000083D0, symSize: 0x20 }
  - { offsetInCU: 0x1A682, offset: 0x1A682, size: 0x8, addend: 0x0, symName: __ZNSt3__117__compressed_pairImNS_4hashImEEEC1B8ne180100IiNS_18__default_init_tagEEEOT_OT0_, symObjAddr: 0x7B90, symBinAddr: 0x1000083F0, symSize: 0x30 }
  - { offsetInCU: 0x1A6DA, offset: 0x1A6DA, size: 0x8, addend: 0x0, symName: __ZNSt3__117__compressed_pairIfNS_8equal_toImEEEC1B8ne180100IfNS_18__default_init_tagEEEOT_OT0_, symObjAddr: 0x7BC0, symBinAddr: 0x100008420, symSize: 0x30 }
  - { offsetInCU: 0x1A732, offset: 0x1A732, size: 0x8, addend: 0x0, symName: __ZNSt3__110unique_ptrIA_PNS_16__hash_node_baseIPNS_11__hash_nodeImPvEEEENS_25__bucket_list_deallocatorINS_9allocatorIS7_EEEEEC2B8ne180100ILb1EvEEv, symObjAddr: 0x7BF0, symBinAddr: 0x100008450, symSize: 0x30 }
  - { offsetInCU: 0x1A767, offset: 0x1A767, size: 0x8, addend: 0x0, symName: __ZNSt3__117__compressed_pairIPPNS_16__hash_node_baseIPNS_11__hash_nodeImPvEEEENS_25__bucket_list_deallocatorINS_9allocatorIS7_EEEEEC1B8ne180100INS_16__value_init_tagESF_EEOT_OT0_, symObjAddr: 0x7C20, symBinAddr: 0x100008480, symSize: 0x30 }
  - { offsetInCU: 0x1A7BF, offset: 0x1A7BF, size: 0x8, addend: 0x0, symName: __ZNSt3__117__compressed_pairIPPNS_16__hash_node_baseIPNS_11__hash_nodeImPvEEEENS_25__bucket_list_deallocatorINS_9allocatorIS7_EEEEEC2B8ne180100INS_16__value_init_tagESF_EEOT_OT0_, symObjAddr: 0x7C50, symBinAddr: 0x1000084B0, symSize: 0x40 }
  - { offsetInCU: 0x1A817, offset: 0x1A817, size: 0x8, addend: 0x0, symName: __ZNSt3__122__compressed_pair_elemIPPNS_16__hash_node_baseIPNS_11__hash_nodeImPvEEEELi0ELb0EEC2B8ne180100ENS_16__value_init_tagE, symObjAddr: 0x7C90, symBinAddr: 0x1000084F0, symSize: 0x20 }
  - { offsetInCU: 0x1A84B, offset: 0x1A84B, size: 0x8, addend: 0x0, symName: __ZNSt3__122__compressed_pair_elemINS_25__bucket_list_deallocatorINS_9allocatorIPNS_16__hash_node_baseIPNS_11__hash_nodeImPvEEEEEEEELi1ELb0EEC2B8ne180100ENS_16__value_init_tagE, symObjAddr: 0x7CB0, symBinAddr: 0x100008510, symSize: 0x20 }
  - { offsetInCU: 0x1A87F, offset: 0x1A87F, size: 0x8, addend: 0x0, symName: __ZNSt3__125__bucket_list_deallocatorINS_9allocatorIPNS_16__hash_node_baseIPNS_11__hash_nodeImPvEEEEEEEC1B8ne180100Ev, symObjAddr: 0x7CD0, symBinAddr: 0x100008530, symSize: 0x20 }
  - { offsetInCU: 0x1A8A9, offset: 0x1A8A9, size: 0x8, addend: 0x0, symName: __ZNSt3__125__bucket_list_deallocatorINS_9allocatorIPNS_16__hash_node_baseIPNS_11__hash_nodeImPvEEEEEEEC2B8ne180100Ev, symObjAddr: 0x7CF0, symBinAddr: 0x100008550, symSize: 0x40 }
  - { offsetInCU: 0x1A8D3, offset: 0x1A8D3, size: 0x8, addend: 0x0, symName: __ZNSt3__117__compressed_pairImNS_9allocatorIPNS_16__hash_node_baseIPNS_11__hash_nodeImPvEEEEEEEC1B8ne180100IiNS_18__default_init_tagEEEOT_OT0_, symObjAddr: 0x7D30, symBinAddr: 0x100008590, symSize: 0x30 }
  - { offsetInCU: 0x1A92B, offset: 0x1A92B, size: 0x8, addend: 0x0, symName: __ZNSt3__117__compressed_pairImNS_9allocatorIPNS_16__hash_node_baseIPNS_11__hash_nodeImPvEEEEEEEC2B8ne180100IiNS_18__default_init_tagEEEOT_OT0_, symObjAddr: 0x7D60, symBinAddr: 0x1000085C0, symSize: 0x40 }
  - { offsetInCU: 0x1A983, offset: 0x1A983, size: 0x8, addend: 0x0, symName: __ZNSt3__122__compressed_pair_elemINS_9allocatorIPNS_16__hash_node_baseIPNS_11__hash_nodeImPvEEEEEELi1ELb1EEC2B8ne180100ENS_18__default_init_tagE, symObjAddr: 0x7DA0, symBinAddr: 0x100008600, symSize: 0x20 }
  - { offsetInCU: 0x1A9B7, offset: 0x1A9B7, size: 0x8, addend: 0x0, symName: __ZNSt3__19allocatorIPNS_16__hash_node_baseIPNS_11__hash_nodeImPvEEEEEC2B8ne180100Ev, symObjAddr: 0x7DC0, symBinAddr: 0x100008620, symSize: 0x20 }
  - { offsetInCU: 0x1A9E1, offset: 0x1A9E1, size: 0x8, addend: 0x0, symName: __ZNSt3__116__non_trivial_ifILb1ENS_9allocatorIPNS_16__hash_node_baseIPNS_11__hash_nodeImPvEEEEEEEC2B8ne180100Ev, symObjAddr: 0x7DE0, symBinAddr: 0x100008640, symSize: 0x10 }
  - { offsetInCU: 0x1AA0B, offset: 0x1AA0B, size: 0x8, addend: 0x0, symName: __ZNSt3__117__compressed_pairINS_16__hash_node_baseIPNS_11__hash_nodeImPvEEEENS_9allocatorIS4_EEEC2B8ne180100ILb1EvEEv, symObjAddr: 0x7DF0, symBinAddr: 0x100008650, symSize: 0x30 }
  - { offsetInCU: 0x1AA40, offset: 0x1AA40, size: 0x8, addend: 0x0, symName: __ZNSt3__122__compressed_pair_elemINS_16__hash_node_baseIPNS_11__hash_nodeImPvEEEELi0ELb0EEC2B8ne180100ENS_16__value_init_tagE, symObjAddr: 0x7E20, symBinAddr: 0x100008680, symSize: 0x20 }
  - { offsetInCU: 0x1AA74, offset: 0x1AA74, size: 0x8, addend: 0x0, symName: __ZNSt3__122__compressed_pair_elemINS_9allocatorINS_11__hash_nodeImPvEEEELi1ELb1EEC2B8ne180100ENS_16__value_init_tagE, symObjAddr: 0x7E40, symBinAddr: 0x1000086A0, symSize: 0x20 }
  - { offsetInCU: 0x1AAA8, offset: 0x1AAA8, size: 0x8, addend: 0x0, symName: __ZNSt3__116__hash_node_baseIPNS_11__hash_nodeImPvEEEC1B8ne180100Ev, symObjAddr: 0x7E60, symBinAddr: 0x1000086C0, symSize: 0x20 }
  - { offsetInCU: 0x1AAD2, offset: 0x1AAD2, size: 0x8, addend: 0x0, symName: __ZNSt3__116__hash_node_baseIPNS_11__hash_nodeImPvEEEC2B8ne180100Ev, symObjAddr: 0x7E80, symBinAddr: 0x1000086E0, symSize: 0x20 }
  - { offsetInCU: 0x1AAFC, offset: 0x1AAFC, size: 0x8, addend: 0x0, symName: __ZNSt3__19allocatorINS_11__hash_nodeImPvEEEC2B8ne180100Ev, symObjAddr: 0x7EA0, symBinAddr: 0x100008700, symSize: 0x20 }
  - { offsetInCU: 0x1AB26, offset: 0x1AB26, size: 0x8, addend: 0x0, symName: __ZNSt3__116__non_trivial_ifILb1ENS_9allocatorINS_11__hash_nodeImPvEEEEEC2B8ne180100Ev, symObjAddr: 0x7EC0, symBinAddr: 0x100008720, symSize: 0x10 }
  - { offsetInCU: 0x1AB50, offset: 0x1AB50, size: 0x8, addend: 0x0, symName: __ZNSt3__117__compressed_pairImNS_4hashImEEEC2B8ne180100IiNS_18__default_init_tagEEEOT_OT0_, symObjAddr: 0x7ED0, symBinAddr: 0x100008730, symSize: 0x40 }
  - { offsetInCU: 0x1ABA8, offset: 0x1ABA8, size: 0x8, addend: 0x0, symName: __ZNSt3__122__compressed_pair_elemINS_4hashImEELi1ELb1EEC2B8ne180100ENS_18__default_init_tagE, symObjAddr: 0x7F10, symBinAddr: 0x100008770, symSize: 0x10 }
  - { offsetInCU: 0x1ABDC, offset: 0x1ABDC, size: 0x8, addend: 0x0, symName: __ZNSt3__117__compressed_pairIfNS_8equal_toImEEEC2B8ne180100IfNS_18__default_init_tagEEEOT_OT0_, symObjAddr: 0x7F20, symBinAddr: 0x100008780, symSize: 0x40 }
  - { offsetInCU: 0x1AC34, offset: 0x1AC34, size: 0x8, addend: 0x0, symName: __ZNSt3__122__compressed_pair_elemINS_8equal_toImEELi1ELb1EEC2B8ne180100ENS_18__default_init_tagE, symObjAddr: 0x7F60, symBinAddr: 0x1000087C0, symSize: 0x10 }
  - { offsetInCU: 0x1AC68, offset: 0x1AC68, size: 0x8, addend: 0x0, symName: __ZNSt3__113unordered_setImNS_4hashImEENS_8equal_toImEENS_9allocatorImEEED2B8ne180100Ev, symObjAddr: 0x7F70, symBinAddr: 0x1000087D0, symSize: 0x20 }
  - { offsetInCU: 0x1AC92, offset: 0x1AC92, size: 0x8, addend: 0x0, symName: __ZNSt3__112__hash_tableImNS_4hashImEENS_8equal_toImEENS_9allocatorImEEED1Ev, symObjAddr: 0x7F90, symBinAddr: 0x1000087F0, symSize: 0x20 }
  - { offsetInCU: 0x1ACBE, offset: 0x1ACBE, size: 0x8, addend: 0x0, symName: __ZNSt3__112__hash_tableImNS_4hashImEENS_8equal_toImEENS_9allocatorImEEED2Ev, symObjAddr: 0x7FB0, symBinAddr: 0x100008810, symSize: 0x40 }
  - { offsetInCU: 0x1ACEA, offset: 0x1ACEA, size: 0x8, addend: 0x0, symName: __ZNSt3__112__hash_tableImNS_4hashImEENS_8equal_toImEENS_9allocatorImEEE17__deallocate_nodeEPNS_16__hash_node_baseIPNS_11__hash_nodeImPvEEEE, symObjAddr: 0x7FF0, symBinAddr: 0x100008850, symSize: 0xC0 }
  - { offsetInCU: 0x1AD54, offset: 0x1AD54, size: 0x8, addend: 0x0, symName: __ZNSt3__117__compressed_pairINS_16__hash_node_baseIPNS_11__hash_nodeImPvEEEENS_9allocatorIS4_EEE5firstB8ne180100Ev, symObjAddr: 0x80B0, symBinAddr: 0x100008910, symSize: 0x20 }
  - { offsetInCU: 0x1AD7A, offset: 0x1AD7A, size: 0x8, addend: 0x0, symName: __ZNSt3__110unique_ptrIA_PNS_16__hash_node_baseIPNS_11__hash_nodeImPvEEEENS_25__bucket_list_deallocatorINS_9allocatorIS7_EEEEED1B8ne180100Ev, symObjAddr: 0x80D0, symBinAddr: 0x100008930, symSize: 0x20 }
  - { offsetInCU: 0x1ADA4, offset: 0x1ADA4, size: 0x8, addend: 0x0, symName: __ZNSt3__112__hash_tableImNS_4hashImEENS_8equal_toImEENS_9allocatorImEEE12__node_allocB8ne180100Ev, symObjAddr: 0x80F0, symBinAddr: 0x100008950, symSize: 0x20 }
  - { offsetInCU: 0x1ADCA, offset: 0x1ADCA, size: 0x8, addend: 0x0, symName: __ZNSt3__116__hash_node_baseIPNS_11__hash_nodeImPvEEE8__upcastB8ne180100Ev, symObjAddr: 0x8110, symBinAddr: 0x100008970, symSize: 0x20 }
  - { offsetInCU: 0x1ADF0, offset: 0x1ADF0, size: 0x8, addend: 0x0, symName: __ZNSt3__116allocator_traitsINS_9allocatorINS_11__hash_nodeImPvEEEEE7destroyB8ne180100ImvvEEvRS5_PT_, symObjAddr: 0x8130, symBinAddr: 0x100008990, symSize: 0x20 }
  - { offsetInCU: 0x1AE2B, offset: 0x1AE2B, size: 0x8, addend: 0x0, symName: __ZNSt3__122__hash_key_value_typesImE9__get_ptrB8ne180100ERm, symObjAddr: 0x8150, symBinAddr: 0x1000089B0, symSize: 0x10 }
  - { offsetInCU: 0x1AE4E, offset: 0x1AE4E, size: 0x8, addend: 0x0, symName: __ZNSt3__111__hash_nodeImPvE11__get_valueB8ne180100Ev, symObjAddr: 0x8160, symBinAddr: 0x1000089C0, symSize: 0x20 }
  - { offsetInCU: 0x1AE74, offset: 0x1AE74, size: 0x8, addend: 0x0, symName: __ZNSt3__116allocator_traitsINS_9allocatorINS_11__hash_nodeImPvEEEEE10deallocateB8ne180100ERS5_PS4_m, symObjAddr: 0x81A0, symBinAddr: 0x100008A00, symSize: 0x30 }
  - { offsetInCU: 0x1AEB6, offset: 0x1AEB6, size: 0x8, addend: 0x0, symName: __ZNSt3__117__compressed_pairINS_16__hash_node_baseIPNS_11__hash_nodeImPvEEEENS_9allocatorIS4_EEE6secondB8ne180100Ev, symObjAddr: 0x81D0, symBinAddr: 0x100008A30, symSize: 0x20 }
  - { offsetInCU: 0x1AEDC, offset: 0x1AEDC, size: 0x8, addend: 0x0, symName: __ZNSt3__122__compressed_pair_elemINS_9allocatorINS_11__hash_nodeImPvEEEELi1ELb1EE5__getB8ne180100Ev, symObjAddr: 0x81F0, symBinAddr: 0x100008A50, symSize: 0x10 }
  - { offsetInCU: 0x1AF02, offset: 0x1AF02, size: 0x8, addend: 0x0, symName: __ZNSt3__114pointer_traitsIPNS_16__hash_node_baseIPNS_11__hash_nodeImPvEEEEE10pointer_toB8ne180100ERS6_, symObjAddr: 0x8200, symBinAddr: 0x100008A60, symSize: 0x10 }
  - { offsetInCU: 0x1AF25, offset: 0x1AF25, size: 0x8, addend: 0x0, symName: __ZNSt3__111__hash_nodeImPvED1B8ne180100Ev, symObjAddr: 0x8210, symBinAddr: 0x100008A70, symSize: 0x20 }
  - { offsetInCU: 0x1AF4F, offset: 0x1AF4F, size: 0x8, addend: 0x0, symName: __ZNSt3__111__hash_nodeImPvED2B8ne180100Ev, symObjAddr: 0x8230, symBinAddr: 0x100008A90, symSize: 0x10 }
  - { offsetInCU: 0x1AF79, offset: 0x1AF79, size: 0x8, addend: 0x0, symName: __ZNSt3__19allocatorINS_11__hash_nodeImPvEEE10deallocateB8ne180100EPS3_m, symObjAddr: 0x8240, symBinAddr: 0x100008AA0, symSize: 0x50 }
  - { offsetInCU: 0x1AFBB, offset: 0x1AFBB, size: 0x8, addend: 0x0, symName: __ZNSt3__122__compressed_pair_elemINS_16__hash_node_baseIPNS_11__hash_nodeImPvEEEELi0ELb0EE5__getB8ne180100Ev, symObjAddr: 0x8290, symBinAddr: 0x100008AF0, symSize: 0x10 }
  - { offsetInCU: 0x1AFE1, offset: 0x1AFE1, size: 0x8, addend: 0x0, symName: __ZNSt3__110unique_ptrIA_PNS_16__hash_node_baseIPNS_11__hash_nodeImPvEEEENS_25__bucket_list_deallocatorINS_9allocatorIS7_EEEEED2B8ne180100Ev, symObjAddr: 0x82A0, symBinAddr: 0x100008B00, symSize: 0x20 }
  - { offsetInCU: 0x1B00B, offset: 0x1B00B, size: 0x8, addend: 0x0, symName: __ZNSt3__110unique_ptrIA_PNS_16__hash_node_baseIPNS_11__hash_nodeImPvEEEENS_25__bucket_list_deallocatorINS_9allocatorIS7_EEEEE5resetB8ne180100EDn, symObjAddr: 0x82C0, symBinAddr: 0x100008B20, symSize: 0x60 }
  - { offsetInCU: 0x1B04C, offset: 0x1B04C, size: 0x8, addend: 0x0, symName: __ZNSt3__117__compressed_pairIPPNS_16__hash_node_baseIPNS_11__hash_nodeImPvEEEENS_25__bucket_list_deallocatorINS_9allocatorIS7_EEEEE5firstB8ne180100Ev, symObjAddr: 0x8320, symBinAddr: 0x100008B80, symSize: 0x20 }
  - { offsetInCU: 0x1B072, offset: 0x1B072, size: 0x8, addend: 0x0, symName: __ZNSt3__117__compressed_pairIPPNS_16__hash_node_baseIPNS_11__hash_nodeImPvEEEENS_25__bucket_list_deallocatorINS_9allocatorIS7_EEEEE6secondB8ne180100Ev, symObjAddr: 0x8340, symBinAddr: 0x100008BA0, symSize: 0x20 }
  - { offsetInCU: 0x1B098, offset: 0x1B098, size: 0x8, addend: 0x0, symName: __ZNSt3__125__bucket_list_deallocatorINS_9allocatorIPNS_16__hash_node_baseIPNS_11__hash_nodeImPvEEEEEEEclB8ne180100EPS8_, symObjAddr: 0x8360, symBinAddr: 0x100008BC0, symSize: 0x50 }
  - { offsetInCU: 0x1B0CD, offset: 0x1B0CD, size: 0x8, addend: 0x0, symName: __ZNSt3__122__compressed_pair_elemIPPNS_16__hash_node_baseIPNS_11__hash_nodeImPvEEEELi0ELb0EE5__getB8ne180100Ev, symObjAddr: 0x83B0, symBinAddr: 0x100008C10, symSize: 0x10 }
  - { offsetInCU: 0x1B0F3, offset: 0x1B0F3, size: 0x8, addend: 0x0, symName: __ZNSt3__122__compressed_pair_elemINS_25__bucket_list_deallocatorINS_9allocatorIPNS_16__hash_node_baseIPNS_11__hash_nodeImPvEEEEEEEELi1ELb0EE5__getB8ne180100Ev, symObjAddr: 0x83C0, symBinAddr: 0x100008C20, symSize: 0x10 }
  - { offsetInCU: 0x1B119, offset: 0x1B119, size: 0x8, addend: 0x0, symName: __ZNSt3__116allocator_traitsINS_9allocatorIPNS_16__hash_node_baseIPNS_11__hash_nodeImPvEEEEEEE10deallocateB8ne180100ERS9_PS8_m, symObjAddr: 0x83D0, symBinAddr: 0x100008C30, symSize: 0x30 }
  - { offsetInCU: 0x1B15B, offset: 0x1B15B, size: 0x8, addend: 0x0, symName: __ZNSt3__125__bucket_list_deallocatorINS_9allocatorIPNS_16__hash_node_baseIPNS_11__hash_nodeImPvEEEEEEE7__allocB8ne180100Ev, symObjAddr: 0x8400, symBinAddr: 0x100008C60, symSize: 0x20 }
  - { offsetInCU: 0x1B181, offset: 0x1B181, size: 0x8, addend: 0x0, symName: __ZNSt3__125__bucket_list_deallocatorINS_9allocatorIPNS_16__hash_node_baseIPNS_11__hash_nodeImPvEEEEEEE4sizeB8ne180100Ev, symObjAddr: 0x8420, symBinAddr: 0x100008C80, symSize: 0x20 }
  - { offsetInCU: 0x1B1A7, offset: 0x1B1A7, size: 0x8, addend: 0x0, symName: __ZNSt3__19allocatorIPNS_16__hash_node_baseIPNS_11__hash_nodeImPvEEEEE10deallocateB8ne180100EPS7_m, symObjAddr: 0x8440, symBinAddr: 0x100008CA0, symSize: 0x40 }
  - { offsetInCU: 0x1B1E9, offset: 0x1B1E9, size: 0x8, addend: 0x0, symName: __ZNSt3__117__compressed_pairImNS_9allocatorIPNS_16__hash_node_baseIPNS_11__hash_nodeImPvEEEEEEE6secondB8ne180100Ev, symObjAddr: 0x8480, symBinAddr: 0x100008CE0, symSize: 0x20 }
  - { offsetInCU: 0x1B20F, offset: 0x1B20F, size: 0x8, addend: 0x0, symName: __ZNSt3__122__compressed_pair_elemINS_9allocatorIPNS_16__hash_node_baseIPNS_11__hash_nodeImPvEEEEEELi1ELb1EE5__getB8ne180100Ev, symObjAddr: 0x84A0, symBinAddr: 0x100008D00, symSize: 0x10 }
  - { offsetInCU: 0x1B235, offset: 0x1B235, size: 0x8, addend: 0x0, symName: __ZNSt3__117__compressed_pairImNS_9allocatorIPNS_16__hash_node_baseIPNS_11__hash_nodeImPvEEEEEEE5firstB8ne180100Ev, symObjAddr: 0x84B0, symBinAddr: 0x100008D10, symSize: 0x20 }
  - { offsetInCU: 0x1B25B, offset: 0x1B25B, size: 0x8, addend: 0x0, symName: __ZNKSt3__15dequeImNS_9allocatorImEEE5emptyB8ne180100Ev, symObjAddr: 0x84D0, symBinAddr: 0x100008D30, symSize: 0x30 }
  - { offsetInCU: 0x1B281, offset: 0x1B281, size: 0x8, addend: 0x0, symName: __ZNSt3__15dequeImNS_9allocatorImEEE5frontEv, symObjAddr: 0x8500, symBinAddr: 0x100008D60, symSize: 0x50 }
  - { offsetInCU: 0x1B2A9, offset: 0x1B2A9, size: 0x8, addend: 0x0, symName: __ZNSt3__15dequeImNS_9allocatorImEEE9pop_frontEv, symObjAddr: 0x8550, symBinAddr: 0x100008DB0, symSize: 0xC0 }
  - { offsetInCU: 0x1B2FE, offset: 0x1B2FE, size: 0x8, addend: 0x0, symName: __ZNKSt3__15dequeImNS_9allocatorImEEE23__annotate_shrink_frontB8ne180100Emm, symObjAddr: 0x8620, symBinAddr: 0x100008E80, symSize: 0x20 }
  - { offsetInCU: 0x1B342, offset: 0x1B342, size: 0x8, addend: 0x0, symName: __ZNSt3__15dequeImNS_9allocatorImEEE26__maybe_remove_front_spareB8ne180100Eb, symObjAddr: 0x8640, symBinAddr: 0x100008EA0, symSize: 0xC0 }
  - { offsetInCU: 0x1B377, offset: 0x1B377, size: 0x8, addend: 0x0, symName: __ZNKSt3__15dequeImNS_9allocatorImEEE20__front_spare_blocksB8ne180100Ev, symObjAddr: 0x8700, symBinAddr: 0x100008F60, symSize: 0x20 }
  - { offsetInCU: 0x1B39D, offset: 0x1B39D, size: 0x8, addend: 0x0, symName: __ZNKSt3__112__hash_tableINS_17__hash_value_typeIc4NodeEENS_22__unordered_map_hasherIcS3_NS_4hashIcEENS_8equal_toIcEELb1EEENS_21__unordered_map_equalIcS3_S8_S6_Lb1EEENS_9allocatorIS3_EEE4sizeB8ne180100Ev, symObjAddr: 0x8720, symBinAddr: 0x100008F80, symSize: 0x30 }
  - { offsetInCU: 0x1B3C3, offset: 0x1B3C3, size: 0x8, addend: 0x0, symName: __ZNKSt3__117__compressed_pairImNS_22__unordered_map_hasherIcNS_17__hash_value_typeIc4NodeEENS_4hashIcEENS_8equal_toIcEELb1EEEE5firstB8ne180100Ev, symObjAddr: 0x8750, symBinAddr: 0x100008FB0, symSize: 0x20 }
  - { offsetInCU: 0x1B3E9, offset: 0x1B3E9, size: 0x8, addend: 0x0, symName: __ZNKSt3__112__hash_tableINS_17__hash_value_typeIc4NodeEENS_22__unordered_map_hasherIcS3_NS_4hashIcEENS_8equal_toIcEELb1EEENS_21__unordered_map_equalIcS3_S8_S6_Lb1EEENS_9allocatorIS3_EEE14__count_uniqueIcEEmRKT_, symObjAddr: 0x8770, symBinAddr: 0x100008FD0, symSize: 0x50 }
  - { offsetInCU: 0x1B429, offset: 0x1B429, size: 0x8, addend: 0x0, symName: __ZNKSt3__112__hash_tableINS_17__hash_value_typeIc4NodeEENS_22__unordered_map_hasherIcS3_NS_4hashIcEENS_8equal_toIcEELb1EEENS_21__unordered_map_equalIcS3_S8_S6_Lb1EEENS_9allocatorIS3_EEE4findIcEENS_21__hash_const_iteratorIPNS_11__hash_nodeIS3_PvEEEERKT_, symObjAddr: 0x87F0, symBinAddr: 0x100009050, symSize: 0x190 }
  - { offsetInCU: 0x1B4B3, offset: 0x1B4B3, size: 0x8, addend: 0x0, symName: __ZNKSt3__112__hash_tableINS_17__hash_value_typeIc4NodeEENS_22__unordered_map_hasherIcS3_NS_4hashIcEENS_8equal_toIcEELb1EEENS_21__unordered_map_equalIcS3_S8_S6_Lb1EEENS_9allocatorIS3_EEE3endEv, symObjAddr: 0x8980, symBinAddr: 0x1000091E0, symSize: 0x30 }
  - { offsetInCU: 0x1B4DB, offset: 0x1B4DB, size: 0x8, addend: 0x0, symName: __ZNKSt3__112__hash_tableINS_17__hash_value_typeIc4NodeEENS_22__unordered_map_hasherIcS3_NS_4hashIcEENS_8equal_toIcEELb1EEENS_21__unordered_map_equalIcS3_S8_S6_Lb1EEENS_9allocatorIS3_EEE13hash_functionB8ne180100Ev, symObjAddr: 0x89E0, symBinAddr: 0x100009240, symSize: 0x20 }
  - { offsetInCU: 0x1B501, offset: 0x1B501, size: 0x8, addend: 0x0, symName: __ZNKSt3__112__hash_tableINS_17__hash_value_typeIc4NodeEENS_22__unordered_map_hasherIcS3_NS_4hashIcEENS_8equal_toIcEELb1EEENS_21__unordered_map_equalIcS3_S8_S6_Lb1EEENS_9allocatorIS3_EEE6key_eqB8ne180100Ev, symObjAddr: 0x8A00, symBinAddr: 0x100009260, symSize: 0x20 }
  - { offsetInCU: 0x1B527, offset: 0x1B527, size: 0x8, addend: 0x0, symName: __ZNSt3__121__hash_const_iteratorIPNS_11__hash_nodeINS_17__hash_value_typeIc4NodeEEPvEEEC1B8ne180100EPNS_16__hash_node_baseIS7_EE, symObjAddr: 0x8A20, symBinAddr: 0x100009280, symSize: 0x30 }
  - { offsetInCU: 0x1B560, offset: 0x1B560, size: 0x8, addend: 0x0, symName: __ZNKSt3__117__compressed_pairImNS_22__unordered_map_hasherIcNS_17__hash_value_typeIc4NodeEENS_4hashIcEENS_8equal_toIcEELb1EEEE6secondB8ne180100Ev, symObjAddr: 0x8A50, symBinAddr: 0x1000092B0, symSize: 0x20 }
  - { offsetInCU: 0x1B586, offset: 0x1B586, size: 0x8, addend: 0x0, symName: __ZNKSt3__122__compressed_pair_elemINS_22__unordered_map_hasherIcNS_17__hash_value_typeIc4NodeEENS_4hashIcEENS_8equal_toIcEELb1EEELi1ELb1EE5__getB8ne180100Ev, symObjAddr: 0x8A70, symBinAddr: 0x1000092D0, symSize: 0x10 }
  - { offsetInCU: 0x1B5AC, offset: 0x1B5AC, size: 0x8, addend: 0x0, symName: __ZNKSt3__117__compressed_pairIfNS_21__unordered_map_equalIcNS_17__hash_value_typeIc4NodeEENS_8equal_toIcEENS_4hashIcEELb1EEEE6secondB8ne180100Ev, symObjAddr: 0x8A80, symBinAddr: 0x1000092E0, symSize: 0x20 }
  - { offsetInCU: 0x1B5D2, offset: 0x1B5D2, size: 0x8, addend: 0x0, symName: __ZNKSt3__122__compressed_pair_elemINS_21__unordered_map_equalIcNS_17__hash_value_typeIc4NodeEENS_8equal_toIcEENS_4hashIcEELb1EEELi1ELb1EE5__getB8ne180100Ev, symObjAddr: 0x8AA0, symBinAddr: 0x100009300, symSize: 0x10 }
  - { offsetInCU: 0x1B5F8, offset: 0x1B5F8, size: 0x8, addend: 0x0, symName: __ZNSt3__121__hash_const_iteratorIPNS_11__hash_nodeINS_17__hash_value_typeIc4NodeEEPvEEEC2B8ne180100EPNS_16__hash_node_baseIS7_EE, symObjAddr: 0x8AB0, symBinAddr: 0x100009310, symSize: 0x20 }
  - { offsetInCU: 0x1B631, offset: 0x1B631, size: 0x8, addend: 0x0, symName: __ZNKSt3__112__hash_tableImNS_4hashImEENS_8equal_toImEENS_9allocatorImEEE14__count_uniqueImEEmRKT_, symObjAddr: 0x8AD0, symBinAddr: 0x100009330, symSize: 0x50 }
  - { offsetInCU: 0x1B671, offset: 0x1B671, size: 0x8, addend: 0x0, symName: __ZNKSt3__112__hash_tableImNS_4hashImEENS_8equal_toImEENS_9allocatorImEEE4findImEENS_21__hash_const_iteratorIPNS_11__hash_nodeImPvEEEERKT_, symObjAddr: 0x8B50, symBinAddr: 0x1000093B0, symSize: 0x190 }
  - { offsetInCU: 0x1B6FB, offset: 0x1B6FB, size: 0x8, addend: 0x0, symName: __ZNKSt3__112__hash_tableImNS_4hashImEENS_8equal_toImEENS_9allocatorImEEE3endEv, symObjAddr: 0x8CE0, symBinAddr: 0x100009540, symSize: 0x30 }
  - { offsetInCU: 0x1B723, offset: 0x1B723, size: 0x8, addend: 0x0, symName: __ZNKSt3__112__hash_tableImNS_4hashImEENS_8equal_toImEENS_9allocatorImEEE13hash_functionB8ne180100Ev, symObjAddr: 0x8D40, symBinAddr: 0x1000095A0, symSize: 0x20 }
  - { offsetInCU: 0x1B749, offset: 0x1B749, size: 0x8, addend: 0x0, symName: __ZNKSt3__14hashImEclB8ne180100Em, symObjAddr: 0x8D60, symBinAddr: 0x1000095C0, symSize: 0x20 }
  - { offsetInCU: 0x1B77E, offset: 0x1B77E, size: 0x8, addend: 0x0, symName: __ZNKSt3__112__hash_tableImNS_4hashImEENS_8equal_toImEENS_9allocatorImEEE12bucket_countB8ne180100Ev, symObjAddr: 0x8D80, symBinAddr: 0x1000095E0, symSize: 0x30 }
  - { offsetInCU: 0x1B7A4, offset: 0x1B7A4, size: 0x8, addend: 0x0, symName: __ZNKSt3__110unique_ptrIA_PNS_16__hash_node_baseIPNS_11__hash_nodeImPvEEEENS_25__bucket_list_deallocatorINS_9allocatorIS7_EEEEEixB8ne180100Em, symObjAddr: 0x8DB0, symBinAddr: 0x100009610, symSize: 0x30 }
  - { offsetInCU: 0x1B7D9, offset: 0x1B7D9, size: 0x8, addend: 0x0, symName: __ZNKSt3__116__hash_node_baseIPNS_11__hash_nodeImPvEEE6__hashB8ne180100Ev, symObjAddr: 0x8DE0, symBinAddr: 0x100009640, symSize: 0x20 }
  - { offsetInCU: 0x1B7FF, offset: 0x1B7FF, size: 0x8, addend: 0x0, symName: __ZNKSt3__112__hash_tableImNS_4hashImEENS_8equal_toImEENS_9allocatorImEEE6key_eqB8ne180100Ev, symObjAddr: 0x8E00, symBinAddr: 0x100009660, symSize: 0x20 }
  - { offsetInCU: 0x1B825, offset: 0x1B825, size: 0x8, addend: 0x0, symName: __ZNKSt3__18equal_toImEclB8ne180100ERKmS3_, symObjAddr: 0x8E20, symBinAddr: 0x100009680, symSize: 0x30 }
  - { offsetInCU: 0x1B869, offset: 0x1B869, size: 0x8, addend: 0x0, symName: __ZNSt3__121__hash_const_iteratorIPNS_11__hash_nodeImPvEEEC1B8ne180100EPNS_16__hash_node_baseIS4_EE, symObjAddr: 0x8E50, symBinAddr: 0x1000096B0, symSize: 0x30 }
  - { offsetInCU: 0x1B8A2, offset: 0x1B8A2, size: 0x8, addend: 0x0, symName: __ZNKSt3__117__compressed_pairImNS_4hashImEEE6secondB8ne180100Ev, symObjAddr: 0x8E80, symBinAddr: 0x1000096E0, symSize: 0x20 }
  - { offsetInCU: 0x1B8C8, offset: 0x1B8C8, size: 0x8, addend: 0x0, symName: __ZNKSt3__122__compressed_pair_elemINS_4hashImEELi1ELb1EE5__getB8ne180100Ev, symObjAddr: 0x8EA0, symBinAddr: 0x100009700, symSize: 0x10 }
  - { offsetInCU: 0x1B8EE, offset: 0x1B8EE, size: 0x8, addend: 0x0, symName: __ZNKSt3__110unique_ptrIA_PNS_16__hash_node_baseIPNS_11__hash_nodeImPvEEEENS_25__bucket_list_deallocatorINS_9allocatorIS7_EEEEE11get_deleterB8ne180100Ev, symObjAddr: 0x8EB0, symBinAddr: 0x100009710, symSize: 0x20 }
  - { offsetInCU: 0x1B914, offset: 0x1B914, size: 0x8, addend: 0x0, symName: __ZNKSt3__125__bucket_list_deallocatorINS_9allocatorIPNS_16__hash_node_baseIPNS_11__hash_nodeImPvEEEEEEE4sizeB8ne180100Ev, symObjAddr: 0x8ED0, symBinAddr: 0x100009730, symSize: 0x20 }
  - { offsetInCU: 0x1B93A, offset: 0x1B93A, size: 0x8, addend: 0x0, symName: __ZNKSt3__117__compressed_pairIPPNS_16__hash_node_baseIPNS_11__hash_nodeImPvEEEENS_25__bucket_list_deallocatorINS_9allocatorIS7_EEEEE6secondB8ne180100Ev, symObjAddr: 0x8EF0, symBinAddr: 0x100009750, symSize: 0x20 }
  - { offsetInCU: 0x1B960, offset: 0x1B960, size: 0x8, addend: 0x0, symName: __ZNKSt3__122__compressed_pair_elemINS_25__bucket_list_deallocatorINS_9allocatorIPNS_16__hash_node_baseIPNS_11__hash_nodeImPvEEEEEEEELi1ELb0EE5__getB8ne180100Ev, symObjAddr: 0x8F10, symBinAddr: 0x100009770, symSize: 0x10 }
  - { offsetInCU: 0x1B986, offset: 0x1B986, size: 0x8, addend: 0x0, symName: __ZNKSt3__117__compressed_pairImNS_9allocatorIPNS_16__hash_node_baseIPNS_11__hash_nodeImPvEEEEEEE5firstB8ne180100Ev, symObjAddr: 0x8F20, symBinAddr: 0x100009780, symSize: 0x20 }
  - { offsetInCU: 0x1B9AC, offset: 0x1B9AC, size: 0x8, addend: 0x0, symName: __ZNKSt3__117__compressed_pairIPPNS_16__hash_node_baseIPNS_11__hash_nodeImPvEEEENS_25__bucket_list_deallocatorINS_9allocatorIS7_EEEEE5firstB8ne180100Ev, symObjAddr: 0x8F40, symBinAddr: 0x1000097A0, symSize: 0x20 }
  - { offsetInCU: 0x1B9D2, offset: 0x1B9D2, size: 0x8, addend: 0x0, symName: __ZNKSt3__122__compressed_pair_elemIPPNS_16__hash_node_baseIPNS_11__hash_nodeImPvEEEELi0ELb0EE5__getB8ne180100Ev, symObjAddr: 0x8F60, symBinAddr: 0x1000097C0, symSize: 0x10 }
  - { offsetInCU: 0x1B9F8, offset: 0x1B9F8, size: 0x8, addend: 0x0, symName: __ZNKSt3__117__compressed_pairIfNS_8equal_toImEEE6secondB8ne180100Ev, symObjAddr: 0x8F70, symBinAddr: 0x1000097D0, symSize: 0x20 }
  - { offsetInCU: 0x1BA1E, offset: 0x1BA1E, size: 0x8, addend: 0x0, symName: __ZNKSt3__122__compressed_pair_elemINS_8equal_toImEELi1ELb1EE5__getB8ne180100Ev, symObjAddr: 0x8F90, symBinAddr: 0x1000097F0, symSize: 0x10 }
  - { offsetInCU: 0x1BA44, offset: 0x1BA44, size: 0x8, addend: 0x0, symName: __ZNSt3__121__hash_const_iteratorIPNS_11__hash_nodeImPvEEEC2B8ne180100EPNS_16__hash_node_baseIS4_EE, symObjAddr: 0x8FA0, symBinAddr: 0x100009800, symSize: 0x20 }
  - { offsetInCU: 0x1BA7D, offset: 0x1BA7D, size: 0x8, addend: 0x0, symName: __ZNSt3__15dequeImNS_9allocatorImEEE9push_backERKm, symObjAddr: 0x8FC0, symBinAddr: 0x100009820, symSize: 0xA0 }
  - { offsetInCU: 0x1BAC3, offset: 0x1BAC3, size: 0x8, addend: 0x0, symName: __ZNSt3__116allocator_traitsINS_9allocatorImEEE9constructB8ne180100ImJRKmEvvEEvRS2_PT_DpOT0_, symObjAddr: 0x9060, symBinAddr: 0x1000098C0, symSize: 0x30 }
  - { offsetInCU: 0x1BB18, offset: 0x1BB18, size: 0x8, addend: 0x0, symName: __ZNSt3__112__hash_tableImNS_4hashImEENS_8equal_toImEENS_9allocatorImEEE15__insert_uniqueB8ne180100ERKm, symObjAddr: 0x90E0, symBinAddr: 0x100009940, symSize: 0x50 }
  - { offsetInCU: 0x1BB4D, offset: 0x1BB4D, size: 0x8, addend: 0x0, symName: __ZNSt3__14pairINS_21__hash_const_iteratorIPNS_11__hash_nodeImPvEEEEbEC1B8ne180100INS_15__hash_iteratorIS5_EEbLi0EEEONS0_IT_T0_EE, symObjAddr: 0x9130, symBinAddr: 0x100009990, symSize: 0x30 }
  - { offsetInCU: 0x1BB9D, offset: 0x1BB9D, size: 0x8, addend: 0x0, symName: __ZNSt3__112__hash_tableImNS_4hashImEENS_8equal_toImEENS_9allocatorImEEE25__emplace_unique_key_argsImJRKmEEENS_4pairINS_15__hash_iteratorIPNS_11__hash_nodeImPvEEEEbEERKT_DpOT0_, symObjAddr: 0x9160, symBinAddr: 0x1000099C0, symSize: 0x5B0 }
  - { offsetInCU: 0x1BC7B, offset: 0x1BC7B, size: 0x8, addend: 0x0, symName: __ZNSt3__122__hash_key_value_typesImE9__get_keyB8ne180100ERKm, symObjAddr: 0x9710, symBinAddr: 0x100009F70, symSize: 0x10 }
  - { offsetInCU: 0x1BC9E, offset: 0x1BC9E, size: 0x8, addend: 0x0, symName: __ZNSt3__112__hash_tableImNS_4hashImEENS_8equal_toImEENS_9allocatorImEEE13hash_functionB8ne180100Ev, symObjAddr: 0x9720, symBinAddr: 0x100009F80, symSize: 0x20 }
  - { offsetInCU: 0x1BCC4, offset: 0x1BCC4, size: 0x8, addend: 0x0, symName: __ZNSt3__112__hash_tableImNS_4hashImEENS_8equal_toImEENS_9allocatorImEEE6key_eqB8ne180100Ev, symObjAddr: 0x9740, symBinAddr: 0x100009FA0, symSize: 0x20 }
  - { offsetInCU: 0x1BCEA, offset: 0x1BCEA, size: 0x8, addend: 0x0, symName: __ZNSt3__112__hash_tableImNS_4hashImEENS_8equal_toImEENS_9allocatorImEEE21__construct_node_hashIRKmJEEENS_10unique_ptrINS_11__hash_nodeImPvEENS_22__hash_node_destructorINS5_ISE_EEEEEEmOT_DpOT0_, symObjAddr: 0x9760, symBinAddr: 0x100009FC0, symSize: 0x140 }
  - { offsetInCU: 0x1BD5D, offset: 0x1BD5D, size: 0x8, addend: 0x0, symName: __ZNSt3__112__hash_tableImNS_4hashImEENS_8equal_toImEENS_9allocatorImEEE4sizeB8ne180100Ev, symObjAddr: 0x98A0, symBinAddr: 0x10000A100, symSize: 0x20 }
  - { offsetInCU: 0x1BD83, offset: 0x1BD83, size: 0x8, addend: 0x0, symName: __ZNSt3__112__hash_tableImNS_4hashImEENS_8equal_toImEENS_9allocatorImEEE15max_load_factorB8ne180100Ev, symObjAddr: 0x98C0, symBinAddr: 0x10000A120, symSize: 0x20 }
  - { offsetInCU: 0x1BDA9, offset: 0x1BDA9, size: 0x8, addend: 0x0, symName: __ZNSt3__112__hash_tableImNS_4hashImEENS_8equal_toImEENS_9allocatorImEEE15__rehash_uniqueB8ne180100Em, symObjAddr: 0x98E0, symBinAddr: 0x10000A140, symSize: 0x30 }
  - { offsetInCU: 0x1BDDE, offset: 0x1BDDE, size: 0x8, addend: 0x0, symName: __ZNSt3__116__hash_node_baseIPNS_11__hash_nodeImPvEEE5__ptrB8ne180100Ev, symObjAddr: 0x9910, symBinAddr: 0x10000A170, symSize: 0x20 }
  - { offsetInCU: 0x1BE04, offset: 0x1BE04, size: 0x8, addend: 0x0, symName: __ZNKSt3__110unique_ptrINS_11__hash_nodeImPvEENS_22__hash_node_destructorINS_9allocatorIS3_EEEEEptB8ne180100Ev, symObjAddr: 0x9930, symBinAddr: 0x10000A190, symSize: 0x20 }
  - { offsetInCU: 0x1BE2A, offset: 0x1BE2A, size: 0x8, addend: 0x0, symName: __ZNKSt3__110unique_ptrINS_11__hash_nodeImPvEENS_22__hash_node_destructorINS_9allocatorIS3_EEEEE3getB8ne180100Ev, symObjAddr: 0x9950, symBinAddr: 0x10000A1B0, symSize: 0x20 }
  - { offsetInCU: 0x1BE50, offset: 0x1BE50, size: 0x8, addend: 0x0, symName: __ZNSt3__110unique_ptrINS_11__hash_nodeImPvEENS_22__hash_node_destructorINS_9allocatorIS3_EEEEE7releaseB8ne180100Ev, symObjAddr: 0x9970, symBinAddr: 0x10000A1D0, symSize: 0x40 }
  - { offsetInCU: 0x1BE85, offset: 0x1BE85, size: 0x8, addend: 0x0, symName: __ZNSt3__110unique_ptrINS_11__hash_nodeImPvEENS_22__hash_node_destructorINS_9allocatorIS3_EEEEED1B8ne180100Ev, symObjAddr: 0x99B0, symBinAddr: 0x10000A210, symSize: 0x20 }
  - { offsetInCU: 0x1BEAF, offset: 0x1BEAF, size: 0x8, addend: 0x0, symName: __ZNSt3__115__hash_iteratorIPNS_11__hash_nodeImPvEEEC1B8ne180100EPNS_16__hash_node_baseIS4_EE, symObjAddr: 0x99D0, symBinAddr: 0x10000A230, symSize: 0x30 }
  - { offsetInCU: 0x1BEEE, offset: 0x1BEEE, size: 0x8, addend: 0x0, symName: __ZNSt3__14pairINS_15__hash_iteratorIPNS_11__hash_nodeImPvEEEEbEC1B8ne180100IS6_RbLi0EEEOT_OT0_, symObjAddr: 0x9A00, symBinAddr: 0x10000A260, symSize: 0x30 }
  - { offsetInCU: 0x1BF4C, offset: 0x1BF4C, size: 0x8, addend: 0x0, symName: __ZNSt3__117__compressed_pairImNS_4hashImEEE6secondB8ne180100Ev, symObjAddr: 0x9A30, symBinAddr: 0x10000A290, symSize: 0x20 }
  - { offsetInCU: 0x1BF72, offset: 0x1BF72, size: 0x8, addend: 0x0, symName: __ZNSt3__122__compressed_pair_elemINS_4hashImEELi1ELb1EE5__getB8ne180100Ev, symObjAddr: 0x9A50, symBinAddr: 0x10000A2B0, symSize: 0x10 }
  - { offsetInCU: 0x1BF98, offset: 0x1BF98, size: 0x8, addend: 0x0, symName: __ZNSt3__117__compressed_pairIfNS_8equal_toImEEE6secondB8ne180100Ev, symObjAddr: 0x9A60, symBinAddr: 0x10000A2C0, symSize: 0x20 }
  - { offsetInCU: 0x1BFBE, offset: 0x1BFBE, size: 0x8, addend: 0x0, symName: __ZNSt3__122__compressed_pair_elemINS_8equal_toImEELi1ELb1EE5__getB8ne180100Ev, symObjAddr: 0x9A80, symBinAddr: 0x10000A2E0, symSize: 0x10 }
  - { offsetInCU: 0x1BFE4, offset: 0x1BFE4, size: 0x8, addend: 0x0, symName: __ZNSt3__116allocator_traitsINS_9allocatorINS_11__hash_nodeImPvEEEEE8allocateB8ne180100ERS5_m, symObjAddr: 0x9A90, symBinAddr: 0x10000A2F0, symSize: 0x30 }
  - { offsetInCU: 0x1C017, offset: 0x1C017, size: 0x8, addend: 0x0, symName: __ZNSt3__122__hash_node_destructorINS_9allocatorINS_11__hash_nodeImPvEEEEEC1B8ne180100ERS5_b, symObjAddr: 0x9AC0, symBinAddr: 0x10000A320, symSize: 0x40 }
  - { offsetInCU: 0x1C065, offset: 0x1C065, size: 0x8, addend: 0x0, symName: __ZNSt3__110unique_ptrINS_11__hash_nodeImPvEENS_22__hash_node_destructorINS_9allocatorIS3_EEEEEC1B8ne180100ILb1EvEEPS3_NS_16__dependent_typeINS_27__unique_ptr_deleter_sfinaeIS7_EEXT_EE20__good_rval_ref_typeE, symObjAddr: 0x9B00, symBinAddr: 0x10000A360, symSize: 0x30 }
  - { offsetInCU: 0x1C0B6, offset: 0x1C0B6, size: 0x8, addend: 0x0, symName: __ZNKSt3__110unique_ptrINS_11__hash_nodeImPvEENS_22__hash_node_destructorINS_9allocatorIS3_EEEEEdeB8ne180100Ev, symObjAddr: 0x9B60, symBinAddr: 0x10000A3C0, symSize: 0x20 }
  - { offsetInCU: 0x1C0DC, offset: 0x1C0DC, size: 0x8, addend: 0x0, symName: __ZNSt3__116allocator_traitsINS_9allocatorINS_11__hash_nodeImPvEEEEE9constructB8ne180100ImJRKmEvvEEvRS5_PT_DpOT0_, symObjAddr: 0x9B80, symBinAddr: 0x10000A3E0, symSize: 0x30 }
  - { offsetInCU: 0x1C131, offset: 0x1C131, size: 0x8, addend: 0x0, symName: __ZNSt3__110unique_ptrINS_11__hash_nodeImPvEENS_22__hash_node_destructorINS_9allocatorIS3_EEEEE11get_deleterB8ne180100Ev, symObjAddr: 0x9BB0, symBinAddr: 0x10000A410, symSize: 0x20 }
  - { offsetInCU: 0x1C157, offset: 0x1C157, size: 0x8, addend: 0x0, symName: __ZNSt3__19allocatorINS_11__hash_nodeImPvEEE8allocateB8ne180100Em, symObjAddr: 0x9BD0, symBinAddr: 0x10000A430, symSize: 0x50 }
  - { offsetInCU: 0x1C196, offset: 0x1C196, size: 0x8, addend: 0x0, symName: __ZNSt3__116allocator_traitsINS_9allocatorINS_11__hash_nodeImPvEEEEE8max_sizeB8ne180100IS5_vvEEmRKS5_, symObjAddr: 0x9C20, symBinAddr: 0x10000A480, symSize: 0x30 }
  - { offsetInCU: 0x1C1C2, offset: 0x1C1C2, size: 0x8, addend: 0x0, symName: __ZNSt3__122__hash_node_destructorINS_9allocatorINS_11__hash_nodeImPvEEEEEC2B8ne180100ERS5_b, symObjAddr: 0x9C50, symBinAddr: 0x10000A4B0, symSize: 0x30 }
  - { offsetInCU: 0x1C20A, offset: 0x1C20A, size: 0x8, addend: 0x0, symName: __ZNSt3__110unique_ptrINS_11__hash_nodeImPvEENS_22__hash_node_destructorINS_9allocatorIS3_EEEEEC2B8ne180100ILb1EvEEPS3_NS_16__dependent_typeINS_27__unique_ptr_deleter_sfinaeIS7_EEXT_EE20__good_rval_ref_typeE, symObjAddr: 0x9C80, symBinAddr: 0x10000A4E0, symSize: 0x40 }
  - { offsetInCU: 0x1C25B, offset: 0x1C25B, size: 0x8, addend: 0x0, symName: __ZNSt3__117__compressed_pairIPNS_11__hash_nodeImPvEENS_22__hash_node_destructorINS_9allocatorIS3_EEEEEC1B8ne180100IRS4_S8_EEOT_OT0_, symObjAddr: 0x9CC0, symBinAddr: 0x10000A520, symSize: 0x30 }
  - { offsetInCU: 0x1C2B3, offset: 0x1C2B3, size: 0x8, addend: 0x0, symName: __ZNSt3__117__compressed_pairIPNS_11__hash_nodeImPvEENS_22__hash_node_destructorINS_9allocatorIS3_EEEEEC2B8ne180100IRS4_S8_EEOT_OT0_, symObjAddr: 0x9CF0, symBinAddr: 0x10000A550, symSize: 0x40 }
  - { offsetInCU: 0x1C30B, offset: 0x1C30B, size: 0x8, addend: 0x0, symName: __ZNSt3__122__compressed_pair_elemIPNS_11__hash_nodeImPvEELi0ELb0EEC2B8ne180100IRS4_vEEOT_, symObjAddr: 0x9D30, symBinAddr: 0x10000A590, symSize: 0x20 }
  - { offsetInCU: 0x1C34D, offset: 0x1C34D, size: 0x8, addend: 0x0, symName: __ZNSt3__122__compressed_pair_elemINS_22__hash_node_destructorINS_9allocatorINS_11__hash_nodeImPvEEEEEELi1ELb0EEC2B8ne180100IS7_vEEOT_, symObjAddr: 0x9D50, symBinAddr: 0x10000A5B0, symSize: 0x30 }
  - { offsetInCU: 0x1C38F, offset: 0x1C38F, size: 0x8, addend: 0x0, symName: __ZNSt3__111__hash_nodeImPvEC1B8ne180100EPNS_16__hash_node_baseIPS2_EEm, symObjAddr: 0x9DC0, symBinAddr: 0x10000A620, symSize: 0x30 }
  - { offsetInCU: 0x1C3D5, offset: 0x1C3D5, size: 0x8, addend: 0x0, symName: __ZNSt3__111__hash_nodeImPvEC2B8ne180100EPNS_16__hash_node_baseIPS2_EEm, symObjAddr: 0x9DF0, symBinAddr: 0x10000A650, symSize: 0x40 }
  - { offsetInCU: 0x1C41B, offset: 0x1C41B, size: 0x8, addend: 0x0, symName: __ZNSt3__116__hash_node_baseIPNS_11__hash_nodeImPvEEEC2B8ne180100EPS5_, symObjAddr: 0x9E30, symBinAddr: 0x10000A690, symSize: 0x20 }
  - { offsetInCU: 0x1C453, offset: 0x1C453, size: 0x8, addend: 0x0, symName: __ZNKSt3__117__compressed_pairIPNS_11__hash_nodeImPvEENS_22__hash_node_destructorINS_9allocatorIS3_EEEEE5firstB8ne180100Ev, symObjAddr: 0x9E50, symBinAddr: 0x10000A6B0, symSize: 0x20 }
  - { offsetInCU: 0x1C479, offset: 0x1C479, size: 0x8, addend: 0x0, symName: __ZNKSt3__122__compressed_pair_elemIPNS_11__hash_nodeImPvEELi0ELb0EE5__getB8ne180100Ev, symObjAddr: 0x9E70, symBinAddr: 0x10000A6D0, symSize: 0x10 }
  - { offsetInCU: 0x1C49F, offset: 0x1C49F, size: 0x8, addend: 0x0, symName: __ZNSt3__117__compressed_pairIPNS_11__hash_nodeImPvEENS_22__hash_node_destructorINS_9allocatorIS3_EEEEE6secondB8ne180100Ev, symObjAddr: 0x9E80, symBinAddr: 0x10000A6E0, symSize: 0x20 }
  - { offsetInCU: 0x1C4C5, offset: 0x1C4C5, size: 0x8, addend: 0x0, symName: __ZNSt3__122__compressed_pair_elemINS_22__hash_node_destructorINS_9allocatorINS_11__hash_nodeImPvEEEEEELi1ELb0EE5__getB8ne180100Ev, symObjAddr: 0x9EA0, symBinAddr: 0x10000A700, symSize: 0x10 }
  - { offsetInCU: 0x1C4EB, offset: 0x1C4EB, size: 0x8, addend: 0x0, symName: __ZNSt3__117__compressed_pairImNS_4hashImEEE5firstB8ne180100Ev, symObjAddr: 0x9EB0, symBinAddr: 0x10000A710, symSize: 0x20 }
  - { offsetInCU: 0x1C511, offset: 0x1C511, size: 0x8, addend: 0x0, symName: __ZNSt3__117__compressed_pairIfNS_8equal_toImEEE5firstB8ne180100Ev, symObjAddr: 0x9ED0, symBinAddr: 0x10000A730, symSize: 0x20 }
  - { offsetInCU: 0x1C537, offset: 0x1C537, size: 0x8, addend: 0x0, symName: __ZNSt3__112__hash_tableImNS_4hashImEENS_8equal_toImEENS_9allocatorImEEE8__rehashILb1EEEvm, symObjAddr: 0x9EF0, symBinAddr: 0x10000A750, symSize: 0x230 }
  - { offsetInCU: 0x1C587, offset: 0x1C587, size: 0x8, addend: 0x0, symName: __ZNSt3__112__hash_tableImNS_4hashImEENS_8equal_toImEENS_9allocatorImEEE11__do_rehashILb1EEEvm, symObjAddr: 0xA120, symBinAddr: 0x10000A980, symSize: 0x250 }
  - { offsetInCU: 0x1C66A, offset: 0x1C66A, size: 0x8, addend: 0x0, symName: __ZNSt3__110unique_ptrIA_PNS_16__hash_node_baseIPNS_11__hash_nodeImPvEEEENS_25__bucket_list_deallocatorINS_9allocatorIS7_EEEEE11get_deleterB8ne180100Ev, symObjAddr: 0xA370, symBinAddr: 0x10000ABD0, symSize: 0x20 }
  - { offsetInCU: 0x1C690, offset: 0x1C690, size: 0x8, addend: 0x0, symName: __ZNSt3__110unique_ptrIA_PNS_16__hash_node_baseIPNS_11__hash_nodeImPvEEEENS_25__bucket_list_deallocatorINS_9allocatorIS7_EEEEE5resetB8ne180100IPS7_Li0EEEvT_, symObjAddr: 0xA390, symBinAddr: 0x10000ABF0, symSize: 0x70 }
  - { offsetInCU: 0x1C6E3, offset: 0x1C6E3, size: 0x8, addend: 0x0, symName: __ZNSt3__116allocator_traitsINS_9allocatorIPNS_16__hash_node_baseIPNS_11__hash_nodeImPvEEEEEEE8allocateB8ne180100ERS9_m, symObjAddr: 0xA400, symBinAddr: 0x10000AC60, symSize: 0x30 }
  - { offsetInCU: 0x1C716, offset: 0x1C716, size: 0x8, addend: 0x0, symName: __ZNSt3__19allocatorIPNS_16__hash_node_baseIPNS_11__hash_nodeImPvEEEEE8allocateB8ne180100Em, symObjAddr: 0xA430, symBinAddr: 0x10000AC90, symSize: 0x50 }
  - { offsetInCU: 0x1C755, offset: 0x1C755, size: 0x8, addend: 0x0, symName: __ZNSt3__116allocator_traitsINS_9allocatorIPNS_16__hash_node_baseIPNS_11__hash_nodeImPvEEEEEEE8max_sizeB8ne180100IS9_vvEEmRKS9_, symObjAddr: 0xA480, symBinAddr: 0x10000ACE0, symSize: 0x20 }
  - { offsetInCU: 0x1C781, offset: 0x1C781, size: 0x8, addend: 0x0, symName: __ZNSt3__117__compressed_pairIPNS_11__hash_nodeImPvEENS_22__hash_node_destructorINS_9allocatorIS3_EEEEE5firstB8ne180100Ev, symObjAddr: 0xA4A0, symBinAddr: 0x10000AD00, symSize: 0x20 }
  - { offsetInCU: 0x1C7A7, offset: 0x1C7A7, size: 0x8, addend: 0x0, symName: __ZNSt3__122__compressed_pair_elemIPNS_11__hash_nodeImPvEELi0ELb0EE5__getB8ne180100Ev, symObjAddr: 0xA4C0, symBinAddr: 0x10000AD20, symSize: 0x10 }
  - { offsetInCU: 0x1C7CD, offset: 0x1C7CD, size: 0x8, addend: 0x0, symName: __ZNSt3__110unique_ptrINS_11__hash_nodeImPvEENS_22__hash_node_destructorINS_9allocatorIS3_EEEEED2B8ne180100Ev, symObjAddr: 0xA4D0, symBinAddr: 0x10000AD30, symSize: 0x20 }
  - { offsetInCU: 0x1C7F7, offset: 0x1C7F7, size: 0x8, addend: 0x0, symName: __ZNSt3__110unique_ptrINS_11__hash_nodeImPvEENS_22__hash_node_destructorINS_9allocatorIS3_EEEEE5resetB8ne180100EPS3_, symObjAddr: 0xA4F0, symBinAddr: 0x10000AD50, symSize: 0x70 }
  - { offsetInCU: 0x1C83B, offset: 0x1C83B, size: 0x8, addend: 0x0, symName: __ZNSt3__122__hash_node_destructorINS_9allocatorINS_11__hash_nodeImPvEEEEEclB8ne180100EPS4_, symObjAddr: 0xA560, symBinAddr: 0x10000ADC0, symSize: 0x80 }
  - { offsetInCU: 0x1C870, offset: 0x1C870, size: 0x8, addend: 0x0, symName: __ZNSt3__115__hash_iteratorIPNS_11__hash_nodeImPvEEEC2B8ne180100EPNS_16__hash_node_baseIS4_EE, symObjAddr: 0xA5E0, symBinAddr: 0x10000AE40, symSize: 0x20 }
  - { offsetInCU: 0x1C8A9, offset: 0x1C8A9, size: 0x8, addend: 0x0, symName: __ZNSt3__14pairINS_15__hash_iteratorIPNS_11__hash_nodeImPvEEEEbEC2B8ne180100IS6_RbLi0EEEOT_OT0_, symObjAddr: 0xA600, symBinAddr: 0x10000AE60, symSize: 0x30 }
  - { offsetInCU: 0x1C907, offset: 0x1C907, size: 0x8, addend: 0x0, symName: __ZNSt3__14pairINS_21__hash_const_iteratorIPNS_11__hash_nodeImPvEEEEbEC2B8ne180100INS_15__hash_iteratorIS5_EEbLi0EEEONS0_IT_T0_EE, symObjAddr: 0xA630, symBinAddr: 0x10000AE90, symSize: 0x40 }
  - { offsetInCU: 0x1C957, offset: 0x1C957, size: 0x8, addend: 0x0, symName: __ZNSt3__121__hash_const_iteratorIPNS_11__hash_nodeImPvEEEC1B8ne180100ERKNS_15__hash_iteratorIS4_EE, symObjAddr: 0xA670, symBinAddr: 0x10000AED0, symSize: 0x30 }
  - { offsetInCU: 0x1C990, offset: 0x1C990, size: 0x8, addend: 0x0, symName: __ZNSt3__121__hash_const_iteratorIPNS_11__hash_nodeImPvEEEC2B8ne180100ERKNS_15__hash_iteratorIS4_EE, symObjAddr: 0xA6A0, symBinAddr: 0x10000AF00, symSize: 0x20 }
  - { offsetInCU: 0x1C9EC, offset: 0x1C9EC, size: 0x8, addend: 0x0, symName: __ZNKSt3__113basic_ostreamIcNS_11char_traitsIcEEE6sentrycvbB8ne180100Ev, symObjAddr: 0xA8B0, symBinAddr: 0x10000B110, symSize: 0x20 }
  - { offsetInCU: 0x1CA12, offset: 0x1CA12, size: 0x8, addend: 0x0, symName: __ZNSt3__119ostreambuf_iteratorIcNS_11char_traitsIcEEEC1B8ne180100ERNS_13basic_ostreamIcS2_EE, symObjAddr: 0xAAF0, symBinAddr: 0x10000B350, symSize: 0x30 }
  - { offsetInCU: 0x1CA4A, offset: 0x1CA4A, size: 0x8, addend: 0x0, symName: __ZNKSt3__18ios_base5flagsB8ne180100Ev, symObjAddr: 0xAB20, symBinAddr: 0x10000B380, symSize: 0x20 }
  - { offsetInCU: 0x1CA72, offset: 0x1CA72, size: 0x8, addend: 0x0, symName: __ZNKSt3__19basic_iosIcNS_11char_traitsIcEEE4fillB8ne180100Ev, symObjAddr: 0xAB40, symBinAddr: 0x10000B3A0, symSize: 0x70 }
  - { offsetInCU: 0x1CA9A, offset: 0x1CA9A, size: 0x8, addend: 0x0, symName: __ZNKSt3__119ostreambuf_iteratorIcNS_11char_traitsIcEEE6failedB8ne180100Ev, symObjAddr: 0xABB0, symBinAddr: 0x10000B410, symSize: 0x20 }
  - { offsetInCU: 0x1CAC0, offset: 0x1CAC0, size: 0x8, addend: 0x0, symName: __ZNSt3__115basic_streambufIcNS_11char_traitsIcEEE5sputnB8ne180100EPKcl, symObjAddr: 0xABD0, symBinAddr: 0x10000B430, symSize: 0x30 }
  - { offsetInCU: 0x1CB02, offset: 0x1CB02, size: 0x8, addend: 0x0, symName: __ZNSt3__112basic_stringIcNS_11char_traitsIcEENS_9allocatorIcEEEC1B8ne180100Emc, symObjAddr: 0xAC00, symBinAddr: 0x10000B460, symSize: 0x30 }
  - { offsetInCU: 0x1CB4A, offset: 0x1CB4A, size: 0x8, addend: 0x0, symName: __ZNSt3__112basic_stringIcNS_11char_traitsIcEENS_9allocatorIcEEE4dataB8ne180100Ev, symObjAddr: 0xAC30, symBinAddr: 0x10000B490, symSize: 0x30 }
  - { offsetInCU: 0x1CB70, offset: 0x1CB70, size: 0x8, addend: 0x0, symName: __ZNSt3__112basic_stringIcNS_11char_traitsIcEENS_9allocatorIcEEEC2B8ne180100Emc, symObjAddr: 0xAC60, symBinAddr: 0x10000B4C0, symSize: 0x50 }
  - { offsetInCU: 0x1CBB8, offset: 0x1CBB8, size: 0x8, addend: 0x0, symName: __ZNSt3__117__compressed_pairINS_12basic_stringIcNS_11char_traitsIcEENS_9allocatorIcEEE5__repES5_EC1B8ne180100INS_18__default_init_tagESA_EEOT_OT0_, symObjAddr: 0xACB0, symBinAddr: 0x10000B510, symSize: 0x30 }
  - { offsetInCU: 0x1CC10, offset: 0x1CC10, size: 0x8, addend: 0x0, symName: __ZNSt3__117__compressed_pairINS_12basic_stringIcNS_11char_traitsIcEENS_9allocatorIcEEE5__repES5_EC2B8ne180100INS_18__default_init_tagESA_EEOT_OT0_, symObjAddr: 0xACE0, symBinAddr: 0x10000B540, symSize: 0x30 }
  - { offsetInCU: 0x1CC68, offset: 0x1CC68, size: 0x8, addend: 0x0, symName: __ZNSt3__122__compressed_pair_elemINS_12basic_stringIcNS_11char_traitsIcEENS_9allocatorIcEEE5__repELi0ELb0EEC2B8ne180100ENS_18__default_init_tagE, symObjAddr: 0xAD10, symBinAddr: 0x10000B570, symSize: 0x10 }
  - { offsetInCU: 0x1CC9C, offset: 0x1CC9C, size: 0x8, addend: 0x0, symName: __ZNSt3__112basic_stringIcNS_11char_traitsIcEENS_9allocatorIcEEE13__get_pointerB8ne180100Ev, symObjAddr: 0xAD30, symBinAddr: 0x10000B590, symSize: 0x50 }
  - { offsetInCU: 0x1CCC2, offset: 0x1CCC2, size: 0x8, addend: 0x0, symName: __ZNSt3__119ostreambuf_iteratorIcNS_11char_traitsIcEEEC2B8ne180100ERNS_13basic_ostreamIcS2_EE, symObjAddr: 0xAD80, symBinAddr: 0x10000B5E0, symSize: 0x50 }
  - { offsetInCU: 0x1CCFA, offset: 0x1CCFA, size: 0x8, addend: 0x0, symName: __ZNKSt3__19basic_iosIcNS_11char_traitsIcEEE5widenB8ne180100Ec, symObjAddr: 0xADD0, symBinAddr: 0x10000B630, symSize: 0x80 }
  - { offsetInCU: 0x1CD31, offset: 0x1CD31, size: 0x8, addend: 0x0, symName: __ZNKSt3__15ctypeIcE5widenB8ne180100Ec, symObjAddr: 0xAE50, symBinAddr: 0x10000B6B0, symSize: 0x30 }
  - { offsetInCU: 0x1CD66, offset: 0x1CD66, size: 0x8, addend: 0x0, symName: __ZNSt3__111char_traitsIcE6lengthB8ne180100EPKc, symObjAddr: 0xAE80, symBinAddr: 0x10000B6E0, symSize: 0x30 }
...
