---
triple:          'x86_64-apple-darwin'
binary-path:     PairwiseMatrix
relocations:
  - { offsetInCU: 0x56, offset: 0x56, size: 0x8, addend: 0x0, symName: __ZNSt3__115strong_ordering5equalE, symObjAddr: 0xD601, symBinAddr: 0x10000FB34, symSize: 0x0 }
  - { offsetInCU: 0x223, offset: 0x223, size: 0x8, addend: 0x0, symName: __ZNSt3__116partial_ordering10equivalentE, symObjAddr: 0xD603, symBinAddr: 0x10000FB36, symSize: 0x0 }
  - { offsetInCU: 0x236, offset: 0x236, size: 0x8, addend: 0x0, symName: __ZNSt3__116partial_ordering4lessE, symObjAddr: 0xD604, symBinAddr: 0x10000FB37, symSize: 0x0 }
  - { offsetInCU: 0x249, offset: 0x249, size: 0x8, addend: 0x0, symName: __ZNSt3__116partial_ordering7greaterE, symObjAddr: 0xD605, symBinAddr: 0x10000FB38, symSize: 0x0 }
  - { offsetInCU: 0x262, offset: 0x262, size: 0x8, addend: 0x0, symName: __ZNSt3__117__synth_three_wayB7v160006E, symObjAddr: 0xD602, symBinAddr: 0x10000FB35, symSize: 0x0 }
  - { offsetInCU: 0x4BF2, offset: 0x4BF2, size: 0x8, addend: 0x0, symName: __ZNSt3__17advanceB7v160006IPNS_12basic_stringIcNS_11char_traitsIcEENS_9allocatorIcEEEEllvEEvRT_T0_, symObjAddr: 0x2F00, symBinAddr: 0x100005260, symSize: 0x50 }
  - { offsetInCU: 0x7C4D, offset: 0x7C4D, size: 0x8, addend: 0x0, symName: '__ZNSt3__111__introsortINS_17_ClassicAlgPolicyERZ18CalculateDistancesRKNS_6vectorINS_12basic_stringIcNS_11char_traitsIcEENS_9allocatorIcEEEENS6_IS8_EEEEE3$_0P11PairOfWordsEEvT1_SH_T0_NS_15iterator_traitsISH_E15difference_typeE', symObjAddr: 0x54F0, symBinAddr: 0x100007850, symSize: 0x6B0 }
  - { offsetInCU: 0x7DE7, offset: 0x7DE7, size: 0x8, addend: 0x0, symName: '__ZNSt3__118__insertion_sort_3B7v160006INS_17_ClassicAlgPolicyERZ18CalculateDistancesRKNS_6vectorINS_12basic_stringIcNS_11char_traitsIcEENS_9allocatorIcEEEENS6_IS8_EEEEE3$_0P11PairOfWordsEEvT1_SH_T0_', symObjAddr: 0x5D30, symBinAddr: 0x100008090, symSize: 0x180 }
  - { offsetInCU: 0x7EAC, offset: 0x7EAC, size: 0x8, addend: 0x0, symName: '__ZNSt3__111__sift_downB7v160006INS_17_ClassicAlgPolicyERZ18CalculateDistancesRKNS_6vectorINS_12basic_stringIcNS_11char_traitsIcEENS_9allocatorIcEEEENS6_IS8_EEEEE3$_0P11PairOfWordsEEvT1_OT0_NS_15iterator_traitsISH_E15difference_typeESH_', symObjAddr: 0x7240, symBinAddr: 0x1000095A0, symSize: 0x240 }
  - { offsetInCU: 0x7F5A, offset: 0x7F5A, size: 0x8, addend: 0x0, symName: '__ZNSt3__117__floyd_sift_downB7v160006INS_17_ClassicAlgPolicyERZ18CalculateDistancesRKNS_6vectorINS_12basic_stringIcNS_11char_traitsIcEENS_9allocatorIcEEEENS6_IS8_EEEEE3$_0P11PairOfWordsEET1_SH_OT0_NS_15iterator_traitsISH_E15difference_typeE', symObjAddr: 0x7640, symBinAddr: 0x1000099A0, symSize: 0x100 }
  - { offsetInCU: 0x7FF2, offset: 0x7FF2, size: 0x8, addend: 0x0, symName: '__ZNSt3__127__insertion_sort_incompleteIRZ18CalculateDistancesRKNS_6vectorINS_12basic_stringIcNS_11char_traitsIcEENS_9allocatorIcEEEENS5_IS7_EEEEE3$_0P11PairOfWordsEEbT0_SG_T_', symObjAddr: 0x60D0, symBinAddr: 0x100008430, symSize: 0x350 }
  - { offsetInCU: 0x841D, offset: 0x841D, size: 0x8, addend: 0x0, symName: __ZNSt3__17advanceB7v160006IP11PairOfWordsllvEEvRT_T0_, symObjAddr: 0x8900, symBinAddr: 0x10000AC60, symSize: 0x50 }
  - { offsetInCU: 0x869D, offset: 0x869D, size: 0x8, addend: 0x0, symName: __ZNSt3__17advanceB7v160006INS_16reverse_iteratorIP11PairOfWordsEEllvEEvRT_T0_, symObjAddr: 0x8CF0, symBinAddr: 0x10000B050, symSize: 0x50 }
  - { offsetInCU: 0x8708, offset: 0x8708, size: 0x8, addend: 0x0, symName: __ZNSt3__124__put_character_sequenceB7v160006IcNS_11char_traitsIcEEEERNS_13basic_ostreamIT_T0_EES7_PKS4_m, symObjAddr: 0x91E0, symBinAddr: 0x10000B540, symSize: 0x1F0 }
  - { offsetInCU: 0xCC00, offset: 0xCC00, size: 0x8, addend: 0x0, symName: __ZNSt3__1lsB7v160006INS_11char_traitsIcEEEERNS_13basic_ostreamIcT_EES6_PKc, symObjAddr: 0x70, symBinAddr: 0x1000023D0, symSize: 0x40 }
  - { offsetInCU: 0xCC46, offset: 0xCC46, size: 0x8, addend: 0x0, symName: __ZNSt3__1lsB7v160006IcNS_11char_traitsIcEENS_9allocatorIcEEEERNS_13basic_ostreamIT_T0_EES9_RKNS_12basic_stringIS6_S7_T1_EE, symObjAddr: 0xB0, symBinAddr: 0x100002410, symSize: 0x50 }
  - { offsetInCU: 0xDB67, offset: 0xDB67, size: 0x8, addend: 0x0, symName: __ZNSt3__1rsB7v160006IcNS_11char_traitsIcEENS_9allocatorIcEEEERNS_13basic_istreamIT_T0_EES9_RNS_12basic_stringIS6_S7_T1_EE, symObjAddr: 0x440, symBinAddr: 0x1000027A0, symSize: 0x2E0 }
  - { offsetInCU: 0xDC36, offset: 0xDC36, size: 0x8, addend: 0x0, symName: __ZNSt3__13minB7v160006IiEERKT_S3_S3_, symObjAddr: 0xCE0, symBinAddr: 0x100003040, symSize: 0x30 }
  - { offsetInCU: 0xDC79, offset: 0xDC79, size: 0x8, addend: 0x0, symName: __ZNSt3__14swapB7v160006IiNS_9allocatorIiEEEEvRNS_6vectorIT_T0_EES7_, symObjAddr: 0xD10, symBinAddr: 0x100003070, symSize: 0x30 }
  - { offsetInCU: 0xDCC4, offset: 0xDCC4, size: 0x8, addend: 0x0, symName: __ZNSt3__1eqB7v160006INS_9allocatorIcEEEEbRKNS_12basic_stringIcNS_11char_traitsIcEET_EES9_, symObjAddr: 0x1260, symBinAddr: 0x1000035C0, symSize: 0x110 }
  - { offsetInCU: 0xDD37, offset: 0xDD37, size: 0x8, addend: 0x0, symName: __ZNSt3__13maxB7v160006ImEERKT_S3_S3_, symObjAddr: 0x1390, symBinAddr: 0x1000036F0, symSize: 0x30 }
  - { offsetInCU: 0xDD7A, offset: 0xDD7A, size: 0x8, addend: 0x0, symName: '__ZNSt3__14sortB7v160006INS_11__wrap_iterIP11PairOfWordsEEZ18CalculateDistancesRKNS_6vectorINS_12basic_stringIcNS_11char_traitsIcEENS_9allocatorIcEEEENS9_ISB_EEEEE3$_0EEvT_SH_T0_', symObjAddr: 0x1450, symBinAddr: 0x1000037B0, symSize: 0x40 }
  - { offsetInCU: 0xDDD4, offset: 0xDDD4, size: 0x8, addend: 0x0, symName: '__ZNSt3__17copy_ifB7v160006INS_11__wrap_iterIP11PairOfWordsEES4_Z18CalculateDistancesRKNS_6vectorINS_12basic_stringIcNS_11char_traitsIcEENS_9allocatorIcEEEENS9_ISB_EEEEE3$_1EET0_T_SI_SH_T1_', symObjAddr: 0x1520, symBinAddr: 0x100003880, symSize: 0xB0 }
  - { offsetInCU: 0xDE45, offset: 0xDE45, size: 0x8, addend: 0x0, symName: __ZNSt3__14swapB7v160006I11PairOfWordsNS_9allocatorIS1_EEEEvRNS_6vectorIT_T0_EES8_, symObjAddr: 0x1650, symBinAddr: 0x1000039B0, symSize: 0x30 }
  - { offsetInCU: 0xDE90, offset: 0xDE90, size: 0x8, addend: 0x0, symName: __ZNSt3__119__debug_db_insert_cB7v160006INS_12basic_stringIcNS_11char_traitsIcEENS_9allocatorIcEEEEEEvPT_, symObjAddr: 0x1A40, symBinAddr: 0x100003DA0, symSize: 0x10 }
  - { offsetInCU: 0xDEC1, offset: 0xDEC1, size: 0x8, addend: 0x0, symName: __ZNSt3__122__make_exception_guardB7v160006INS_6vectorINS_12basic_stringIcNS_11char_traitsIcEENS_9allocatorIcEEEENS5_IS7_EEE16__destroy_vectorEEENS_28__exception_guard_exceptionsIT_EESC_, symObjAddr: 0x1C90, symBinAddr: 0x100003FF0, symSize: 0x40 }
  - { offsetInCU: 0xDEF6, offset: 0xDEF6, size: 0x8, addend: 0x0, symName: __ZNSt3__119__debug_db_insert_cB7v160006INS_6vectorINS_12basic_stringIcNS_11char_traitsIcEENS_9allocatorIcEEEENS5_IS7_EEEEEEvPT_, symObjAddr: 0x1D00, symBinAddr: 0x100004060, symSize: 0x10 }
  - { offsetInCU: 0xDF27, offset: 0xDF27, size: 0x8, addend: 0x0, symName: __ZNSt3__18distanceB7v160006INS_21__hash_const_iteratorIPNS_11__hash_nodeINS_12basic_stringIcNS_11char_traitsIcEENS_9allocatorIcEEEEPvEEEEEENS_15iterator_traitsIT_E15difference_typeESE_SE_, symObjAddr: 0x1D10, symBinAddr: 0x100004070, symSize: 0x40 }
  - { offsetInCU: 0xDF6A, offset: 0xDF6A, size: 0x8, addend: 0x0, symName: __ZNSt3__110__distanceB7v160006INS_21__hash_const_iteratorIPNS_11__hash_nodeINS_12basic_stringIcNS_11char_traitsIcEENS_9allocatorIcEEEEPvEEEEEENS_15iterator_traitsIT_E15difference_typeESE_SE_NS_18input_iterator_tagE, symObjAddr: 0x1FF0, symBinAddr: 0x100004350, symSize: 0x60 }
  - { offsetInCU: 0xDFC5, offset: 0xDFC5, size: 0x8, addend: 0x0, symName: __ZNSt3__1neB7v160006ERKNS_21__hash_const_iteratorIPNS_11__hash_nodeINS_12basic_stringIcNS_11char_traitsIcEENS_9allocatorIcEEEEPvEEEESD_, symObjAddr: 0x2050, symBinAddr: 0x1000043B0, symSize: 0x30 }
  - { offsetInCU: 0xE002, offset: 0xE002, size: 0x8, addend: 0x0, symName: __ZNSt3__1eqB7v160006ERKNS_21__hash_const_iteratorIPNS_11__hash_nodeINS_12basic_stringIcNS_11char_traitsIcEENS_9allocatorIcEEEEPvEEEESD_, symObjAddr: 0x20A0, symBinAddr: 0x100004400, symSize: 0x30 }
  - { offsetInCU: 0xE03F, offset: 0xE03F, size: 0x8, addend: 0x0, symName: __ZNSt3__119__allocate_at_leastB7v160006INS_9allocatorINS_12basic_stringIcNS_11char_traitsIcEENS1_IcEEEEEEEEDaRT_m, symObjAddr: 0x2150, symBinAddr: 0x1000044B0, symSize: 0x40 }
  - { offsetInCU: 0xE082, offset: 0xE082, size: 0x8, addend: 0x0, symName: __ZNSt3__13minB7v160006ImEERKT_S3_S3_, symObjAddr: 0x2270, symBinAddr: 0x1000045D0, symSize: 0x30 }
  - { offsetInCU: 0xE2AF, offset: 0xE2AF, size: 0x8, addend: 0x0, symName: __ZNSt3__13minB7v160006ImNS_6__lessImmEEEERKT_S5_S5_T0_, symObjAddr: 0x2300, symBinAddr: 0x100004660, symSize: 0x50 }
  - { offsetInCU: 0xE345, offset: 0xE345, size: 0x8, addend: 0x0, symName: __ZNSt3__120__throw_length_errorB7v160006EPKc, symObjAddr: 0x23E0, symBinAddr: 0x100004740, symSize: 0x70 }
  - { offsetInCU: 0xE36C, offset: 0xE36C, size: 0x8, addend: 0x0, symName: __ZNSt3__117allocate_at_leastB7v160006INS_9allocatorINS_12basic_stringIcNS_11char_traitsIcEENS1_IcEEEEEEEENS_17allocation_resultINS_16allocator_traitsIT_E7pointerEEERSA_m, symObjAddr: 0x24C0, symBinAddr: 0x100004820, symSize: 0x40 }
  - { offsetInCU: 0xE3AF, offset: 0xE3AF, size: 0x8, addend: 0x0, symName: __ZNSt3__117__libcpp_allocateB7v160006Emm, symObjAddr: 0x25D0, symBinAddr: 0x100004930, symSize: 0x60 }
  - { offsetInCU: 0xE409, offset: 0xE409, size: 0x8, addend: 0x0, symName: __ZNSt3__124__is_overaligned_for_newB7v160006Em, symObjAddr: 0x2630, symBinAddr: 0x100004990, symSize: 0x20 }
  - { offsetInCU: 0xE437, offset: 0xE437, size: 0x8, addend: 0x0, symName: __ZNSt3__121__libcpp_operator_newB7v160006IJmSt11align_val_tEEEPvDpT_, symObjAddr: 0x2650, symBinAddr: 0x1000049B0, symSize: 0x30 }
  - { offsetInCU: 0xE484, offset: 0xE484, size: 0x8, addend: 0x0, symName: __ZNSt3__121__libcpp_operator_newB7v160006IJmEEEPvDpT_, symObjAddr: 0x2680, symBinAddr: 0x1000049E0, symSize: 0x20 }
  - { offsetInCU: 0xE4BD, offset: 0xE4BD, size: 0x8, addend: 0x0, symName: __ZNSt3__112__to_addressB7v160006INS_12basic_stringIcNS_11char_traitsIcEENS_9allocatorIcEEEEEEPT_S8_, symObjAddr: 0x2780, symBinAddr: 0x100004AE0, symSize: 0x10 }
  - { offsetInCU: 0xE4F2, offset: 0xE4F2, size: 0x8, addend: 0x0, symName: __ZNSt3__130__uninitialized_allocator_copyB7v160006INS_9allocatorINS_12basic_stringIcNS_11char_traitsIcEENS1_IcEEEEEENS_21__hash_const_iteratorIPNS_11__hash_nodeIS6_PvEEEESD_PS6_EET2_RT_T0_T1_SF_, symObjAddr: 0x2810, symBinAddr: 0x100004B70, symSize: 0x130 }
  - { offsetInCU: 0xE590, offset: 0xE590, size: 0x8, addend: 0x0, symName: __ZNSt3__122__make_exception_guardB7v160006INS_29_AllocatorDestroyRangeReverseINS_9allocatorINS_12basic_stringIcNS_11char_traitsIcEENS2_IcEEEEEEPS7_EEEENS_28__exception_guard_exceptionsIT_EESC_, symObjAddr: 0x29A0, symBinAddr: 0x100004D00, symSize: 0x60 }
  - { offsetInCU: 0xE5EA, offset: 0xE5EA, size: 0x8, addend: 0x0, symName: __ZNSt3__112construct_atB7v160006INS_12basic_stringIcNS_11char_traitsIcEENS_9allocatorIcEEEEJRKS6_EPS6_EEPT_SB_DpOT0_, symObjAddr: 0x2B90, symBinAddr: 0x100004EF0, symSize: 0x40 }
  - { offsetInCU: 0xE68E, offset: 0xE68E, size: 0x8, addend: 0x0, symName: __ZNSt3__119__allocator_destroyB7v160006INS_9allocatorINS_12basic_stringIcNS_11char_traitsIcEENS1_IcEEEEEENS_16reverse_iteratorIPS6_EESA_EEvRT_T0_T1_, symObjAddr: 0x2CA0, symBinAddr: 0x100005000, symSize: 0x70 }
  - { offsetInCU: 0xE6F1, offset: 0xE6F1, size: 0x8, addend: 0x0, symName: __ZNSt3__1neB7v160006IPNS_12basic_stringIcNS_11char_traitsIcEENS_9allocatorIcEEEES7_EEbRKNS_16reverse_iteratorIT_EERKNS8_IT0_EE, symObjAddr: 0x2D40, symBinAddr: 0x1000050A0, symSize: 0x40 }
  - { offsetInCU: 0xE73D, offset: 0xE73D, size: 0x8, addend: 0x0, symName: __ZNSt3__112__to_addressB7v160006INS_16reverse_iteratorIPNS_12basic_stringIcNS_11char_traitsIcEENS_9allocatorIcEEEEEEvEENS_5decayIDTclsr19__to_address_helperIT_EE6__callclsr3stdE7declvalIRKSB_EEEEE4typeESD_, symObjAddr: 0x2DA0, symBinAddr: 0x100005100, symSize: 0x20 }
  - { offsetInCU: 0xE773, offset: 0xE773, size: 0x8, addend: 0x0, symName: __ZNSt3__110destroy_atB7v160006INS_12basic_stringIcNS_11char_traitsIcEENS_9allocatorIcEEEELi0EEEvPT_, symObjAddr: 0x2E00, symBinAddr: 0x100005160, symSize: 0x20 }
  - { offsetInCU: 0xE7AA, offset: 0xE7AA, size: 0x8, addend: 0x0, symName: __ZNSt3__112__destroy_atB7v160006INS_12basic_stringIcNS_11char_traitsIcEENS_9allocatorIcEEEELi0EEEvPT_, symObjAddr: 0x2E20, symBinAddr: 0x100005180, symSize: 0x20 }
  - { offsetInCU: 0xE80B, offset: 0xE80B, size: 0x8, addend: 0x0, symName: __ZNSt3__14prevB7v160006IPNS_12basic_stringIcNS_11char_traitsIcEENS_9allocatorIcEEEEEENS_9enable_ifIXsr25__is_cpp17_input_iteratorIT_EE5valueES9_E4typeES9_NS_15iterator_traitsIS9_E15difference_typeE, symObjAddr: 0x2EB0, symBinAddr: 0x100005210, symSize: 0x50 }
  - { offsetInCU: 0xE84E, offset: 0xE84E, size: 0x8, addend: 0x0, symName: __ZNSt3__121__convert_to_integralB7v160006El, symObjAddr: 0x2F50, symBinAddr: 0x1000052B0, symSize: 0x10 }
  - { offsetInCU: 0xE87A, offset: 0xE87A, size: 0x8, addend: 0x0, symName: __ZNSt3__19__advanceB7v160006IPNS_12basic_stringIcNS_11char_traitsIcEENS_9allocatorIcEEEEEEvRT_NS_15iterator_traitsIS8_E15difference_typeENS_26random_access_iterator_tagE, symObjAddr: 0x2F60, symBinAddr: 0x1000052C0, symSize: 0x20 }
  - { offsetInCU: 0xE8C3, offset: 0xE8C3, size: 0x8, addend: 0x0, symName: __ZNSt3__118__debug_db_erase_cB7v160006INS_6vectorINS_12basic_stringIcNS_11char_traitsIcEENS_9allocatorIcEEEENS5_IS7_EEEEEEvPT_, symObjAddr: 0x3150, symBinAddr: 0x1000054B0, symSize: 0x10 }
  - { offsetInCU: 0xE8F4, offset: 0xE8F4, size: 0x8, addend: 0x0, symName: __ZNSt3__119__libcpp_deallocateB7v160006EPvmm, symObjAddr: 0x3280, symBinAddr: 0x1000055E0, symSize: 0x60 }
  - { offsetInCU: 0xE959, offset: 0xE959, size: 0x8, addend: 0x0, symName: __ZNSt3__127__do_deallocate_handle_sizeB7v160006IJSt11align_val_tEEEvPvmDpT_, symObjAddr: 0x32E0, symBinAddr: 0x100005640, symSize: 0x30 }
  - { offsetInCU: 0xE9AC, offset: 0xE9AC, size: 0x8, addend: 0x0, symName: __ZNSt3__127__do_deallocate_handle_sizeB7v160006IJEEEvPvmDpT_, symObjAddr: 0x3310, symBinAddr: 0x100005670, symSize: 0x20 }
  - { offsetInCU: 0xE9EA, offset: 0xE9EA, size: 0x8, addend: 0x0, symName: __ZNSt3__124__libcpp_operator_deleteB7v160006IJPvSt11align_val_tEEEvDpT_, symObjAddr: 0x3330, symBinAddr: 0x100005690, symSize: 0x30 }
  - { offsetInCU: 0xEA33, offset: 0xEA33, size: 0x8, addend: 0x0, symName: __ZNSt3__124__libcpp_operator_deleteB7v160006IJPvEEEvDpT_, symObjAddr: 0x3360, symBinAddr: 0x1000056C0, symSize: 0x20 }
  - { offsetInCU: 0xEA68, offset: 0xEA68, size: 0x8, addend: 0x0, symName: __ZNSt3__122__make_exception_guardB7v160006INS_6vectorIiNS_9allocatorIiEEE16__destroy_vectorEEENS_28__exception_guard_exceptionsIT_EES7_, symObjAddr: 0x3490, symBinAddr: 0x1000057F0, symSize: 0x40 }
  - { offsetInCU: 0xEA9D, offset: 0xEA9D, size: 0x8, addend: 0x0, symName: __ZNSt3__119__debug_db_insert_cB7v160006INS_6vectorIiNS_9allocatorIiEEEEEEvPT_, symObjAddr: 0x3500, symBinAddr: 0x100005860, symSize: 0x10 }
  - { offsetInCU: 0xEACE, offset: 0xEACE, size: 0x8, addend: 0x0, symName: __ZNSt3__119__allocate_at_leastB7v160006INS_9allocatorIiEEEEDaRT_m, symObjAddr: 0x3850, symBinAddr: 0x100005BB0, symSize: 0x40 }
  - { offsetInCU: 0xEB11, offset: 0xEB11, size: 0x8, addend: 0x0, symName: __ZNSt3__117allocate_at_leastB7v160006INS_9allocatorIiEEEENS_17allocation_resultINS_16allocator_traitsIT_E7pointerEEERS5_m, symObjAddr: 0x39F0, symBinAddr: 0x100005D50, symSize: 0x40 }
  - { offsetInCU: 0xEB54, offset: 0xEB54, size: 0x8, addend: 0x0, symName: __ZNSt3__112__to_addressB7v160006IiEEPT_S2_, symObjAddr: 0x3B90, symBinAddr: 0x100005EF0, symSize: 0x10 }
  - { offsetInCU: 0xEBAE, offset: 0xEBAE, size: 0x8, addend: 0x0, symName: __ZNSt3__112construct_atB7v160006IiJEPiEEPT_S3_DpOT0_, symObjAddr: 0x3CA0, symBinAddr: 0x100006000, symSize: 0x20 }
  - { offsetInCU: 0xEC0B, offset: 0xEC0B, size: 0x8, addend: 0x0, symName: __ZNSt3__118__debug_db_erase_cB7v160006INS_6vectorIiNS_9allocatorIiEEEEEEvPT_, symObjAddr: 0x3E60, symBinAddr: 0x1000061C0, symSize: 0x10 }
  - { offsetInCU: 0xEC3C, offset: 0xEC3C, size: 0x8, addend: 0x0, symName: __ZNSt3__110destroy_atB7v160006IiLi0EEEvPT_, symObjAddr: 0x3F80, symBinAddr: 0x1000062E0, symSize: 0x20 }
  - { offsetInCU: 0xEC73, offset: 0xEC73, size: 0x8, addend: 0x0, symName: __ZNSt3__112__destroy_atB7v160006IiLi0EEEvPT_, symObjAddr: 0x3FA0, symBinAddr: 0x100006300, symSize: 0x10 }
  - { offsetInCU: 0xECAA, offset: 0xECAA, size: 0x8, addend: 0x0, symName: __ZNSt3__112__to_addressB7v160006IKcEEPT_S3_, symObjAddr: 0x4020, symBinAddr: 0x100006380, symSize: 0x10 }
  - { offsetInCU: 0xED12, offset: 0xED12, size: 0x8, addend: 0x0, symName: __ZNSt3__13minB7v160006IiNS_6__lessIiiEEEERKT_S5_S5_T0_, symObjAddr: 0x40E0, symBinAddr: 0x100006440, symSize: 0x50 }
  - { offsetInCU: 0xEDA7, offset: 0xEDA7, size: 0x8, addend: 0x0, symName: __ZNSt3__14swapB7v160006IPiEENS_9enable_ifIXaasr21is_move_constructibleIT_EE5valuesr18is_move_assignableIS3_EE5valueEvE4typeERS3_S6_, symObjAddr: 0x4200, symBinAddr: 0x100006560, symSize: 0x40 }
  - { offsetInCU: 0xEDF8, offset: 0xEDF8, size: 0x8, addend: 0x0, symName: __ZNSt3__116__swap_allocatorB7v160006INS_9allocatorIiEEEEvRT_S4_NS_17integral_constantIbLb0EEE, symObjAddr: 0x4240, symBinAddr: 0x1000065A0, symSize: 0x10 }
  - { offsetInCU: 0xEE39, offset: 0xEE39, size: 0x8, addend: 0x0, symName: __ZNSt3__115__debug_db_swapB7v160006INS_6vectorIiNS_9allocatorIiEEEEEEvPT_S6_, symObjAddr: 0x4250, symBinAddr: 0x1000065B0, symSize: 0x10 }
  - { offsetInCU: 0xEE78, offset: 0xEE78, size: 0x8, addend: 0x0, symName: __ZNSt3__122__make_exception_guardB7v160006INS_6vectorI11PairOfWordsNS_9allocatorIS2_EEE16__destroy_vectorEEENS_28__exception_guard_exceptionsIT_EES8_, symObjAddr: 0x43B0, symBinAddr: 0x100006710, symSize: 0x40 }
  - { offsetInCU: 0xEEAD, offset: 0xEEAD, size: 0x8, addend: 0x0, symName: __ZNSt3__119__debug_db_insert_cB7v160006INS_6vectorI11PairOfWordsNS_9allocatorIS2_EEEEEEvPT_, symObjAddr: 0x4420, symBinAddr: 0x100006780, symSize: 0x10 }
  - { offsetInCU: 0xEEDE, offset: 0xEEDE, size: 0x8, addend: 0x0, symName: __ZNSt3__119__allocate_at_leastB7v160006INS_9allocatorI11PairOfWordsEEEEDaRT_m, symObjAddr: 0x4770, symBinAddr: 0x100006AD0, symSize: 0x40 }
  - { offsetInCU: 0xEF21, offset: 0xEF21, size: 0x8, addend: 0x0, symName: __ZNSt3__117allocate_at_leastB7v160006INS_9allocatorI11PairOfWordsEEEENS_17allocation_resultINS_16allocator_traitsIT_E7pointerEEERS6_m, symObjAddr: 0x4910, symBinAddr: 0x100006C70, symSize: 0x40 }
  - { offsetInCU: 0xEF64, offset: 0xEF64, size: 0x8, addend: 0x0, symName: __ZNSt3__112__to_addressB7v160006I11PairOfWordsEEPT_S3_, symObjAddr: 0x4AC0, symBinAddr: 0x100006E20, symSize: 0x10 }
  - { offsetInCU: 0xEFBE, offset: 0xEFBE, size: 0x8, addend: 0x0, symName: __ZNSt3__112construct_atB7v160006I11PairOfWordsJEPS1_EEPT_S4_DpOT0_, symObjAddr: 0x4BD0, symBinAddr: 0x100006F30, symSize: 0x40 }
  - { offsetInCU: 0xF01B, offset: 0xF01B, size: 0x8, addend: 0x0, symName: __ZNSt3__118__debug_db_erase_cB7v160006INS_6vectorI11PairOfWordsNS_9allocatorIS2_EEEEEEvPT_, symObjAddr: 0x4E10, symBinAddr: 0x100007170, symSize: 0x10 }
  - { offsetInCU: 0xF04C, offset: 0xF04C, size: 0x8, addend: 0x0, symName: __ZNSt3__110destroy_atB7v160006I11PairOfWordsLi0EEEvPT_, symObjAddr: 0x4F10, symBinAddr: 0x100007270, symSize: 0x20 }
  - { offsetInCU: 0xF083, offset: 0xF083, size: 0x8, addend: 0x0, symName: __ZNSt3__112__destroy_atB7v160006I11PairOfWordsLi0EEEvPT_, symObjAddr: 0x4F30, symBinAddr: 0x100007290, symSize: 0x20 }
  - { offsetInCU: 0xF0BA, offset: 0xF0BA, size: 0x8, addend: 0x0, symName: __ZNSt3__118__constexpr_memcmpB7v160006IcEEiPKT_S3_m, symObjAddr: 0x4FF0, symBinAddr: 0x100007350, symSize: 0x30 }
  - { offsetInCU: 0xF10B, offset: 0xF10B, size: 0x8, addend: 0x0, symName: __ZNSt3__13maxB7v160006ImNS_6__lessImmEEEERKT_S5_S5_T0_, symObjAddr: 0x5020, symBinAddr: 0x100007380, symSize: 0x50 }
  - { offsetInCU: 0xF165, offset: 0xF165, size: 0x8, addend: 0x0, symName: '__ZNSt3__111__sort_implB7v160006INS_17_ClassicAlgPolicyENS_11__wrap_iterIP11PairOfWordsEEZ18CalculateDistancesRKNS_6vectorINS_12basic_stringIcNS_11char_traitsIcEENS_9allocatorIcEEEENSA_ISC_EEEEE3$_0EEvT0_SI_RT1_', symObjAddr: 0x5360, symBinAddr: 0x1000076C0, symSize: 0x80 }
  - { offsetInCU: 0xF20C, offset: 0xF20C, size: 0x8, addend: 0x0, symName: __ZNSt3__123__debug_randomize_rangeB7v160006INS_17_ClassicAlgPolicyENS_11__wrap_iterIP11PairOfWordsEES5_EEvT0_T1_, symObjAddr: 0x53E0, symBinAddr: 0x100007740, symSize: 0x10 }
  - { offsetInCU: 0xF25D, offset: 0xF25D, size: 0x8, addend: 0x0, symName: '__ZNSt3__16__sortIRZ18CalculateDistancesRKNS_6vectorINS_12basic_stringIcNS_11char_traitsIcEENS_9allocatorIcEEEENS5_IS7_EEEEE3$_0P11PairOfWordsEEvT0_SG_T_', symObjAddr: 0x53F0, symBinAddr: 0x100007750, symSize: 0x70 }
  - { offsetInCU: 0xF2ED, offset: 0xF2ED, size: 0x8, addend: 0x0, symName: __ZNSt3__113__unwrap_iterB7v160006INS_11__wrap_iterIP11PairOfWordsEENS_18__unwrap_iter_implIS4_Lb1EEELi0EEEDTclsrT0_8__unwrapclsr3stdE7declvalIT_EEEES8_, symObjAddr: 0x5460, symBinAddr: 0x1000077C0, symSize: 0x30 }
  - { offsetInCU: 0xF331, offset: 0xF331, size: 0x8, addend: 0x0, symName: __ZNSt3__17__log2iB7v160006IlEET_S1_, symObjAddr: 0x5490, symBinAddr: 0x1000077F0, symSize: 0x50 }
  - { offsetInCU: 0xF39C, offset: 0xF39C, size: 0x8, addend: 0x0, symName: __ZNSt3__112__libcpp_clzB7v160006Em, symObjAddr: 0x5BA0, symBinAddr: 0x100007F00, symSize: 0x20 }
  - { offsetInCU: 0xF462, offset: 0xF462, size: 0x8, addend: 0x0, symName: '__ZNSt3__124__sort3_maybe_branchlessB7v160006INS_17_ClassicAlgPolicyERZ18CalculateDistancesRKNS_6vectorINS_12basic_stringIcNS_11char_traitsIcEENS_9allocatorIcEEEENS6_IS8_EEEEE3$_0P11PairOfWordsEENS_9enable_ifIXntsr21__use_branchless_sortIT0_T1_EE5valueEvE4typeESJ_SJ_SJ_SI_', symObjAddr: 0x5C60, symBinAddr: 0x100007FC0, symSize: 0x40 }
  - { offsetInCU: 0xF4D3, offset: 0xF4D3, size: 0x8, addend: 0x0, symName: '__ZNSt3__124__sort4_maybe_branchlessB7v160006INS_17_ClassicAlgPolicyERZ18CalculateDistancesRKNS_6vectorINS_12basic_stringIcNS_11char_traitsIcEENS_9allocatorIcEEEENS6_IS8_EEEEE3$_0P11PairOfWordsEENS_9enable_ifIXntsr21__use_branchless_sortIT0_T1_EE5valueEvE4typeESJ_SJ_SJ_SJ_SI_', symObjAddr: 0x5CA0, symBinAddr: 0x100008000, symSize: 0x40 }
  - { offsetInCU: 0xF558, offset: 0xF558, size: 0x8, addend: 0x0, symName: '__ZNSt3__124__sort5_maybe_branchlessB7v160006INS_17_ClassicAlgPolicyERZ18CalculateDistancesRKNS_6vectorINS_12basic_stringIcNS_11char_traitsIcEENS_9allocatorIcEEEENS6_IS8_EEEEE3$_0P11PairOfWordsEENS_9enable_ifIXntsr21__use_branchless_sortIT0_T1_EE5valueEvE4typeESJ_SJ_SJ_SJ_SJ_SI_', symObjAddr: 0x5CE0, symBinAddr: 0x100008040, symSize: 0x50 }
  - { offsetInCU: 0xF5EC, offset: 0xF5EC, size: 0x8, addend: 0x0, symName: '__ZNSt3__114__partial_sortB7v160006INS_17_ClassicAlgPolicyERZ18CalculateDistancesRKNS_6vectorINS_12basic_stringIcNS_11char_traitsIcEENS_9allocatorIcEEEENS6_IS8_EEEEE3$_0P11PairOfWordsSG_EET1_SH_SH_T2_RT0_', symObjAddr: 0x5EB0, symBinAddr: 0x100008210, symSize: 0x90 }
  - { offsetInCU: 0xF674, offset: 0xF674, size: 0x8, addend: 0x0, symName: '__ZNSt3__119__sort5_wrap_policyB7v160006INS_17_ClassicAlgPolicyERZ18CalculateDistancesRKNS_6vectorINS_12basic_stringIcNS_11char_traitsIcEENS_9allocatorIcEEEENS6_IS8_EEEEE3$_0P11PairOfWordsEEjT1_SH_SH_SH_SH_T0_', symObjAddr: 0x5F40, symBinAddr: 0x1000082A0, symSize: 0x50 }
  - { offsetInCU: 0xF71A, offset: 0xF71A, size: 0x8, addend: 0x0, symName: '__ZNSt3__17__sort3B7v160006INS_17_ClassicAlgPolicyERZ18CalculateDistancesRKNS_6vectorINS_12basic_stringIcNS_11char_traitsIcEENS_9allocatorIcEEEENS6_IS8_EEEEE3$_0P11PairOfWordsEEjT1_SH_SH_T0_', symObjAddr: 0x5F90, symBinAddr: 0x1000082F0, symSize: 0x140 }
  - { offsetInCU: 0xF799, offset: 0xF799, size: 0x8, addend: 0x0, symName: __ZNSt3__1ltB7v160006ENS_16partial_orderingENS_20_CmpUnspecifiedParamE, symObjAddr: 0x6420, symBinAddr: 0x100008780, symSize: 0x50 }
  - { offsetInCU: 0xF7CF, offset: 0xF7CF, size: 0x8, addend: 0x0, symName: __ZNSt3__1ssB7v160006IJRdRNS_12basic_stringIcNS_11char_traitsIcEENS_9allocatorIcEEEES8_EJS1_S8_S8_EEENS_26common_comparison_categoryIJDpDTclL_ZNS_17__synth_three_wayB7v160006EEclsr3stdE7declvalIRT_EEclsr3stdE7declvalIRT0_EEEEEE4typeERKNS_5tupleIJDpSA_EEERKNSI_IJDpSC_EEE, symObjAddr: 0x6470, symBinAddr: 0x1000087D0, symSize: 0x30 }
  - { offsetInCU: 0xF852, offset: 0xF852, size: 0x8, addend: 0x0, symName: __ZNSt3__125__tuple_compare_three_wayB7v160006IJRdRNS_12basic_stringIcNS_11char_traitsIcEENS_9allocatorIcEEEES8_EJS1_S8_S8_EJLm0ELm1ELm2EEEEDaRKNS_5tupleIJDpT_EEERKNSA_IJDpT0_EEENS_16integer_sequenceImJXspT1_EEEE, symObjAddr: 0x6530, symBinAddr: 0x100008890, symSize: 0x180 }
  - { offsetInCU: 0xF8EC, offset: 0xF8EC, size: 0x8, addend: 0x0, symName: __ZNSt3__13getB7v160006ILm0EJRdRNS_12basic_stringIcNS_11char_traitsIcEENS_9allocatorIcEEEES8_EEERKNS_13tuple_elementIXT_ENS_5tupleIJDpT0_EEEE4typeERKSD_, symObjAddr: 0x67C0, symBinAddr: 0x100008B20, symSize: 0x20 }
  - { offsetInCU: 0xF939, offset: 0xF939, size: 0x8, addend: 0x0, symName: __ZNSt3__1eqB7v160006ENS_16partial_orderingENS_20_CmpUnspecifiedParamE, symObjAddr: 0x67E0, symBinAddr: 0x100008B40, symSize: 0x50 }
  - { offsetInCU: 0xF96F, offset: 0xF96F, size: 0x8, addend: 0x0, symName: __ZNSt3__13getB7v160006ILm1EJRdRNS_12basic_stringIcNS_11char_traitsIcEENS_9allocatorIcEEEES8_EEERKNS_13tuple_elementIXT_ENS_5tupleIJDpT0_EEEE4typeERKSD_, symObjAddr: 0x6860, symBinAddr: 0x100008BC0, symSize: 0x20 }
  - { offsetInCU: 0xF9BC, offset: 0xF9BC, size: 0x8, addend: 0x0, symName: __ZNSt3__13getB7v160006ILm2EJRdRNS_12basic_stringIcNS_11char_traitsIcEENS_9allocatorIcEEEES8_EEERKNS_13tuple_elementIXT_ENS_5tupleIJDpT0_EEEE4typeERKSD_, symObjAddr: 0x6880, symBinAddr: 0x100008BE0, symSize: 0x20 }
  - { offsetInCU: 0xFA09, offset: 0xFA09, size: 0x8, addend: 0x0, symName: __ZNSt3__1ssB7v160006IcNS_11char_traitsIcEENS_9allocatorIcEEEEDaRKNS_12basic_stringIT_T0_T1_EESC_, symObjAddr: 0x68C0, symBinAddr: 0x100008C20, symSize: 0x60 }
  - { offsetInCU: 0xFA61, offset: 0xFA61, size: 0x8, addend: 0x0, symName: __ZNSt3__1ssB7v160006IcNS_11char_traitsIcEEEEDaNS_17basic_string_viewIT_T0_EES7_, symObjAddr: 0x6920, symBinAddr: 0x100008C80, symSize: 0x90 }
  - { offsetInCU: 0xFAEA, offset: 0xFAEA, size: 0x8, addend: 0x0, symName: __ZNSt3__19iter_swapB7v160006IP11PairOfWordsS2_EEvT_T0_, symObjAddr: 0x6D90, symBinAddr: 0x1000090F0, symSize: 0x30 }
  - { offsetInCU: 0xFB32, offset: 0xFB32, size: 0x8, addend: 0x0, symName: __ZNSt3__14swapB7v160006I11PairOfWordsEENS_9enable_ifIXaasr21is_move_constructibleIT_EE5valuesr18is_move_assignableIS3_EE5valueEvE4typeERS3_S6_, symObjAddr: 0x6DC0, symBinAddr: 0x100009120, symSize: 0x50 }
  - { offsetInCU: 0xFB84, offset: 0xFB84, size: 0x8, addend: 0x0, symName: __ZNSt3__115__debug_db_swapB7v160006INS_12basic_stringIcNS_11char_traitsIcEENS_9allocatorIcEEEEEEvPT_S8_, symObjAddr: 0x6F40, symBinAddr: 0x1000092A0, symSize: 0x10 }
  - { offsetInCU: 0xFBC3, offset: 0xFBC3, size: 0x8, addend: 0x0, symName: '__ZNSt3__17__sort4B7v160006INS_17_ClassicAlgPolicyERZ18CalculateDistancesRKNS_6vectorINS_12basic_stringIcNS_11char_traitsIcEENS_9allocatorIcEEEENS6_IS8_EEEEE3$_0P11PairOfWordsEEjT1_SH_SH_SH_T0_', symObjAddr: 0x6F50, symBinAddr: 0x1000092B0, symSize: 0xF0 }
  - { offsetInCU: 0xFC74, offset: 0xFC74, size: 0x8, addend: 0x0, symName: __ZNSt3__123__debug_randomize_rangeB7v160006INS_17_ClassicAlgPolicyEP11PairOfWordsS3_EEvT0_T1_, symObjAddr: 0x7090, symBinAddr: 0x1000093F0, symSize: 0x10 }
  - { offsetInCU: 0xFCC5, offset: 0xFCC5, size: 0x8, addend: 0x0, symName: '__ZNSt3__119__partial_sort_implB7v160006INS_17_ClassicAlgPolicyERZ18CalculateDistancesRKNS_6vectorINS_12basic_stringIcNS_11char_traitsIcEENS_9allocatorIcEEEENS6_IS8_EEEEE3$_0P11PairOfWordsSG_EET1_SH_SH_T2_OT0_', symObjAddr: 0x70A0, symBinAddr: 0x100009400, symSize: 0x100 }
  - { offsetInCU: 0xFD5B, offset: 0xFD5B, size: 0x8, addend: 0x0, symName: '__ZNSt3__111__make_heapB7v160006INS_17_ClassicAlgPolicyERZ18CalculateDistancesRKNS_6vectorINS_12basic_stringIcNS_11char_traitsIcEENS_9allocatorIcEEEENS6_IS8_EEEEE3$_0P11PairOfWordsEEvT1_SH_OT0_', symObjAddr: 0x71A0, symBinAddr: 0x100009500, symSize: 0xA0 }
  - { offsetInCU: 0xFDFD, offset: 0xFDFD, size: 0x8, addend: 0x0, symName: '__ZNSt3__111__sort_heapB7v160006INS_17_ClassicAlgPolicyERZ18CalculateDistancesRKNS_6vectorINS_12basic_stringIcNS_11char_traitsIcEENS_9allocatorIcEEEENS6_IS8_EEEEE3$_0P11PairOfWordsEEvT1_SH_OT0_', symObjAddr: 0x7480, symBinAddr: 0x1000097E0, symSize: 0x80 }
  - { offsetInCU: 0xFE91, offset: 0xFE91, size: 0x8, addend: 0x0, symName: '__ZNSt3__110__pop_heapB7v160006INS_17_ClassicAlgPolicyEZ18CalculateDistancesRKNS_6vectorINS_12basic_stringIcNS_11char_traitsIcEENS_9allocatorIcEEEENS6_IS8_EEEEE3$_0P11PairOfWordsEEvT1_SG_RT0_NS_15iterator_traitsISG_E15difference_typeE', symObjAddr: 0x7500, symBinAddr: 0x100009860, symSize: 0x140 }
  - { offsetInCU: 0xFF3B, offset: 0xFF3B, size: 0x8, addend: 0x0, symName: '__ZNSt3__19__sift_upB7v160006INS_17_ClassicAlgPolicyERZ18CalculateDistancesRKNS_6vectorINS_12basic_stringIcNS_11char_traitsIcEENS_9allocatorIcEEEENS6_IS8_EEEEE3$_0P11PairOfWordsEEvT1_SH_OT0_NS_15iterator_traitsISH_E15difference_typeE', symObjAddr: 0x7740, symBinAddr: 0x100009AA0, symSize: 0x160 }
  - { offsetInCU: 0xFFDC, offset: 0xFFDC, size: 0x8, addend: 0x0, symName: '__ZNSt3__17__sort5IRZ18CalculateDistancesRKNS_6vectorINS_12basic_stringIcNS_11char_traitsIcEENS_9allocatorIcEEEENS5_IS7_EEEEE3$_0P11PairOfWordsEEjT0_SG_SG_SG_SG_T_', symObjAddr: 0x78A0, symBinAddr: 0x100009C00, symSize: 0x140 }
  - { offsetInCU: 0x100DA, offset: 0x100DA, size: 0x8, addend: 0x0, symName: __ZNSt3__112__to_addressB7v160006INS_11__wrap_iterIP11PairOfWordsEEvEENS_5decayIDTclsr19__to_address_helperIT_EE6__callclsr3stdE7declvalIRKS6_EEEEE4typeES8_, symObjAddr: 0x7A00, symBinAddr: 0x100009D60, symSize: 0x20 }
  - { offsetInCU: 0x1017C, offset: 0x1017C, size: 0x8, addend: 0x0, symName: __ZNSt3__1neB7v160006IP11PairOfWordsEEbRKNS_11__wrap_iterIT_EES7_, symObjAddr: 0x7B20, symBinAddr: 0x100009E80, symSize: 0x30 }
  - { offsetInCU: 0x101BF, offset: 0x101BF, size: 0x8, addend: 0x0, symName: __ZNSt3__1eqB7v160006IP11PairOfWordsEEbRKNS_11__wrap_iterIT_EES7_, symObjAddr: 0x7C50, symBinAddr: 0x100009FB0, symSize: 0x40 }
  - { offsetInCU: 0x10202, offset: 0x10202, size: 0x8, addend: 0x0, symName: __ZNSt3__142__uninitialized_allocator_move_if_noexceptB7v160006INS_9allocatorI11PairOfWordsEENS_16reverse_iteratorIPS2_EES6_S6_EET2_RT_T0_T1_S7_, symObjAddr: 0x8370, symBinAddr: 0x10000A6D0, symSize: 0x180 }
  - { offsetInCU: 0x102A1, offset: 0x102A1, size: 0x8, addend: 0x0, symName: __ZNSt3__14swapB7v160006IP11PairOfWordsEENS_9enable_ifIXaasr21is_move_constructibleIT_EE5valuesr18is_move_assignableIS4_EE5valueEvE4typeERS4_S7_, symObjAddr: 0x8540, symBinAddr: 0x10000A8A0, symSize: 0x40 }
  - { offsetInCU: 0x102F2, offset: 0x102F2, size: 0x8, addend: 0x0, symName: __ZNSt3__125__debug_db_invalidate_allB7v160006INS_6vectorI11PairOfWordsNS_9allocatorIS2_EEEEEEvPT_, symObjAddr: 0x8580, symBinAddr: 0x10000A8E0, symSize: 0x10 }
  - { offsetInCU: 0x10323, offset: 0x10323, size: 0x8, addend: 0x0, symName: __ZNSt3__122__make_exception_guardB7v160006INS_29_AllocatorDestroyRangeReverseINS_9allocatorI11PairOfWordsEENS_16reverse_iteratorIPS3_EEEEEENS_28__exception_guard_exceptionsIT_EESA_, symObjAddr: 0x8590, symBinAddr: 0x10000A8F0, symSize: 0x60 }
  - { offsetInCU: 0x10358, offset: 0x10358, size: 0x8, addend: 0x0, symName: __ZNSt3__1neB7v160006IP11PairOfWordsS2_EEbRKNS_16reverse_iteratorIT_EERKNS3_IT0_EE, symObjAddr: 0x8630, symBinAddr: 0x10000A990, symSize: 0x40 }
  - { offsetInCU: 0x103A4, offset: 0x103A4, size: 0x8, addend: 0x0, symName: __ZNSt3__112__to_addressB7v160006INS_16reverse_iteratorIP11PairOfWordsEEvEENS_5decayIDTclsr19__to_address_helperIT_EE6__callclsr3stdE7declvalIRKS6_EEEEE4typeES8_, symObjAddr: 0x86A0, symBinAddr: 0x10000AA00, symSize: 0x20 }
  - { offsetInCU: 0x103DA, offset: 0x103DA, size: 0x8, addend: 0x0, symName: __ZNSt3__112construct_atB7v160006I11PairOfWordsJS1_EPS1_EEPT_S4_DpOT0_, symObjAddr: 0x8800, symBinAddr: 0x10000AB60, symSize: 0x40 }
  - { offsetInCU: 0x10475, offset: 0x10475, size: 0x8, addend: 0x0, symName: __ZNSt3__14prevB7v160006IP11PairOfWordsEENS_9enable_ifIXsr25__is_cpp17_input_iteratorIT_EE5valueES4_E4typeES4_NS_15iterator_traitsIS4_E15difference_typeE, symObjAddr: 0x88B0, symBinAddr: 0x10000AC10, symSize: 0x50 }
  - { offsetInCU: 0x104B8, offset: 0x104B8, size: 0x8, addend: 0x0, symName: __ZNSt3__19__advanceB7v160006IP11PairOfWordsEEvRT_NS_15iterator_traitsIS3_E15difference_typeENS_26random_access_iterator_tagE, symObjAddr: 0x8950, symBinAddr: 0x10000ACB0, symSize: 0x20 }
  - { offsetInCU: 0x10501, offset: 0x10501, size: 0x8, addend: 0x0, symName: __ZNSt3__119__allocator_destroyB7v160006INS_9allocatorI11PairOfWordsEENS_16reverse_iteratorINS4_IPS2_EEEES7_EEvRT_T0_T1_, symObjAddr: 0x8AA0, symBinAddr: 0x10000AE00, symSize: 0x70 }
  - { offsetInCU: 0x10564, offset: 0x10564, size: 0x8, addend: 0x0, symName: __ZNSt3__1neB7v160006INS_16reverse_iteratorIP11PairOfWordsEES4_EEbRKNS1_IT_EERKNS1_IT0_EE, symObjAddr: 0x8B40, symBinAddr: 0x10000AEA0, symSize: 0x50 }
  - { offsetInCU: 0x105B0, offset: 0x105B0, size: 0x8, addend: 0x0, symName: __ZNSt3__112__to_addressB7v160006INS_16reverse_iteratorINS1_IP11PairOfWordsEEEEvEENS_5decayIDTclsr19__to_address_helperIT_EE6__callclsr3stdE7declvalIRKS7_EEEEE4typeES9_, symObjAddr: 0x8B90, symBinAddr: 0x10000AEF0, symSize: 0x20 }
  - { offsetInCU: 0x10610, offset: 0x10610, size: 0x8, addend: 0x0, symName: __ZNSt3__14prevB7v160006INS_16reverse_iteratorIP11PairOfWordsEEEENS_9enable_ifIXsr25__is_cpp17_input_iteratorIT_EE5valueES6_E4typeES6_NS_15iterator_traitsIS6_E15difference_typeE, symObjAddr: 0x8C90, symBinAddr: 0x10000AFF0, symSize: 0x60 }
  - { offsetInCU: 0x10653, offset: 0x10653, size: 0x8, addend: 0x0, symName: __ZNSt3__19__advanceB7v160006INS_16reverse_iteratorIP11PairOfWordsEEEEvRT_NS_15iterator_traitsIS5_E15difference_typeENS_26random_access_iterator_tagE, symObjAddr: 0x8D40, symBinAddr: 0x10000B0A0, symSize: 0x30 }
  - { offsetInCU: 0x1069C, offset: 0x1069C, size: 0x8, addend: 0x0, symName: __ZNSt3__116__swap_allocatorB7v160006INS_9allocatorI11PairOfWordsEEEEvRT_S5_NS_17integral_constantIbLb0EEE, symObjAddr: 0x9140, symBinAddr: 0x10000B4A0, symSize: 0x10 }
  - { offsetInCU: 0x106DD, offset: 0x106DD, size: 0x8, addend: 0x0, symName: __ZNSt3__115__debug_db_swapB7v160006INS_6vectorI11PairOfWordsNS_9allocatorIS2_EEEEEEvPT_S7_, symObjAddr: 0x9150, symBinAddr: 0x10000B4B0, symSize: 0x10 }
  - { offsetInCU: 0x1071C, offset: 0x1071C, size: 0x8, addend: 0x0, symName: __ZNSt3__116__pad_and_outputB7v160006IcNS_11char_traitsIcEEEENS_19ostreambuf_iteratorIT_T0_EES6_PKS4_S8_S8_RNS_8ios_baseES4_, symObjAddr: 0x93F0, symBinAddr: 0x10000B750, symSize: 0x220 }
  - { offsetInCU: 0x107EC, offset: 0x107EC, size: 0x8, addend: 0x0, symName: __ZNSt3__112__to_addressB7v160006IcEEPT_S2_, symObjAddr: 0x9850, symBinAddr: 0x10000BBB0, symSize: 0x10 }
  - { offsetInCU: 0x10821, offset: 0x10821, size: 0x8, addend: 0x0, symName: __ZNSt3__19use_facetB7v160006INS_5ctypeIcEEEERKT_RKNS_6localeE, symObjAddr: 0x99A0, symBinAddr: 0x10000BD00, symSize: 0x30 }
  - { offsetInCU: 0x10C01, offset: 0x10C01, size: 0x8, addend: 0x0, symName: __ZNSt3__118__constexpr_strlenB7v160006EPKc, symObjAddr: 0x9A60, symBinAddr: 0x10000BDC0, symSize: 0x20 }
  - { offsetInCU: 0x10C2D, offset: 0x10C2D, size: 0x8, addend: 0x0, symName: __ZNSt3__119__debug_db_insert_cB7v160006INS_13unordered_setINS_12basic_stringIcNS_11char_traitsIcEENS_9allocatorIcEEEENS_4hashIS7_EENS_8equal_toIS7_EENS5_IS7_EEEEEEvPT_, symObjAddr: 0x9AE0, symBinAddr: 0x10000BE40, symSize: 0x10 }
  - { offsetInCU: 0x10C5E, offset: 0x10C5E, size: 0x8, addend: 0x0, symName: __ZNSt3__118__debug_db_erase_cB7v160006INS_12__hash_tableINS_12basic_stringIcNS_11char_traitsIcEENS_9allocatorIcEEEENS_4hashIS7_EENS_8equal_toIS7_EENS5_IS7_EEEEEEvPT_, symObjAddr: 0xA120, symBinAddr: 0x10000C480, symSize: 0x10 }
  - { offsetInCU: 0x11219, offset: 0x11219, size: 0x8, addend: 0x0, symName: __ZNSt3__125__debug_db_invalidate_allB7v160006INS_12basic_stringIcNS_11char_traitsIcEENS_9allocatorIcEEEEEEvPT_, symObjAddr: 0xA7A0, symBinAddr: 0x10000CB00, symSize: 0x10 }
  - { offsetInCU: 0x1124A, offset: 0x1124A, size: 0x8, addend: 0x0, symName: __ZNSt3__116__constrain_hashB7v160006Emm, symObjAddr: 0xB050, symBinAddr: 0x10000D3B0, symSize: 0x80 }
  - { offsetInCU: 0x11284, offset: 0x11284, size: 0x8, addend: 0x0, symName: __ZNSt3__116__is_hash_power2B7v160006Em, symObjAddr: 0xB310, symBinAddr: 0x10000D670, symSize: 0x40 }
  - { offsetInCU: 0x112B0, offset: 0x112B0, size: 0x8, addend: 0x0, symName: __ZNSt3__116__do_string_hashB7v160006IPKcEEmT_S3_, symObjAddr: 0xB4C0, symBinAddr: 0x10000D820, symSize: 0x40 }
  - { offsetInCU: 0x112F6, offset: 0x112F6, size: 0x8, addend: 0x0, symName: __ZNSt3__110__loadwordB7v160006ImEET_PKv, symObjAddr: 0xBDB0, symBinAddr: 0x10000E110, symSize: 0x20 }
  - { offsetInCU: 0x11339, offset: 0x11339, size: 0x8, addend: 0x0, symName: __ZNSt3__14swapB7v160006ImEENS_9enable_ifIXaasr21is_move_constructibleIT_EE5valuesr18is_move_assignableIS2_EE5valueEvE4typeERS2_S5_, symObjAddr: 0xBF70, symBinAddr: 0x10000E2D0, symSize: 0x40 }
  - { offsetInCU: 0x1138A, offset: 0x1138A, size: 0x8, addend: 0x0, symName: __ZNSt3__110__loadwordB7v160006IjEET_PKv, symObjAddr: 0xC000, symBinAddr: 0x10000E360, symSize: 0x20 }
  - { offsetInCU: 0x113EB, offset: 0x113EB, size: 0x8, addend: 0x0, symName: __ZNSt3__112construct_atB7v160006INS_12basic_stringIcNS_11char_traitsIcEENS_9allocatorIcEEEEJS6_EPS6_EEPT_S9_DpOT0_, symObjAddr: 0xC4F0, symBinAddr: 0x10000E850, symSize: 0x40 }
  - { offsetInCU: 0x1145C, offset: 0x1145C, size: 0x8, addend: 0x0, symName: __ZNSt3__116__next_hash_pow2B7v160006Em, symObjAddr: 0xCA40, symBinAddr: 0x10000EDA0, symSize: 0x60 }
  - { offsetInCU: 0x11488, offset: 0x11488, size: 0x8, addend: 0x0, symName: __ZNSt3__125__debug_db_invalidate_allB7v160006INS_12__hash_tableINS_12basic_stringIcNS_11char_traitsIcEENS_9allocatorIcEEEENS_4hashIS7_EENS_8equal_toIS7_EENS5_IS7_EEEEEEvPT_, symObjAddr: 0xCAA0, symBinAddr: 0x10000EE00, symSize: 0x10 }
  - { offsetInCU: 0x114D7, offset: 0x114D7, size: 0x8, addend: 0x0, symName: __ZNSt3__1neB7v160006IPK11PairOfWordsEEbRKNS_11__wrap_iterIT_EES8_, symObjAddr: 0xCF00, symBinAddr: 0x10000F260, symSize: 0x30 }
  - { offsetInCU: 0x1151A, offset: 0x1151A, size: 0x8, addend: 0x0, symName: __ZNSt3__1lsB7v160006INS_11char_traitsIcEEEERNS_13basic_ostreamIcT_EES6_c, symObjAddr: 0xCF50, symBinAddr: 0x10000F2B0, symSize: 0x30 }
  - { offsetInCU: 0x11560, offset: 0x11560, size: 0x8, addend: 0x0, symName: __ZNSt3__1eqB7v160006IPK11PairOfWordsEEbRKNS_11__wrap_iterIT_EES8_, symObjAddr: 0xD020, symBinAddr: 0x10000F380, symSize: 0x40 }
  - { offsetInCU: 0x11ACA, offset: 0x11ACA, size: 0x8, addend: 0x0, symName: __ZSt28__throw_bad_array_new_lengthB7v160006v, symObjAddr: 0x2590, symBinAddr: 0x1000048F0, symSize: 0x40 }
  - { offsetInCU: 0x12507, offset: 0x12507, size: 0x8, addend: 0x0, symName: __ZNSt3__16vectorI11PairOfWordsNS_9allocatorIS1_EEE26__swap_out_circular_bufferERNS_14__split_bufferIS1_RS3_EE, symObjAddr: 0x7F80, symBinAddr: 0x10000A2E0, symSize: 0x130 }
  - { offsetInCU: 0x14DA4, offset: 0x14DA4, size: 0x8, addend: 0x0, symName: __ZlsRNSt3__113basic_ostreamIcNS_11char_traitsIcEEEERK11PairOfWords, symObjAddr: 0x0, symBinAddr: 0x100002360, symSize: 0x70 }
  - { offsetInCU: 0x14DDE, offset: 0x14DDE, size: 0x8, addend: 0x0, symName: __Z13ProcessStringRNSt3__112basic_stringIcNS_11char_traitsIcEENS_9allocatorIcEEEE, symObjAddr: 0x100, symBinAddr: 0x100002460, symSize: 0x130 }
  - { offsetInCU: 0x14E23, offset: 0x14E23, size: 0x8, addend: 0x0, symName: __ZNKSt3__112basic_stringIcNS_11char_traitsIcEENS_9allocatorIcEEE4sizeB7v160006Ev, symObjAddr: 0x230, symBinAddr: 0x100002590, symSize: 0x50 }
  - { offsetInCU: 0x14E49, offset: 0x14E49, size: 0x8, addend: 0x0, symName: __ZNSt3__112basic_stringIcNS_11char_traitsIcEENS_9allocatorIcEEEixB7v160006Em, symObjAddr: 0x280, symBinAddr: 0x1000025E0, symSize: 0x30 }
  - { offsetInCU: 0x14E7D, offset: 0x14E7D, size: 0x8, addend: 0x0, symName: __Z7GetTextv, symObjAddr: 0x2B0, symBinAddr: 0x100002610, symSize: 0x150 }
  - { offsetInCU: 0x14EB9, offset: 0x14EB9, size: 0x8, addend: 0x0, symName: __ZNSt3__112basic_stringIcNS_11char_traitsIcEENS_9allocatorIcEEEC1B7v160006Ev, symObjAddr: 0x400, symBinAddr: 0x100002760, symSize: 0x20 }
  - { offsetInCU: 0x15031, offset: 0x15031, size: 0x8, addend: 0x0, symName: __ZNSt3__113unordered_setINS_12basic_stringIcNS_11char_traitsIcEENS_9allocatorIcEEEENS_4hashIS6_EENS_8equal_toIS6_EENS4_IS6_EEEC1B7v160006Ev, symObjAddr: 0x420, symBinAddr: 0x100002780, symSize: 0x20 }
  - { offsetInCU: 0x1505B, offset: 0x1505B, size: 0x8, addend: 0x0, symName: __ZNKSt3__19basic_iosIcNS_11char_traitsIcEEEcvbB7v160006Ev, symObjAddr: 0x720, symBinAddr: 0x100002A80, symSize: 0x30 }
  - { offsetInCU: 0x15081, offset: 0x15081, size: 0x8, addend: 0x0, symName: __ZNSt3__113unordered_setINS_12basic_stringIcNS_11char_traitsIcEENS_9allocatorIcEEEENS_4hashIS6_EENS_8equal_toIS6_EENS4_IS6_EEE6insertB7v160006EOS6_, symObjAddr: 0x750, symBinAddr: 0x100002AB0, symSize: 0x40 }
  - { offsetInCU: 0x150B6, offset: 0x150B6, size: 0x8, addend: 0x0, symName: __ZNSt3__113unordered_setINS_12basic_stringIcNS_11char_traitsIcEENS_9allocatorIcEEEENS_4hashIS6_EENS_8equal_toIS6_EENS4_IS6_EEE5beginB7v160006Ev, symObjAddr: 0x790, symBinAddr: 0x100002AF0, symSize: 0x30 }
  - { offsetInCU: 0x150DC, offset: 0x150DC, size: 0x8, addend: 0x0, symName: __ZNSt3__113unordered_setINS_12basic_stringIcNS_11char_traitsIcEENS_9allocatorIcEEEENS_4hashIS6_EENS_8equal_toIS6_EENS4_IS6_EEE3endB7v160006Ev, symObjAddr: 0x7C0, symBinAddr: 0x100002B20, symSize: 0x30 }
  - { offsetInCU: 0x15102, offset: 0x15102, size: 0x8, addend: 0x0, symName: __ZNSt3__16vectorINS_12basic_stringIcNS_11char_traitsIcEENS_9allocatorIcEEEENS4_IS6_EEEC1INS_21__hash_const_iteratorIPNS_11__hash_nodeIS6_PvEEEELi0EEET_SG_, symObjAddr: 0x7F0, symBinAddr: 0x100002B50, symSize: 0x30 }
  - { offsetInCU: 0x1515B, offset: 0x1515B, size: 0x8, addend: 0x0, symName: __ZNSt3__113unordered_setINS_12basic_stringIcNS_11char_traitsIcEENS_9allocatorIcEEEENS_4hashIS6_EENS_8equal_toIS6_EENS4_IS6_EEED1B7v160006Ev, symObjAddr: 0x820, symBinAddr: 0x100002B80, symSize: 0x20 }
  - { offsetInCU: 0x15184, offset: 0x15184, size: 0x8, addend: 0x0, symName: __Z12AssignValuesRKNSt3__16vectorIiNS_9allocatorIiEEEES5_RiS6_S6_mm, symObjAddr: 0x840, symBinAddr: 0x100002BA0, symSize: 0x1B0 }
  - { offsetInCU: 0x15201, offset: 0x15201, size: 0x8, addend: 0x0, symName: __ZNKSt3__16vectorIiNS_9allocatorIiEEEixB7v160006Em, symObjAddr: 0x9F0, symBinAddr: 0x100002D50, symSize: 0x20 }
  - { offsetInCU: 0x15237, offset: 0x15237, size: 0x8, addend: 0x0, symName: __Z17CalculateDistanceRKNSt3__112basic_stringIcNS_11char_traitsIcEENS_9allocatorIcEEEES7_, symObjAddr: 0xA10, symBinAddr: 0x100002D70, symSize: 0x250 }
  - { offsetInCU: 0x152EB, offset: 0x152EB, size: 0x8, addend: 0x0, symName: __ZNSt3__16vectorIiNS_9allocatorIiEEEC1Em, symObjAddr: 0xC60, symBinAddr: 0x100002FC0, symSize: 0x30 }
  - { offsetInCU: 0x15326, offset: 0x15326, size: 0x8, addend: 0x0, symName: __ZNKSt3__112basic_stringIcNS_11char_traitsIcEENS_9allocatorIcEEEixB7v160006Em, symObjAddr: 0xC90, symBinAddr: 0x100002FF0, symSize: 0x30 }
  - { offsetInCU: 0x1535B, offset: 0x1535B, size: 0x8, addend: 0x0, symName: __ZNSt3__16vectorIiNS_9allocatorIiEEEixB7v160006Em, symObjAddr: 0xCC0, symBinAddr: 0x100003020, symSize: 0x20 }
  - { offsetInCU: 0x15392, offset: 0x15392, size: 0x8, addend: 0x0, symName: __ZNSt3__16vectorIiNS_9allocatorIiEEE4backB7v160006Ev, symObjAddr: 0xD40, symBinAddr: 0x1000030A0, symSize: 0x20 }
  - { offsetInCU: 0x153B8, offset: 0x153B8, size: 0x8, addend: 0x0, symName: __ZNSt3__16vectorIiNS_9allocatorIiEEED1B7v160006Ev, symObjAddr: 0xD60, symBinAddr: 0x1000030C0, symSize: 0x20 }
  - { offsetInCU: 0x153E1, offset: 0x153E1, size: 0x8, addend: 0x0, symName: __Z18CalculateDistancesRKNSt3__16vectorINS_12basic_stringIcNS_11char_traitsIcEENS_9allocatorIcEEEENS4_IS6_EEEE, symObjAddr: 0xD80, symBinAddr: 0x1000030E0, symSize: 0x480 }
  - { offsetInCU: 0x154E9, offset: 0x154E9, size: 0x8, addend: 0x0, symName: __ZNKSt3__16vectorINS_12basic_stringIcNS_11char_traitsIcEENS_9allocatorIcEEEENS4_IS6_EEE4sizeB7v160006Ev, symObjAddr: 0x1200, symBinAddr: 0x100003560, symSize: 0x30 }
  - { offsetInCU: 0x1550F, offset: 0x1550F, size: 0x8, addend: 0x0, symName: __ZNSt3__16vectorI11PairOfWordsNS_9allocatorIS1_EEEC1Em, symObjAddr: 0x1230, symBinAddr: 0x100003590, symSize: 0x30 }
  - { offsetInCU: 0x1554A, offset: 0x1554A, size: 0x8, addend: 0x0, symName: __ZNKSt3__16vectorINS_12basic_stringIcNS_11char_traitsIcEENS_9allocatorIcEEEENS4_IS6_EEEixB7v160006Em, symObjAddr: 0x1370, symBinAddr: 0x1000036D0, symSize: 0x20 }
  - { offsetInCU: 0x15581, offset: 0x15581, size: 0x8, addend: 0x0, symName: __ZNSt3__16vectorI11PairOfWordsNS_9allocatorIS1_EEEixB7v160006Em, symObjAddr: 0x13C0, symBinAddr: 0x100003720, symSize: 0x20 }
  - { offsetInCU: 0x155BE, offset: 0x155BE, size: 0x8, addend: 0x0, symName: __ZN11PairOfWordsaSEOS_, symObjAddr: 0x13E0, symBinAddr: 0x100003740, symSize: 0x50 }
  - { offsetInCU: 0x155EF, offset: 0x155EF, size: 0x8, addend: 0x0, symName: __ZN11PairOfWordsD1Ev, symObjAddr: 0x1430, symBinAddr: 0x100003790, symSize: 0x20 }
  - { offsetInCU: 0x1561B, offset: 0x1561B, size: 0x8, addend: 0x0, symName: __ZNSt3__16vectorI11PairOfWordsNS_9allocatorIS1_EEE5beginB7v160006Ev, symObjAddr: 0x1490, symBinAddr: 0x1000037F0, symSize: 0x30 }
  - { offsetInCU: 0x15643, offset: 0x15643, size: 0x8, addend: 0x0, symName: __ZNSt3__16vectorI11PairOfWordsNS_9allocatorIS1_EEE3endB7v160006Ev, symObjAddr: 0x14C0, symBinAddr: 0x100003820, symSize: 0x30 }
  - { offsetInCU: 0x1566B, offset: 0x1566B, size: 0x8, addend: 0x0, symName: __ZNKSt3__16vectorI11PairOfWordsNS_9allocatorIS1_EEE4sizeB7v160006Ev, symObjAddr: 0x14F0, symBinAddr: 0x100003850, symSize: 0x30 }
  - { offsetInCU: 0x15691, offset: 0x15691, size: 0x8, addend: 0x0, symName: __ZNSt3__16vectorI11PairOfWordsNS_9allocatorIS1_EEE6resizeEm, symObjAddr: 0x15D0, symBinAddr: 0x100003930, symSize: 0x80 }
  - { offsetInCU: 0x156D7, offset: 0x156D7, size: 0x8, addend: 0x0, symName: __ZNSt3__16vectorI11PairOfWordsNS_9allocatorIS1_EEED1B7v160006Ev, symObjAddr: 0x1680, symBinAddr: 0x1000039E0, symSize: 0x20 }
  - { offsetInCU: 0x15701, offset: 0x15701, size: 0x8, addend: 0x0, symName: _main, symObjAddr: 0x16A0, symBinAddr: 0x100003A00, symSize: 0xA0 }
  - { offsetInCU: 0x15729, offset: 0x15729, size: 0x8, addend: 0x0, symName: __ZlsI11PairOfWordsERNSt3__113basic_ostreamIcNS1_11char_traitsIcEEEES6_RKNS1_6vectorIT_NS1_9allocatorIS8_EEEE, symObjAddr: 0x1740, symBinAddr: 0x100003AA0, symSize: 0xC0 }
  - { offsetInCU: 0x157A5, offset: 0x157A5, size: 0x8, addend: 0x0, symName: __ZNSt3__16vectorINS_12basic_stringIcNS_11char_traitsIcEENS_9allocatorIcEEEENS4_IS6_EEED1B7v160006Ev, symObjAddr: 0x1800, symBinAddr: 0x100003B60, symSize: 0x20 }
  - { offsetInCU: 0x157CF, offset: 0x157CF, size: 0x8, addend: 0x0, symName: __ZNKSt3__112basic_stringIcNS_11char_traitsIcEENS_9allocatorIcEEE9__is_longB7v160006Ev, symObjAddr: 0x1820, symBinAddr: 0x100003B80, symSize: 0x30 }
  - { offsetInCU: 0x157F5, offset: 0x157F5, size: 0x8, addend: 0x0, symName: __ZNKSt3__112basic_stringIcNS_11char_traitsIcEENS_9allocatorIcEEE15__get_long_sizeB7v160006Ev, symObjAddr: 0x1850, symBinAddr: 0x100003BB0, symSize: 0x20 }
  - { offsetInCU: 0x1581B, offset: 0x1581B, size: 0x8, addend: 0x0, symName: __ZNKSt3__112basic_stringIcNS_11char_traitsIcEENS_9allocatorIcEEE16__get_short_sizeB7v160006Ev, symObjAddr: 0x1870, symBinAddr: 0x100003BD0, symSize: 0x30 }
  - { offsetInCU: 0x15841, offset: 0x15841, size: 0x8, addend: 0x0, symName: __ZNKSt3__117__compressed_pairINS_12basic_stringIcNS_11char_traitsIcEENS_9allocatorIcEEE5__repES5_E5firstB7v160006Ev, symObjAddr: 0x18A0, symBinAddr: 0x100003C00, symSize: 0x20 }
  - { offsetInCU: 0x15867, offset: 0x15867, size: 0x8, addend: 0x0, symName: __ZNKSt3__122__compressed_pair_elemINS_12basic_stringIcNS_11char_traitsIcEENS_9allocatorIcEEE5__repELi0ELb0EE5__getB7v160006Ev, symObjAddr: 0x18C0, symBinAddr: 0x100003C20, symSize: 0x10 }
  - { offsetInCU: 0x1588D, offset: 0x1588D, size: 0x8, addend: 0x0, symName: __ZNSt3__112basic_stringIcNS_11char_traitsIcEENS_9allocatorIcEEE13__get_pointerB7v160006Ev, symObjAddr: 0x18D0, symBinAddr: 0x100003C30, symSize: 0x50 }
  - { offsetInCU: 0x158B3, offset: 0x158B3, size: 0x8, addend: 0x0, symName: __ZNSt3__112basic_stringIcNS_11char_traitsIcEENS_9allocatorIcEEE18__get_long_pointerB7v160006Ev, symObjAddr: 0x1920, symBinAddr: 0x100003C80, symSize: 0x20 }
  - { offsetInCU: 0x158D9, offset: 0x158D9, size: 0x8, addend: 0x0, symName: __ZNSt3__112basic_stringIcNS_11char_traitsIcEENS_9allocatorIcEEE19__get_short_pointerB7v160006Ev, symObjAddr: 0x1940, symBinAddr: 0x100003CA0, symSize: 0x30 }
  - { offsetInCU: 0x158FF, offset: 0x158FF, size: 0x8, addend: 0x0, symName: __ZNSt3__117__compressed_pairINS_12basic_stringIcNS_11char_traitsIcEENS_9allocatorIcEEE5__repES5_E5firstB7v160006Ev, symObjAddr: 0x1970, symBinAddr: 0x100003CD0, symSize: 0x20 }
  - { offsetInCU: 0x15925, offset: 0x15925, size: 0x8, addend: 0x0, symName: __ZNSt3__122__compressed_pair_elemINS_12basic_stringIcNS_11char_traitsIcEENS_9allocatorIcEEE5__repELi0ELb0EE5__getB7v160006Ev, symObjAddr: 0x1990, symBinAddr: 0x100003CF0, symSize: 0x10 }
  - { offsetInCU: 0x1594B, offset: 0x1594B, size: 0x8, addend: 0x0, symName: __ZNSt3__114pointer_traitsIPcE10pointer_toB7v160006ERc, symObjAddr: 0x19A0, symBinAddr: 0x100003D00, symSize: 0x10 }
  - { offsetInCU: 0x1596E, offset: 0x1596E, size: 0x8, addend: 0x0, symName: __ZNSt3__112basic_stringIcNS_11char_traitsIcEENS_9allocatorIcEEEC2B7v160006Ev, symObjAddr: 0x19B0, symBinAddr: 0x100003D10, symSize: 0x50 }
  - { offsetInCU: 0x1599E, offset: 0x1599E, size: 0x8, addend: 0x0, symName: __ZNSt3__117__compressed_pairINS_12basic_stringIcNS_11char_traitsIcEENS_9allocatorIcEEE5__repES5_EC1B7v160006INS_18__default_init_tagESA_EEOT_OT0_, symObjAddr: 0x1A00, symBinAddr: 0x100003D60, symSize: 0x30 }
  - { offsetInCU: 0x159F6, offset: 0x159F6, size: 0x8, addend: 0x0, symName: __ZNSt3__112basic_stringIcNS_11char_traitsIcEENS_9allocatorIcEEE14__default_initB7v160006Ev, symObjAddr: 0x1A50, symBinAddr: 0x100003DB0, symSize: 0x50 }
  - { offsetInCU: 0x15A1C, offset: 0x15A1C, size: 0x8, addend: 0x0, symName: __ZNSt3__117__compressed_pairINS_12basic_stringIcNS_11char_traitsIcEENS_9allocatorIcEEE5__repES5_EC2B7v160006INS_18__default_init_tagESA_EEOT_OT0_, symObjAddr: 0x1AA0, symBinAddr: 0x100003E00, symSize: 0x30 }
  - { offsetInCU: 0x15A74, offset: 0x15A74, size: 0x8, addend: 0x0, symName: __ZNSt3__122__compressed_pair_elemINS_12basic_stringIcNS_11char_traitsIcEENS_9allocatorIcEEE5__repELi0ELb0EEC2B7v160006ENS_18__default_init_tagE, symObjAddr: 0x1AD0, symBinAddr: 0x100003E30, symSize: 0x10 }
  - { offsetInCU: 0x15AA8, offset: 0x15AA8, size: 0x8, addend: 0x0, symName: __ZNSt3__122__compressed_pair_elemINS_9allocatorIcEELi1ELb1EEC2B7v160006ENS_18__default_init_tagE, symObjAddr: 0x1AE0, symBinAddr: 0x100003E40, symSize: 0x20 }
  - { offsetInCU: 0x15ADC, offset: 0x15ADC, size: 0x8, addend: 0x0, symName: __ZNSt3__19allocatorIcEC2B7v160006Ev, symObjAddr: 0x1B00, symBinAddr: 0x100003E60, symSize: 0x20 }
  - { offsetInCU: 0x15B06, offset: 0x15B06, size: 0x8, addend: 0x0, symName: __ZNSt3__116__non_trivial_ifILb1ENS_9allocatorIcEEEC2B7v160006Ev, symObjAddr: 0x1B20, symBinAddr: 0x100003E80, symSize: 0x10 }
  - { offsetInCU: 0x15B30, offset: 0x15B30, size: 0x8, addend: 0x0, symName: __ZNSt3__16vectorINS_12basic_stringIcNS_11char_traitsIcEENS_9allocatorIcEEEENS4_IS6_EEEC2INS_21__hash_const_iteratorIPNS_11__hash_nodeIS6_PvEEEELi0EEET_SG_, symObjAddr: 0x1B30, symBinAddr: 0x100003E90, symSize: 0x130 }
  - { offsetInCU: 0x15BB4, offset: 0x15BB4, size: 0x8, addend: 0x0, symName: __ZNSt3__117__compressed_pairIPNS_12basic_stringIcNS_11char_traitsIcEENS_9allocatorIcEEEENS4_IS6_EEEC1B7v160006IDnNS_18__default_init_tagEEEOT_OT0_, symObjAddr: 0x1C60, symBinAddr: 0x100003FC0, symSize: 0x30 }
  - { offsetInCU: 0x15C0C, offset: 0x15C0C, size: 0x8, addend: 0x0, symName: __ZNSt3__16vectorINS_12basic_stringIcNS_11char_traitsIcEENS_9allocatorIcEEEENS4_IS6_EEE16__destroy_vectorC1ERS8_, symObjAddr: 0x1CD0, symBinAddr: 0x100004030, symSize: 0x30 }
  - { offsetInCU: 0x15C45, offset: 0x15C45, size: 0x8, addend: 0x0, symName: __ZNSt3__16vectorINS_12basic_stringIcNS_11char_traitsIcEENS_9allocatorIcEEEENS4_IS6_EEE11__vallocateB7v160006Em, symObjAddr: 0x1D50, symBinAddr: 0x1000040B0, symSize: 0xA0 }
  - { offsetInCU: 0x15C89, offset: 0x15C89, size: 0x8, addend: 0x0, symName: __ZNSt3__16vectorINS_12basic_stringIcNS_11char_traitsIcEENS_9allocatorIcEEEENS4_IS6_EEE18__construct_at_endINS_21__hash_const_iteratorIPNS_11__hash_nodeIS6_PvEEEELi0EEEvT_SG_m, symObjAddr: 0x1DF0, symBinAddr: 0x100004150, symSize: 0xA0 }
  - { offsetInCU: 0x15CFC, offset: 0x15CFC, size: 0x8, addend: 0x0, symName: __ZNSt3__128__exception_guard_exceptionsINS_6vectorINS_12basic_stringIcNS_11char_traitsIcEENS_9allocatorIcEEEENS5_IS7_EEE16__destroy_vectorEE10__completeB7v160006Ev, symObjAddr: 0x1E90, symBinAddr: 0x1000041F0, symSize: 0x20 }
  - { offsetInCU: 0x15D22, offset: 0x15D22, size: 0x8, addend: 0x0, symName: __ZNSt3__128__exception_guard_exceptionsINS_6vectorINS_12basic_stringIcNS_11char_traitsIcEENS_9allocatorIcEEEENS5_IS7_EEE16__destroy_vectorEED1B7v160006Ev, symObjAddr: 0x1EB0, symBinAddr: 0x100004210, symSize: 0x20 }
  - { offsetInCU: 0x15D4C, offset: 0x15D4C, size: 0x8, addend: 0x0, symName: __ZNSt3__117__compressed_pairIPNS_12basic_stringIcNS_11char_traitsIcEENS_9allocatorIcEEEENS4_IS6_EEEC2B7v160006IDnNS_18__default_init_tagEEEOT_OT0_, symObjAddr: 0x1ED0, symBinAddr: 0x100004230, symSize: 0x40 }
  - { offsetInCU: 0x15DA4, offset: 0x15DA4, size: 0x8, addend: 0x0, symName: __ZNSt3__122__compressed_pair_elemIPNS_12basic_stringIcNS_11char_traitsIcEENS_9allocatorIcEEEELi0ELb0EEC2B7v160006IDnvEEOT_, symObjAddr: 0x1F10, symBinAddr: 0x100004270, symSize: 0x20 }
  - { offsetInCU: 0x15DE6, offset: 0x15DE6, size: 0x8, addend: 0x0, symName: __ZNSt3__122__compressed_pair_elemINS_9allocatorINS_12basic_stringIcNS_11char_traitsIcEENS1_IcEEEEEELi1ELb1EEC2B7v160006ENS_18__default_init_tagE, symObjAddr: 0x1F30, symBinAddr: 0x100004290, symSize: 0x20 }
  - { offsetInCU: 0x15E1A, offset: 0x15E1A, size: 0x8, addend: 0x0, symName: __ZNSt3__19allocatorINS_12basic_stringIcNS_11char_traitsIcEENS0_IcEEEEEC2B7v160006Ev, symObjAddr: 0x1F50, symBinAddr: 0x1000042B0, symSize: 0x20 }
  - { offsetInCU: 0x15E44, offset: 0x15E44, size: 0x8, addend: 0x0, symName: __ZNSt3__116__non_trivial_ifILb1ENS_9allocatorINS_12basic_stringIcNS_11char_traitsIcEENS1_IcEEEEEEEC2B7v160006Ev, symObjAddr: 0x1F70, symBinAddr: 0x1000042D0, symSize: 0x10 }
  - { offsetInCU: 0x15E6E, offset: 0x15E6E, size: 0x8, addend: 0x0, symName: __ZNSt3__128__exception_guard_exceptionsINS_6vectorINS_12basic_stringIcNS_11char_traitsIcEENS_9allocatorIcEEEENS5_IS7_EEE16__destroy_vectorEEC1B7v160006ESA_, symObjAddr: 0x1F80, symBinAddr: 0x1000042E0, symSize: 0x30 }
  - { offsetInCU: 0x15EA6, offset: 0x15EA6, size: 0x8, addend: 0x0, symName: __ZNSt3__128__exception_guard_exceptionsINS_6vectorINS_12basic_stringIcNS_11char_traitsIcEENS_9allocatorIcEEEENS5_IS7_EEE16__destroy_vectorEEC2B7v160006ESA_, symObjAddr: 0x1FB0, symBinAddr: 0x100004310, symSize: 0x20 }
  - { offsetInCU: 0x15EDE, offset: 0x15EDE, size: 0x8, addend: 0x0, symName: __ZNSt3__16vectorINS_12basic_stringIcNS_11char_traitsIcEENS_9allocatorIcEEEENS4_IS6_EEE16__destroy_vectorC2ERS8_, symObjAddr: 0x1FD0, symBinAddr: 0x100004330, symSize: 0x20 }
  - { offsetInCU: 0x15F17, offset: 0x15F17, size: 0x8, addend: 0x0, symName: __ZNSt3__121__hash_const_iteratorIPNS_11__hash_nodeINS_12basic_stringIcNS_11char_traitsIcEENS_9allocatorIcEEEEPvEEEppB7v160006Ev, symObjAddr: 0x2080, symBinAddr: 0x1000043E0, symSize: 0x20 }
  - { offsetInCU: 0x15F3D, offset: 0x15F3D, size: 0x8, addend: 0x0, symName: __ZNKSt3__16vectorINS_12basic_stringIcNS_11char_traitsIcEENS_9allocatorIcEEEENS4_IS6_EEE8max_sizeEv, symObjAddr: 0x20D0, symBinAddr: 0x100004430, symSize: 0x60 }
  - { offsetInCU: 0x15F65, offset: 0x15F65, size: 0x8, addend: 0x0, symName: __ZNKSt3__16vectorINS_12basic_stringIcNS_11char_traitsIcEENS_9allocatorIcEEEENS4_IS6_EEE20__throw_length_errorB7v160006Ev, symObjAddr: 0x2130, symBinAddr: 0x100004490, symSize: 0x20 }
  - { offsetInCU: 0x15F8B, offset: 0x15F8B, size: 0x8, addend: 0x0, symName: __ZNSt3__16vectorINS_12basic_stringIcNS_11char_traitsIcEENS_9allocatorIcEEEENS4_IS6_EEE7__allocB7v160006Ev, symObjAddr: 0x2190, symBinAddr: 0x1000044F0, symSize: 0x20 }
  - { offsetInCU: 0x15FB1, offset: 0x15FB1, size: 0x8, addend: 0x0, symName: __ZNSt3__16vectorINS_12basic_stringIcNS_11char_traitsIcEENS_9allocatorIcEEEENS4_IS6_EEE9__end_capB7v160006Ev, symObjAddr: 0x21B0, symBinAddr: 0x100004510, symSize: 0x20 }
  - { offsetInCU: 0x15FD7, offset: 0x15FD7, size: 0x8, addend: 0x0, symName: __ZNKSt3__16vectorINS_12basic_stringIcNS_11char_traitsIcEENS_9allocatorIcEEEENS4_IS6_EEE14__annotate_newB7v160006Em, symObjAddr: 0x21D0, symBinAddr: 0x100004530, symSize: 0xA0 }
  - { offsetInCU: 0x16017, offset: 0x16017, size: 0x8, addend: 0x0, symName: __ZNSt3__116allocator_traitsINS_9allocatorINS_12basic_stringIcNS_11char_traitsIcEENS1_IcEEEEEEE8max_sizeB7v160006IS7_vvEEmRKS7_, symObjAddr: 0x22A0, symBinAddr: 0x100004600, symSize: 0x30 }
  - { offsetInCU: 0x16043, offset: 0x16043, size: 0x8, addend: 0x0, symName: __ZNKSt3__16vectorINS_12basic_stringIcNS_11char_traitsIcEENS_9allocatorIcEEEENS4_IS6_EEE7__allocB7v160006Ev, symObjAddr: 0x22D0, symBinAddr: 0x100004630, symSize: 0x20 }
  - { offsetInCU: 0x16069, offset: 0x16069, size: 0x8, addend: 0x0, symName: __ZNSt3__114numeric_limitsIlE3maxB7v160006Ev, symObjAddr: 0x22F0, symBinAddr: 0x100004650, symSize: 0x10 }
  - { offsetInCU: 0x16088, offset: 0x16088, size: 0x8, addend: 0x0, symName: __ZNKSt3__16__lessImmEclB7v160006ERKmS3_, symObjAddr: 0x2350, symBinAddr: 0x1000046B0, symSize: 0x30 }
  - { offsetInCU: 0x160CA, offset: 0x160CA, size: 0x8, addend: 0x0, symName: __ZNSt3__114numeric_limitsImE3maxB7v160006Ev, symObjAddr: 0x2380, symBinAddr: 0x1000046E0, symSize: 0x10 }
  - { offsetInCU: 0x160DE, offset: 0x160DE, size: 0x8, addend: 0x0, symName: __ZNSt3__123__libcpp_numeric_limitsImLb1EE3maxB7v160006Ev, symObjAddr: 0x2390, symBinAddr: 0x1000046F0, symSize: 0x10 }
  - { offsetInCU: 0x160F2, offset: 0x160F2, size: 0x8, addend: 0x0, symName: __ZNKSt3__117__compressed_pairIPNS_12basic_stringIcNS_11char_traitsIcEENS_9allocatorIcEEEENS4_IS6_EEE6secondB7v160006Ev, symObjAddr: 0x23A0, symBinAddr: 0x100004700, symSize: 0x20 }
  - { offsetInCU: 0x16118, offset: 0x16118, size: 0x8, addend: 0x0, symName: __ZNKSt3__122__compressed_pair_elemINS_9allocatorINS_12basic_stringIcNS_11char_traitsIcEENS1_IcEEEEEELi1ELb1EE5__getB7v160006Ev, symObjAddr: 0x23C0, symBinAddr: 0x100004720, symSize: 0x10 }
  - { offsetInCU: 0x1613E, offset: 0x1613E, size: 0x8, addend: 0x0, symName: __ZNSt3__123__libcpp_numeric_limitsIlLb1EE3maxB7v160006Ev, symObjAddr: 0x23D0, symBinAddr: 0x100004730, symSize: 0x10 }
  - { offsetInCU: 0x16152, offset: 0x16152, size: 0x8, addend: 0x0, symName: __ZNSt12length_errorC1B7v160006EPKc, symObjAddr: 0x2450, symBinAddr: 0x1000047B0, symSize: 0x30 }
  - { offsetInCU: 0x1618A, offset: 0x1618A, size: 0x8, addend: 0x0, symName: __ZNSt12length_errorC2B7v160006EPKc, symObjAddr: 0x2480, symBinAddr: 0x1000047E0, symSize: 0x40 }
  - { offsetInCU: 0x161C2, offset: 0x161C2, size: 0x8, addend: 0x0, symName: __ZNSt3__19allocatorINS_12basic_stringIcNS_11char_traitsIcEENS0_IcEEEEE17allocate_at_leastB7v160006Em, symObjAddr: 0x2500, symBinAddr: 0x100004860, symSize: 0x40 }
  - { offsetInCU: 0x161F6, offset: 0x161F6, size: 0x8, addend: 0x0, symName: __ZNSt3__19allocatorINS_12basic_stringIcNS_11char_traitsIcEENS0_IcEEEEE8allocateB7v160006Em, symObjAddr: 0x2540, symBinAddr: 0x1000048A0, symSize: 0x50 }
  - { offsetInCU: 0x1622A, offset: 0x1622A, size: 0x8, addend: 0x0, symName: __ZNSt3__117__compressed_pairIPNS_12basic_stringIcNS_11char_traitsIcEENS_9allocatorIcEEEENS4_IS6_EEE6secondB7v160006Ev, symObjAddr: 0x26A0, symBinAddr: 0x100004A00, symSize: 0x20 }
  - { offsetInCU: 0x16250, offset: 0x16250, size: 0x8, addend: 0x0, symName: __ZNSt3__122__compressed_pair_elemINS_9allocatorINS_12basic_stringIcNS_11char_traitsIcEENS1_IcEEEEEELi1ELb1EE5__getB7v160006Ev, symObjAddr: 0x26C0, symBinAddr: 0x100004A20, symSize: 0x10 }
  - { offsetInCU: 0x16276, offset: 0x16276, size: 0x8, addend: 0x0, symName: __ZNSt3__117__compressed_pairIPNS_12basic_stringIcNS_11char_traitsIcEENS_9allocatorIcEEEENS4_IS6_EEE5firstB7v160006Ev, symObjAddr: 0x26D0, symBinAddr: 0x100004A30, symSize: 0x20 }
  - { offsetInCU: 0x1629C, offset: 0x1629C, size: 0x8, addend: 0x0, symName: __ZNSt3__122__compressed_pair_elemIPNS_12basic_stringIcNS_11char_traitsIcEENS_9allocatorIcEEEELi0ELb0EE5__getB7v160006Ev, symObjAddr: 0x26F0, symBinAddr: 0x100004A50, symSize: 0x10 }
  - { offsetInCU: 0x162C2, offset: 0x162C2, size: 0x8, addend: 0x0, symName: __ZNKSt3__16vectorINS_12basic_stringIcNS_11char_traitsIcEENS_9allocatorIcEEEENS4_IS6_EEE31__annotate_contiguous_containerB7v160006EPKvSA_SA_SA_, symObjAddr: 0x2700, symBinAddr: 0x100004A60, symSize: 0x20 }
  - { offsetInCU: 0x16318, offset: 0x16318, size: 0x8, addend: 0x0, symName: __ZNKSt3__16vectorINS_12basic_stringIcNS_11char_traitsIcEENS_9allocatorIcEEEENS4_IS6_EEE4dataB7v160006Ev, symObjAddr: 0x2720, symBinAddr: 0x100004A80, symSize: 0x20 }
  - { offsetInCU: 0x1633E, offset: 0x1633E, size: 0x8, addend: 0x0, symName: __ZNKSt3__16vectorINS_12basic_stringIcNS_11char_traitsIcEENS_9allocatorIcEEEENS4_IS6_EEE8capacityB7v160006Ev, symObjAddr: 0x2740, symBinAddr: 0x100004AA0, symSize: 0x40 }
  - { offsetInCU: 0x16364, offset: 0x16364, size: 0x8, addend: 0x0, symName: __ZNKSt3__16vectorINS_12basic_stringIcNS_11char_traitsIcEENS_9allocatorIcEEEENS4_IS6_EEE9__end_capB7v160006Ev, symObjAddr: 0x2790, symBinAddr: 0x100004AF0, symSize: 0x20 }
  - { offsetInCU: 0x1638A, offset: 0x1638A, size: 0x8, addend: 0x0, symName: __ZNKSt3__117__compressed_pairIPNS_12basic_stringIcNS_11char_traitsIcEENS_9allocatorIcEEEENS4_IS6_EEE5firstB7v160006Ev, symObjAddr: 0x27B0, symBinAddr: 0x100004B10, symSize: 0x20 }
  - { offsetInCU: 0x163B0, offset: 0x163B0, size: 0x8, addend: 0x0, symName: __ZNKSt3__122__compressed_pair_elemIPNS_12basic_stringIcNS_11char_traitsIcEENS_9allocatorIcEEEELi0ELb0EE5__getB7v160006Ev, symObjAddr: 0x27D0, symBinAddr: 0x100004B30, symSize: 0x10 }
  - { offsetInCU: 0x163F2, offset: 0x163F2, size: 0x8, addend: 0x0, symName: __ZNSt3__16vectorINS_12basic_stringIcNS_11char_traitsIcEENS_9allocatorIcEEEENS4_IS6_EEE21_ConstructTransactionC1B7v160006ERS8_m, symObjAddr: 0x27E0, symBinAddr: 0x100004B40, symSize: 0x30 }
  - { offsetInCU: 0x1643A, offset: 0x1643A, size: 0x8, addend: 0x0, symName: __ZNSt3__16vectorINS_12basic_stringIcNS_11char_traitsIcEENS_9allocatorIcEEEENS4_IS6_EEE21_ConstructTransactionD1B7v160006Ev, symObjAddr: 0x2940, symBinAddr: 0x100004CA0, symSize: 0x20 }
  - { offsetInCU: 0x16464, offset: 0x16464, size: 0x8, addend: 0x0, symName: __ZNSt3__16vectorINS_12basic_stringIcNS_11char_traitsIcEENS_9allocatorIcEEEENS4_IS6_EEE21_ConstructTransactionC2B7v160006ERS8_m, symObjAddr: 0x2960, symBinAddr: 0x100004CC0, symSize: 0x40 }
  - { offsetInCU: 0x164AC, offset: 0x164AC, size: 0x8, addend: 0x0, symName: __ZNSt3__129_AllocatorDestroyRangeReverseINS_9allocatorINS_12basic_stringIcNS_11char_traitsIcEENS1_IcEEEEEEPS6_EC1B7v160006ERS7_RS8_SB_, symObjAddr: 0x2A00, symBinAddr: 0x100004D60, symSize: 0x40 }
  - { offsetInCU: 0x16503, offset: 0x16503, size: 0x8, addend: 0x0, symName: __ZNSt3__116allocator_traitsINS_9allocatorINS_12basic_stringIcNS_11char_traitsIcEENS1_IcEEEEEEE9constructB7v160006IS6_JRKS6_EvvEEvRS7_PT_DpOT0_, symObjAddr: 0x2A40, symBinAddr: 0x100004DA0, symSize: 0x30 }
  - { offsetInCU: 0x16558, offset: 0x16558, size: 0x8, addend: 0x0, symName: __ZNKSt3__121__hash_const_iteratorIPNS_11__hash_nodeINS_12basic_stringIcNS_11char_traitsIcEENS_9allocatorIcEEEEPvEEEdeB7v160006Ev, symObjAddr: 0x2A70, symBinAddr: 0x100004DD0, symSize: 0x30 }
  - { offsetInCU: 0x1657E, offset: 0x1657E, size: 0x8, addend: 0x0, symName: __ZNSt3__128__exception_guard_exceptionsINS_29_AllocatorDestroyRangeReverseINS_9allocatorINS_12basic_stringIcNS_11char_traitsIcEENS2_IcEEEEEEPS7_EEE10__completeB7v160006Ev, symObjAddr: 0x2AA0, symBinAddr: 0x100004E00, symSize: 0x20 }
  - { offsetInCU: 0x165A4, offset: 0x165A4, size: 0x8, addend: 0x0, symName: __ZNSt3__128__exception_guard_exceptionsINS_29_AllocatorDestroyRangeReverseINS_9allocatorINS_12basic_stringIcNS_11char_traitsIcEENS2_IcEEEEEEPS7_EEED1B7v160006Ev, symObjAddr: 0x2AC0, symBinAddr: 0x100004E20, symSize: 0x20 }
  - { offsetInCU: 0x165CE, offset: 0x165CE, size: 0x8, addend: 0x0, symName: __ZNSt3__128__exception_guard_exceptionsINS_29_AllocatorDestroyRangeReverseINS_9allocatorINS_12basic_stringIcNS_11char_traitsIcEENS2_IcEEEEEEPS7_EEEC1B7v160006ESA_, symObjAddr: 0x2AE0, symBinAddr: 0x100004E40, symSize: 0x40 }
  - { offsetInCU: 0x16606, offset: 0x16606, size: 0x8, addend: 0x0, symName: __ZNSt3__128__exception_guard_exceptionsINS_29_AllocatorDestroyRangeReverseINS_9allocatorINS_12basic_stringIcNS_11char_traitsIcEENS2_IcEEEEEEPS7_EEEC2B7v160006ESA_, symObjAddr: 0x2B20, symBinAddr: 0x100004E80, symSize: 0x30 }
  - { offsetInCU: 0x1663E, offset: 0x1663E, size: 0x8, addend: 0x0, symName: __ZNSt3__129_AllocatorDestroyRangeReverseINS_9allocatorINS_12basic_stringIcNS_11char_traitsIcEENS1_IcEEEEEEPS6_EC2B7v160006ERS7_RS8_SB_, symObjAddr: 0x2B50, symBinAddr: 0x100004EB0, symSize: 0x40 }
  - { offsetInCU: 0x16695, offset: 0x16695, size: 0x8, addend: 0x0, symName: __ZNSt3__116__hash_node_baseIPNS_11__hash_nodeINS_12basic_stringIcNS_11char_traitsIcEENS_9allocatorIcEEEEPvEEE8__upcastB7v160006Ev, symObjAddr: 0x2BD0, symBinAddr: 0x100004F30, symSize: 0x20 }
  - { offsetInCU: 0x166BB, offset: 0x166BB, size: 0x8, addend: 0x0, symName: __ZNSt3__114pointer_traitsIPNS_16__hash_node_baseIPNS_11__hash_nodeINS_12basic_stringIcNS_11char_traitsIcEENS_9allocatorIcEEEEPvEEEEE10pointer_toB7v160006ERSC_, symObjAddr: 0x2BF0, symBinAddr: 0x100004F50, symSize: 0x10 }
  - { offsetInCU: 0x166DE, offset: 0x166DE, size: 0x8, addend: 0x0, symName: __ZNSt3__128__exception_guard_exceptionsINS_29_AllocatorDestroyRangeReverseINS_9allocatorINS_12basic_stringIcNS_11char_traitsIcEENS2_IcEEEEEEPS7_EEED2B7v160006Ev, symObjAddr: 0x2C00, symBinAddr: 0x100004F60, symSize: 0x40 }
  - { offsetInCU: 0x16708, offset: 0x16708, size: 0x8, addend: 0x0, symName: __ZNKSt3__129_AllocatorDestroyRangeReverseINS_9allocatorINS_12basic_stringIcNS_11char_traitsIcEENS1_IcEEEEEEPS6_EclB7v160006Ev, symObjAddr: 0x2C40, symBinAddr: 0x100004FA0, symSize: 0x60 }
  - { offsetInCU: 0x1672E, offset: 0x1672E, size: 0x8, addend: 0x0, symName: __ZNSt3__116reverse_iteratorIPNS_12basic_stringIcNS_11char_traitsIcEENS_9allocatorIcEEEEEC1B7v160006ES7_, symObjAddr: 0x2D10, symBinAddr: 0x100005070, symSize: 0x30 }
  - { offsetInCU: 0x16766, offset: 0x16766, size: 0x8, addend: 0x0, symName: __ZNSt3__116allocator_traitsINS_9allocatorINS_12basic_stringIcNS_11char_traitsIcEENS1_IcEEEEEEE7destroyB7v160006IS6_vvEEvRS7_PT_, symObjAddr: 0x2D80, symBinAddr: 0x1000050E0, symSize: 0x20 }
  - { offsetInCU: 0x167A1, offset: 0x167A1, size: 0x8, addend: 0x0, symName: __ZNSt3__116reverse_iteratorIPNS_12basic_stringIcNS_11char_traitsIcEENS_9allocatorIcEEEEEppB7v160006Ev, symObjAddr: 0x2DC0, symBinAddr: 0x100005120, symSize: 0x20 }
  - { offsetInCU: 0x167C7, offset: 0x167C7, size: 0x8, addend: 0x0, symName: __ZNKSt3__116reverse_iteratorIPNS_12basic_stringIcNS_11char_traitsIcEENS_9allocatorIcEEEEE4baseB7v160006Ev, symObjAddr: 0x2DE0, symBinAddr: 0x100005140, symSize: 0x20 }
  - { offsetInCU: 0x167F3, offset: 0x167F3, size: 0x8, addend: 0x0, symName: __ZNSt3__119__to_address_helperINS_16reverse_iteratorIPNS_12basic_stringIcNS_11char_traitsIcEENS_9allocatorIcEEEEEEvE6__callB7v160006ERKS9_, symObjAddr: 0x2E40, symBinAddr: 0x1000051A0, symSize: 0x40 }
  - { offsetInCU: 0x16816, offset: 0x16816, size: 0x8, addend: 0x0, symName: __ZNKSt3__116reverse_iteratorIPNS_12basic_stringIcNS_11char_traitsIcEENS_9allocatorIcEEEEEptB7v160006Ev, symObjAddr: 0x2E80, symBinAddr: 0x1000051E0, symSize: 0x30 }
  - { offsetInCU: 0x1683C, offset: 0x1683C, size: 0x8, addend: 0x0, symName: __ZNSt3__116reverse_iteratorIPNS_12basic_stringIcNS_11char_traitsIcEENS_9allocatorIcEEEEEC2B7v160006ES7_, symObjAddr: 0x2F80, symBinAddr: 0x1000052E0, symSize: 0x30 }
  - { offsetInCU: 0x16874, offset: 0x16874, size: 0x8, addend: 0x0, symName: __ZNSt3__16vectorINS_12basic_stringIcNS_11char_traitsIcEENS_9allocatorIcEEEENS4_IS6_EEE21_ConstructTransactionD2B7v160006Ev, symObjAddr: 0x2FB0, symBinAddr: 0x100005310, symSize: 0x20 }
  - { offsetInCU: 0x1689E, offset: 0x1689E, size: 0x8, addend: 0x0, symName: __ZNSt3__128__exception_guard_exceptionsINS_6vectorINS_12basic_stringIcNS_11char_traitsIcEENS_9allocatorIcEEEENS5_IS7_EEE16__destroy_vectorEED2B7v160006Ev, symObjAddr: 0x2FD0, symBinAddr: 0x100005330, symSize: 0x40 }
  - { offsetInCU: 0x168C8, offset: 0x168C8, size: 0x8, addend: 0x0, symName: __ZNSt3__16vectorINS_12basic_stringIcNS_11char_traitsIcEENS_9allocatorIcEEEENS4_IS6_EEE16__destroy_vectorclB7v160006Ev, symObjAddr: 0x3010, symBinAddr: 0x100005370, symSize: 0x90 }
  - { offsetInCU: 0x168EE, offset: 0x168EE, size: 0x8, addend: 0x0, symName: __ZNKSt3__16vectorINS_12basic_stringIcNS_11char_traitsIcEENS_9allocatorIcEEEENS4_IS6_EEE17__annotate_deleteB7v160006Ev, symObjAddr: 0x30A0, symBinAddr: 0x100005400, symSize: 0xB0 }
  - { offsetInCU: 0x16914, offset: 0x16914, size: 0x8, addend: 0x0, symName: __ZNSt3__16vectorINS_12basic_stringIcNS_11char_traitsIcEENS_9allocatorIcEEEENS4_IS6_EEE7__clearB7v160006Ev, symObjAddr: 0x3160, symBinAddr: 0x1000054C0, symSize: 0x20 }
  - { offsetInCU: 0x1693A, offset: 0x1693A, size: 0x8, addend: 0x0, symName: __ZNSt3__116allocator_traitsINS_9allocatorINS_12basic_stringIcNS_11char_traitsIcEENS1_IcEEEEEEE10deallocateB7v160006ERS7_PS6_m, symObjAddr: 0x3180, symBinAddr: 0x1000054E0, symSize: 0x30 }
  - { offsetInCU: 0x1697C, offset: 0x1697C, size: 0x8, addend: 0x0, symName: __ZNSt3__16vectorINS_12basic_stringIcNS_11char_traitsIcEENS_9allocatorIcEEEENS4_IS6_EEE22__base_destruct_at_endB7v160006EPS6_, symObjAddr: 0x31B0, symBinAddr: 0x100005510, symSize: 0x80 }
  - { offsetInCU: 0x169C0, offset: 0x169C0, size: 0x8, addend: 0x0, symName: __ZNSt3__19allocatorINS_12basic_stringIcNS_11char_traitsIcEENS0_IcEEEEE10deallocateB7v160006EPS5_m, symObjAddr: 0x3230, symBinAddr: 0x100005590, symSize: 0x50 }
  - { offsetInCU: 0x16A02, offset: 0x16A02, size: 0x8, addend: 0x0, symName: __ZNSt3__16vectorIiNS_9allocatorIiEEEC2Em, symObjAddr: 0x3380, symBinAddr: 0x1000056E0, symSize: 0xE0 }
  - { offsetInCU: 0x16A52, offset: 0x16A52, size: 0x8, addend: 0x0, symName: __ZNSt3__117__compressed_pairIPiNS_9allocatorIiEEEC1B7v160006IDnNS_18__default_init_tagEEEOT_OT0_, symObjAddr: 0x3460, symBinAddr: 0x1000057C0, symSize: 0x30 }
  - { offsetInCU: 0x16AAA, offset: 0x16AAA, size: 0x8, addend: 0x0, symName: __ZNSt3__16vectorIiNS_9allocatorIiEEE16__destroy_vectorC1ERS3_, symObjAddr: 0x34D0, symBinAddr: 0x100005830, symSize: 0x30 }
  - { offsetInCU: 0x16AE3, offset: 0x16AE3, size: 0x8, addend: 0x0, symName: __ZNSt3__16vectorIiNS_9allocatorIiEEE11__vallocateB7v160006Em, symObjAddr: 0x3510, symBinAddr: 0x100005870, symSize: 0xA0 }
  - { offsetInCU: 0x16B27, offset: 0x16B27, size: 0x8, addend: 0x0, symName: __ZNSt3__16vectorIiNS_9allocatorIiEEE18__construct_at_endEm, symObjAddr: 0x35B0, symBinAddr: 0x100005910, symSize: 0xC0 }
  - { offsetInCU: 0x16B99, offset: 0x16B99, size: 0x8, addend: 0x0, symName: __ZNSt3__128__exception_guard_exceptionsINS_6vectorIiNS_9allocatorIiEEE16__destroy_vectorEE10__completeB7v160006Ev, symObjAddr: 0x3670, symBinAddr: 0x1000059D0, symSize: 0x20 }
  - { offsetInCU: 0x16BBF, offset: 0x16BBF, size: 0x8, addend: 0x0, symName: __ZNSt3__128__exception_guard_exceptionsINS_6vectorIiNS_9allocatorIiEEE16__destroy_vectorEED1B7v160006Ev, symObjAddr: 0x3690, symBinAddr: 0x1000059F0, symSize: 0x20 }
  - { offsetInCU: 0x16BE9, offset: 0x16BE9, size: 0x8, addend: 0x0, symName: __ZNSt3__117__compressed_pairIPiNS_9allocatorIiEEEC2B7v160006IDnNS_18__default_init_tagEEEOT_OT0_, symObjAddr: 0x36B0, symBinAddr: 0x100005A10, symSize: 0x40 }
  - { offsetInCU: 0x16C41, offset: 0x16C41, size: 0x8, addend: 0x0, symName: __ZNSt3__122__compressed_pair_elemIPiLi0ELb0EEC2B7v160006IDnvEEOT_, symObjAddr: 0x36F0, symBinAddr: 0x100005A50, symSize: 0x20 }
  - { offsetInCU: 0x16C83, offset: 0x16C83, size: 0x8, addend: 0x0, symName: __ZNSt3__122__compressed_pair_elemINS_9allocatorIiEELi1ELb1EEC2B7v160006ENS_18__default_init_tagE, symObjAddr: 0x3710, symBinAddr: 0x100005A70, symSize: 0x20 }
  - { offsetInCU: 0x16CB7, offset: 0x16CB7, size: 0x8, addend: 0x0, symName: __ZNSt3__19allocatorIiEC2B7v160006Ev, symObjAddr: 0x3730, symBinAddr: 0x100005A90, symSize: 0x20 }
  - { offsetInCU: 0x16CE1, offset: 0x16CE1, size: 0x8, addend: 0x0, symName: __ZNSt3__116__non_trivial_ifILb1ENS_9allocatorIiEEEC2B7v160006Ev, symObjAddr: 0x3750, symBinAddr: 0x100005AB0, symSize: 0x10 }
  - { offsetInCU: 0x16D0B, offset: 0x16D0B, size: 0x8, addend: 0x0, symName: __ZNSt3__128__exception_guard_exceptionsINS_6vectorIiNS_9allocatorIiEEE16__destroy_vectorEEC1B7v160006ES5_, symObjAddr: 0x3760, symBinAddr: 0x100005AC0, symSize: 0x30 }
  - { offsetInCU: 0x16D43, offset: 0x16D43, size: 0x8, addend: 0x0, symName: __ZNSt3__128__exception_guard_exceptionsINS_6vectorIiNS_9allocatorIiEEE16__destroy_vectorEEC2B7v160006ES5_, symObjAddr: 0x3790, symBinAddr: 0x100005AF0, symSize: 0x20 }
  - { offsetInCU: 0x16D7B, offset: 0x16D7B, size: 0x8, addend: 0x0, symName: __ZNSt3__16vectorIiNS_9allocatorIiEEE16__destroy_vectorC2ERS3_, symObjAddr: 0x37B0, symBinAddr: 0x100005B10, symSize: 0x20 }
  - { offsetInCU: 0x16DB4, offset: 0x16DB4, size: 0x8, addend: 0x0, symName: __ZNKSt3__16vectorIiNS_9allocatorIiEEE8max_sizeEv, symObjAddr: 0x37D0, symBinAddr: 0x100005B30, symSize: 0x60 }
  - { offsetInCU: 0x16DDC, offset: 0x16DDC, size: 0x8, addend: 0x0, symName: __ZNKSt3__16vectorIiNS_9allocatorIiEEE20__throw_length_errorB7v160006Ev, symObjAddr: 0x3830, symBinAddr: 0x100005B90, symSize: 0x20 }
  - { offsetInCU: 0x16E02, offset: 0x16E02, size: 0x8, addend: 0x0, symName: __ZNSt3__16vectorIiNS_9allocatorIiEEE7__allocB7v160006Ev, symObjAddr: 0x3890, symBinAddr: 0x100005BF0, symSize: 0x20 }
  - { offsetInCU: 0x16E28, offset: 0x16E28, size: 0x8, addend: 0x0, symName: __ZNSt3__16vectorIiNS_9allocatorIiEEE9__end_capB7v160006Ev, symObjAddr: 0x38B0, symBinAddr: 0x100005C10, symSize: 0x20 }
  - { offsetInCU: 0x16E4E, offset: 0x16E4E, size: 0x8, addend: 0x0, symName: __ZNKSt3__16vectorIiNS_9allocatorIiEEE14__annotate_newB7v160006Em, symObjAddr: 0x38D0, symBinAddr: 0x100005C30, symSize: 0xB0 }
  - { offsetInCU: 0x16E8E, offset: 0x16E8E, size: 0x8, addend: 0x0, symName: __ZNSt3__116allocator_traitsINS_9allocatorIiEEE8max_sizeB7v160006IS2_vvEEmRKS2_, symObjAddr: 0x3980, symBinAddr: 0x100005CE0, symSize: 0x20 }
  - { offsetInCU: 0x16EBA, offset: 0x16EBA, size: 0x8, addend: 0x0, symName: __ZNKSt3__16vectorIiNS_9allocatorIiEEE7__allocB7v160006Ev, symObjAddr: 0x39A0, symBinAddr: 0x100005D00, symSize: 0x20 }
  - { offsetInCU: 0x16EE0, offset: 0x16EE0, size: 0x8, addend: 0x0, symName: __ZNKSt3__117__compressed_pairIPiNS_9allocatorIiEEE6secondB7v160006Ev, symObjAddr: 0x39C0, symBinAddr: 0x100005D20, symSize: 0x20 }
  - { offsetInCU: 0x16F06, offset: 0x16F06, size: 0x8, addend: 0x0, symName: __ZNKSt3__122__compressed_pair_elemINS_9allocatorIiEELi1ELb1EE5__getB7v160006Ev, symObjAddr: 0x39E0, symBinAddr: 0x100005D40, symSize: 0x10 }
  - { offsetInCU: 0x16F2C, offset: 0x16F2C, size: 0x8, addend: 0x0, symName: __ZNSt3__19allocatorIiE17allocate_at_leastB7v160006Em, symObjAddr: 0x3A30, symBinAddr: 0x100005D90, symSize: 0x40 }
  - { offsetInCU: 0x16F60, offset: 0x16F60, size: 0x8, addend: 0x0, symName: __ZNSt3__19allocatorIiE8allocateB7v160006Em, symObjAddr: 0x3A70, symBinAddr: 0x100005DD0, symSize: 0x50 }
  - { offsetInCU: 0x16F94, offset: 0x16F94, size: 0x8, addend: 0x0, symName: __ZNSt3__117__compressed_pairIPiNS_9allocatorIiEEE6secondB7v160006Ev, symObjAddr: 0x3AC0, symBinAddr: 0x100005E20, symSize: 0x20 }
  - { offsetInCU: 0x16FBA, offset: 0x16FBA, size: 0x8, addend: 0x0, symName: __ZNSt3__122__compressed_pair_elemINS_9allocatorIiEELi1ELb1EE5__getB7v160006Ev, symObjAddr: 0x3AE0, symBinAddr: 0x100005E40, symSize: 0x10 }
  - { offsetInCU: 0x16FE0, offset: 0x16FE0, size: 0x8, addend: 0x0, symName: __ZNSt3__117__compressed_pairIPiNS_9allocatorIiEEE5firstB7v160006Ev, symObjAddr: 0x3AF0, symBinAddr: 0x100005E50, symSize: 0x20 }
  - { offsetInCU: 0x17006, offset: 0x17006, size: 0x8, addend: 0x0, symName: __ZNSt3__122__compressed_pair_elemIPiLi0ELb0EE5__getB7v160006Ev, symObjAddr: 0x3B10, symBinAddr: 0x100005E70, symSize: 0x10 }
  - { offsetInCU: 0x1702C, offset: 0x1702C, size: 0x8, addend: 0x0, symName: __ZNKSt3__16vectorIiNS_9allocatorIiEEE31__annotate_contiguous_containerB7v160006EPKvS5_S5_S5_, symObjAddr: 0x3B20, symBinAddr: 0x100005E80, symSize: 0x20 }
  - { offsetInCU: 0x17082, offset: 0x17082, size: 0x8, addend: 0x0, symName: __ZNKSt3__16vectorIiNS_9allocatorIiEEE4dataB7v160006Ev, symObjAddr: 0x3B40, symBinAddr: 0x100005EA0, symSize: 0x20 }
  - { offsetInCU: 0x170A8, offset: 0x170A8, size: 0x8, addend: 0x0, symName: __ZNKSt3__16vectorIiNS_9allocatorIiEEE8capacityB7v160006Ev, symObjAddr: 0x3B60, symBinAddr: 0x100005EC0, symSize: 0x30 }
  - { offsetInCU: 0x170CE, offset: 0x170CE, size: 0x8, addend: 0x0, symName: __ZNKSt3__16vectorIiNS_9allocatorIiEEE9__end_capB7v160006Ev, symObjAddr: 0x3BA0, symBinAddr: 0x100005F00, symSize: 0x20 }
  - { offsetInCU: 0x170F4, offset: 0x170F4, size: 0x8, addend: 0x0, symName: __ZNKSt3__117__compressed_pairIPiNS_9allocatorIiEEE5firstB7v160006Ev, symObjAddr: 0x3BC0, symBinAddr: 0x100005F20, symSize: 0x20 }
  - { offsetInCU: 0x1711A, offset: 0x1711A, size: 0x8, addend: 0x0, symName: __ZNKSt3__122__compressed_pair_elemIPiLi0ELb0EE5__getB7v160006Ev, symObjAddr: 0x3BE0, symBinAddr: 0x100005F40, symSize: 0x10 }
  - { offsetInCU: 0x1715C, offset: 0x1715C, size: 0x8, addend: 0x0, symName: __ZNSt3__16vectorIiNS_9allocatorIiEEE21_ConstructTransactionC1B7v160006ERS3_m, symObjAddr: 0x3BF0, symBinAddr: 0x100005F50, symSize: 0x30 }
  - { offsetInCU: 0x171A4, offset: 0x171A4, size: 0x8, addend: 0x0, symName: __ZNSt3__116allocator_traitsINS_9allocatorIiEEE9constructB7v160006IiJEvvEEvRS2_PT_DpOT0_, symObjAddr: 0x3C20, symBinAddr: 0x100005F80, symSize: 0x20 }
  - { offsetInCU: 0x171E4, offset: 0x171E4, size: 0x8, addend: 0x0, symName: __ZNSt3__16vectorIiNS_9allocatorIiEEE21_ConstructTransactionD1B7v160006Ev, symObjAddr: 0x3C40, symBinAddr: 0x100005FA0, symSize: 0x20 }
  - { offsetInCU: 0x1720E, offset: 0x1720E, size: 0x8, addend: 0x0, symName: __ZNSt3__16vectorIiNS_9allocatorIiEEE21_ConstructTransactionC2B7v160006ERS3_m, symObjAddr: 0x3C60, symBinAddr: 0x100005FC0, symSize: 0x40 }
  - { offsetInCU: 0x17256, offset: 0x17256, size: 0x8, addend: 0x0, symName: __ZNSt3__16vectorIiNS_9allocatorIiEEE21_ConstructTransactionD2B7v160006Ev, symObjAddr: 0x3CC0, symBinAddr: 0x100006020, symSize: 0x20 }
  - { offsetInCU: 0x17280, offset: 0x17280, size: 0x8, addend: 0x0, symName: __ZNSt3__128__exception_guard_exceptionsINS_6vectorIiNS_9allocatorIiEEE16__destroy_vectorEED2B7v160006Ev, symObjAddr: 0x3CE0, symBinAddr: 0x100006040, symSize: 0x40 }
  - { offsetInCU: 0x172AA, offset: 0x172AA, size: 0x8, addend: 0x0, symName: __ZNSt3__16vectorIiNS_9allocatorIiEEE16__destroy_vectorclB7v160006Ev, symObjAddr: 0x3D20, symBinAddr: 0x100006080, symSize: 0x90 }
  - { offsetInCU: 0x172D0, offset: 0x172D0, size: 0x8, addend: 0x0, symName: __ZNKSt3__16vectorIiNS_9allocatorIiEEE17__annotate_deleteB7v160006Ev, symObjAddr: 0x3DB0, symBinAddr: 0x100006110, symSize: 0xB0 }
  - { offsetInCU: 0x172F6, offset: 0x172F6, size: 0x8, addend: 0x0, symName: __ZNSt3__16vectorIiNS_9allocatorIiEEE7__clearB7v160006Ev, symObjAddr: 0x3E70, symBinAddr: 0x1000061D0, symSize: 0x20 }
  - { offsetInCU: 0x1731C, offset: 0x1731C, size: 0x8, addend: 0x0, symName: __ZNSt3__116allocator_traitsINS_9allocatorIiEEE10deallocateB7v160006ERS2_Pim, symObjAddr: 0x3E90, symBinAddr: 0x1000061F0, symSize: 0x30 }
  - { offsetInCU: 0x1735E, offset: 0x1735E, size: 0x8, addend: 0x0, symName: __ZNKSt3__16vectorIiNS_9allocatorIiEEE4sizeB7v160006Ev, symObjAddr: 0x3EC0, symBinAddr: 0x100006220, symSize: 0x20 }
  - { offsetInCU: 0x17384, offset: 0x17384, size: 0x8, addend: 0x0, symName: __ZNSt3__16vectorIiNS_9allocatorIiEEE22__base_destruct_at_endB7v160006EPi, symObjAddr: 0x3EE0, symBinAddr: 0x100006240, symSize: 0x80 }
  - { offsetInCU: 0x173C8, offset: 0x173C8, size: 0x8, addend: 0x0, symName: __ZNSt3__116allocator_traitsINS_9allocatorIiEEE7destroyB7v160006IivvEEvRS2_PT_, symObjAddr: 0x3F60, symBinAddr: 0x1000062C0, symSize: 0x20 }
  - { offsetInCU: 0x17403, offset: 0x17403, size: 0x8, addend: 0x0, symName: __ZNSt3__19allocatorIiE10deallocateB7v160006EPim, symObjAddr: 0x3FB0, symBinAddr: 0x100006310, symSize: 0x40 }
  - { offsetInCU: 0x17445, offset: 0x17445, size: 0x8, addend: 0x0, symName: __ZNKSt3__112basic_stringIcNS_11char_traitsIcEENS_9allocatorIcEEE4dataB7v160006Ev, symObjAddr: 0x3FF0, symBinAddr: 0x100006350, symSize: 0x30 }
  - { offsetInCU: 0x1746B, offset: 0x1746B, size: 0x8, addend: 0x0, symName: __ZNKSt3__112basic_stringIcNS_11char_traitsIcEENS_9allocatorIcEEE13__get_pointerB7v160006Ev, symObjAddr: 0x4030, symBinAddr: 0x100006390, symSize: 0x50 }
  - { offsetInCU: 0x17491, offset: 0x17491, size: 0x8, addend: 0x0, symName: __ZNKSt3__112basic_stringIcNS_11char_traitsIcEENS_9allocatorIcEEE18__get_long_pointerB7v160006Ev, symObjAddr: 0x4080, symBinAddr: 0x1000063E0, symSize: 0x20 }
  - { offsetInCU: 0x174B7, offset: 0x174B7, size: 0x8, addend: 0x0, symName: __ZNKSt3__112basic_stringIcNS_11char_traitsIcEENS_9allocatorIcEEE19__get_short_pointerB7v160006Ev, symObjAddr: 0x40A0, symBinAddr: 0x100006400, symSize: 0x30 }
  - { offsetInCU: 0x174DD, offset: 0x174DD, size: 0x8, addend: 0x0, symName: __ZNSt3__114pointer_traitsIPKcE10pointer_toB7v160006ERS1_, symObjAddr: 0x40D0, symBinAddr: 0x100006430, symSize: 0x10 }
  - { offsetInCU: 0x17511, offset: 0x17511, size: 0x8, addend: 0x0, symName: __ZNKSt3__16__lessIiiEclB7v160006ERKiS3_, symObjAddr: 0x4130, symBinAddr: 0x100006490, symSize: 0x30 }
  - { offsetInCU: 0x17553, offset: 0x17553, size: 0x8, addend: 0x0, symName: __ZNSt3__16vectorIiNS_9allocatorIiEEE4swapERS3_, symObjAddr: 0x4160, symBinAddr: 0x1000064C0, symSize: 0xA0 }
  - { offsetInCU: 0x1758A, offset: 0x1758A, size: 0x8, addend: 0x0, symName: __ZNSt3__16vectorIiNS_9allocatorIiEEED2B7v160006Ev, symObjAddr: 0x4260, symBinAddr: 0x1000065C0, symSize: 0x40 }
  - { offsetInCU: 0x175B4, offset: 0x175B4, size: 0x8, addend: 0x0, symName: __ZNSt3__16vectorI11PairOfWordsNS_9allocatorIS1_EEEC2Em, symObjAddr: 0x42A0, symBinAddr: 0x100006600, symSize: 0xE0 }
  - { offsetInCU: 0x17604, offset: 0x17604, size: 0x8, addend: 0x0, symName: __ZNSt3__117__compressed_pairIP11PairOfWordsNS_9allocatorIS1_EEEC1B7v160006IDnNS_18__default_init_tagEEEOT_OT0_, symObjAddr: 0x4380, symBinAddr: 0x1000066E0, symSize: 0x30 }
  - { offsetInCU: 0x1765C, offset: 0x1765C, size: 0x8, addend: 0x0, symName: __ZNSt3__16vectorI11PairOfWordsNS_9allocatorIS1_EEE16__destroy_vectorC1ERS4_, symObjAddr: 0x43F0, symBinAddr: 0x100006750, symSize: 0x30 }
  - { offsetInCU: 0x17695, offset: 0x17695, size: 0x8, addend: 0x0, symName: __ZNSt3__16vectorI11PairOfWordsNS_9allocatorIS1_EEE11__vallocateB7v160006Em, symObjAddr: 0x4430, symBinAddr: 0x100006790, symSize: 0xA0 }
  - { offsetInCU: 0x176D9, offset: 0x176D9, size: 0x8, addend: 0x0, symName: __ZNSt3__16vectorI11PairOfWordsNS_9allocatorIS1_EEE18__construct_at_endEm, symObjAddr: 0x44D0, symBinAddr: 0x100006830, symSize: 0xC0 }
  - { offsetInCU: 0x1774B, offset: 0x1774B, size: 0x8, addend: 0x0, symName: __ZNSt3__128__exception_guard_exceptionsINS_6vectorI11PairOfWordsNS_9allocatorIS2_EEE16__destroy_vectorEE10__completeB7v160006Ev, symObjAddr: 0x4590, symBinAddr: 0x1000068F0, symSize: 0x20 }
  - { offsetInCU: 0x17771, offset: 0x17771, size: 0x8, addend: 0x0, symName: __ZNSt3__128__exception_guard_exceptionsINS_6vectorI11PairOfWordsNS_9allocatorIS2_EEE16__destroy_vectorEED1B7v160006Ev, symObjAddr: 0x45B0, symBinAddr: 0x100006910, symSize: 0x20 }
  - { offsetInCU: 0x1779B, offset: 0x1779B, size: 0x8, addend: 0x0, symName: __ZNSt3__117__compressed_pairIP11PairOfWordsNS_9allocatorIS1_EEEC2B7v160006IDnNS_18__default_init_tagEEEOT_OT0_, symObjAddr: 0x45D0, symBinAddr: 0x100006930, symSize: 0x40 }
  - { offsetInCU: 0x177F3, offset: 0x177F3, size: 0x8, addend: 0x0, symName: __ZNSt3__122__compressed_pair_elemIP11PairOfWordsLi0ELb0EEC2B7v160006IDnvEEOT_, symObjAddr: 0x4610, symBinAddr: 0x100006970, symSize: 0x20 }
  - { offsetInCU: 0x17835, offset: 0x17835, size: 0x8, addend: 0x0, symName: __ZNSt3__122__compressed_pair_elemINS_9allocatorI11PairOfWordsEELi1ELb1EEC2B7v160006ENS_18__default_init_tagE, symObjAddr: 0x4630, symBinAddr: 0x100006990, symSize: 0x20 }
  - { offsetInCU: 0x17869, offset: 0x17869, size: 0x8, addend: 0x0, symName: __ZNSt3__19allocatorI11PairOfWordsEC2B7v160006Ev, symObjAddr: 0x4650, symBinAddr: 0x1000069B0, symSize: 0x20 }
  - { offsetInCU: 0x17893, offset: 0x17893, size: 0x8, addend: 0x0, symName: __ZNSt3__116__non_trivial_ifILb1ENS_9allocatorI11PairOfWordsEEEC2B7v160006Ev, symObjAddr: 0x4670, symBinAddr: 0x1000069D0, symSize: 0x10 }
  - { offsetInCU: 0x178BD, offset: 0x178BD, size: 0x8, addend: 0x0, symName: __ZNSt3__128__exception_guard_exceptionsINS_6vectorI11PairOfWordsNS_9allocatorIS2_EEE16__destroy_vectorEEC1B7v160006ES6_, symObjAddr: 0x4680, symBinAddr: 0x1000069E0, symSize: 0x30 }
  - { offsetInCU: 0x178F5, offset: 0x178F5, size: 0x8, addend: 0x0, symName: __ZNSt3__128__exception_guard_exceptionsINS_6vectorI11PairOfWordsNS_9allocatorIS2_EEE16__destroy_vectorEEC2B7v160006ES6_, symObjAddr: 0x46B0, symBinAddr: 0x100006A10, symSize: 0x20 }
  - { offsetInCU: 0x1792D, offset: 0x1792D, size: 0x8, addend: 0x0, symName: __ZNSt3__16vectorI11PairOfWordsNS_9allocatorIS1_EEE16__destroy_vectorC2ERS4_, symObjAddr: 0x46D0, symBinAddr: 0x100006A30, symSize: 0x20 }
  - { offsetInCU: 0x17966, offset: 0x17966, size: 0x8, addend: 0x0, symName: __ZNKSt3__16vectorI11PairOfWordsNS_9allocatorIS1_EEE8max_sizeEv, symObjAddr: 0x46F0, symBinAddr: 0x100006A50, symSize: 0x60 }
  - { offsetInCU: 0x1798E, offset: 0x1798E, size: 0x8, addend: 0x0, symName: __ZNKSt3__16vectorI11PairOfWordsNS_9allocatorIS1_EEE20__throw_length_errorB7v160006Ev, symObjAddr: 0x4750, symBinAddr: 0x100006AB0, symSize: 0x20 }
  - { offsetInCU: 0x179B4, offset: 0x179B4, size: 0x8, addend: 0x0, symName: __ZNSt3__16vectorI11PairOfWordsNS_9allocatorIS1_EEE7__allocB7v160006Ev, symObjAddr: 0x47B0, symBinAddr: 0x100006B10, symSize: 0x20 }
  - { offsetInCU: 0x179DA, offset: 0x179DA, size: 0x8, addend: 0x0, symName: __ZNSt3__16vectorI11PairOfWordsNS_9allocatorIS1_EEE9__end_capB7v160006Ev, symObjAddr: 0x47D0, symBinAddr: 0x100006B30, symSize: 0x20 }
  - { offsetInCU: 0x17A00, offset: 0x17A00, size: 0x8, addend: 0x0, symName: __ZNKSt3__16vectorI11PairOfWordsNS_9allocatorIS1_EEE14__annotate_newB7v160006Em, symObjAddr: 0x47F0, symBinAddr: 0x100006B50, symSize: 0xA0 }
  - { offsetInCU: 0x17A40, offset: 0x17A40, size: 0x8, addend: 0x0, symName: __ZNSt3__116allocator_traitsINS_9allocatorI11PairOfWordsEEE8max_sizeB7v160006IS3_vvEEmRKS3_, symObjAddr: 0x4890, symBinAddr: 0x100006BF0, symSize: 0x30 }
  - { offsetInCU: 0x17A6C, offset: 0x17A6C, size: 0x8, addend: 0x0, symName: __ZNKSt3__16vectorI11PairOfWordsNS_9allocatorIS1_EEE7__allocB7v160006Ev, symObjAddr: 0x48C0, symBinAddr: 0x100006C20, symSize: 0x20 }
  - { offsetInCU: 0x17A92, offset: 0x17A92, size: 0x8, addend: 0x0, symName: __ZNKSt3__117__compressed_pairIP11PairOfWordsNS_9allocatorIS1_EEE6secondB7v160006Ev, symObjAddr: 0x48E0, symBinAddr: 0x100006C40, symSize: 0x20 }
  - { offsetInCU: 0x17AB8, offset: 0x17AB8, size: 0x8, addend: 0x0, symName: __ZNKSt3__122__compressed_pair_elemINS_9allocatorI11PairOfWordsEELi1ELb1EE5__getB7v160006Ev, symObjAddr: 0x4900, symBinAddr: 0x100006C60, symSize: 0x10 }
  - { offsetInCU: 0x17ADE, offset: 0x17ADE, size: 0x8, addend: 0x0, symName: __ZNSt3__19allocatorI11PairOfWordsE17allocate_at_leastB7v160006Em, symObjAddr: 0x4950, symBinAddr: 0x100006CB0, symSize: 0x40 }
  - { offsetInCU: 0x17B12, offset: 0x17B12, size: 0x8, addend: 0x0, symName: __ZNSt3__19allocatorI11PairOfWordsE8allocateB7v160006Em, symObjAddr: 0x4990, symBinAddr: 0x100006CF0, symSize: 0x50 }
  - { offsetInCU: 0x17B46, offset: 0x17B46, size: 0x8, addend: 0x0, symName: __ZNSt3__117__compressed_pairIP11PairOfWordsNS_9allocatorIS1_EEE6secondB7v160006Ev, symObjAddr: 0x49E0, symBinAddr: 0x100006D40, symSize: 0x20 }
  - { offsetInCU: 0x17B6C, offset: 0x17B6C, size: 0x8, addend: 0x0, symName: __ZNSt3__122__compressed_pair_elemINS_9allocatorI11PairOfWordsEELi1ELb1EE5__getB7v160006Ev, symObjAddr: 0x4A00, symBinAddr: 0x100006D60, symSize: 0x10 }
  - { offsetInCU: 0x17B92, offset: 0x17B92, size: 0x8, addend: 0x0, symName: __ZNSt3__117__compressed_pairIP11PairOfWordsNS_9allocatorIS1_EEE5firstB7v160006Ev, symObjAddr: 0x4A10, symBinAddr: 0x100006D70, symSize: 0x20 }
  - { offsetInCU: 0x17BB8, offset: 0x17BB8, size: 0x8, addend: 0x0, symName: __ZNSt3__122__compressed_pair_elemIP11PairOfWordsLi0ELb0EE5__getB7v160006Ev, symObjAddr: 0x4A30, symBinAddr: 0x100006D90, symSize: 0x10 }
  - { offsetInCU: 0x17BDE, offset: 0x17BDE, size: 0x8, addend: 0x0, symName: __ZNKSt3__16vectorI11PairOfWordsNS_9allocatorIS1_EEE31__annotate_contiguous_containerB7v160006EPKvS6_S6_S6_, symObjAddr: 0x4A40, symBinAddr: 0x100006DA0, symSize: 0x20 }
  - { offsetInCU: 0x17C34, offset: 0x17C34, size: 0x8, addend: 0x0, symName: __ZNKSt3__16vectorI11PairOfWordsNS_9allocatorIS1_EEE4dataB7v160006Ev, symObjAddr: 0x4A60, symBinAddr: 0x100006DC0, symSize: 0x20 }
  - { offsetInCU: 0x17C5A, offset: 0x17C5A, size: 0x8, addend: 0x0, symName: __ZNKSt3__16vectorI11PairOfWordsNS_9allocatorIS1_EEE8capacityB7v160006Ev, symObjAddr: 0x4A80, symBinAddr: 0x100006DE0, symSize: 0x40 }
  - { offsetInCU: 0x17C80, offset: 0x17C80, size: 0x8, addend: 0x0, symName: __ZNKSt3__16vectorI11PairOfWordsNS_9allocatorIS1_EEE9__end_capB7v160006Ev, symObjAddr: 0x4AD0, symBinAddr: 0x100006E30, symSize: 0x20 }
  - { offsetInCU: 0x17CA6, offset: 0x17CA6, size: 0x8, addend: 0x0, symName: __ZNKSt3__117__compressed_pairIP11PairOfWordsNS_9allocatorIS1_EEE5firstB7v160006Ev, symObjAddr: 0x4AF0, symBinAddr: 0x100006E50, symSize: 0x20 }
  - { offsetInCU: 0x17CCC, offset: 0x17CCC, size: 0x8, addend: 0x0, symName: __ZNKSt3__122__compressed_pair_elemIP11PairOfWordsLi0ELb0EE5__getB7v160006Ev, symObjAddr: 0x4B10, symBinAddr: 0x100006E70, symSize: 0x10 }
  - { offsetInCU: 0x17D0E, offset: 0x17D0E, size: 0x8, addend: 0x0, symName: __ZNSt3__16vectorI11PairOfWordsNS_9allocatorIS1_EEE21_ConstructTransactionC1B7v160006ERS4_m, symObjAddr: 0x4B20, symBinAddr: 0x100006E80, symSize: 0x30 }
  - { offsetInCU: 0x17D56, offset: 0x17D56, size: 0x8, addend: 0x0, symName: __ZNSt3__116allocator_traitsINS_9allocatorI11PairOfWordsEEE9constructB7v160006IS2_JEvvEEvRS3_PT_DpOT0_, symObjAddr: 0x4B50, symBinAddr: 0x100006EB0, symSize: 0x20 }
  - { offsetInCU: 0x17D96, offset: 0x17D96, size: 0x8, addend: 0x0, symName: __ZNSt3__16vectorI11PairOfWordsNS_9allocatorIS1_EEE21_ConstructTransactionD1B7v160006Ev, symObjAddr: 0x4B70, symBinAddr: 0x100006ED0, symSize: 0x20 }
  - { offsetInCU: 0x17DC0, offset: 0x17DC0, size: 0x8, addend: 0x0, symName: __ZNSt3__16vectorI11PairOfWordsNS_9allocatorIS1_EEE21_ConstructTransactionC2B7v160006ERS4_m, symObjAddr: 0x4B90, symBinAddr: 0x100006EF0, symSize: 0x40 }
  - { offsetInCU: 0x17E08, offset: 0x17E08, size: 0x8, addend: 0x0, symName: __ZN11PairOfWordsC1Ev, symObjAddr: 0x4C10, symBinAddr: 0x100006F70, symSize: 0x20 }
  - { offsetInCU: 0x17E34, offset: 0x17E34, size: 0x8, addend: 0x0, symName: __ZN11PairOfWordsC2Ev, symObjAddr: 0x4C30, symBinAddr: 0x100006F90, symSize: 0x40 }
  - { offsetInCU: 0x17E60, offset: 0x17E60, size: 0x8, addend: 0x0, symName: __ZNSt3__16vectorI11PairOfWordsNS_9allocatorIS1_EEE21_ConstructTransactionD2B7v160006Ev, symObjAddr: 0x4C70, symBinAddr: 0x100006FD0, symSize: 0x20 }
  - { offsetInCU: 0x17E8A, offset: 0x17E8A, size: 0x8, addend: 0x0, symName: __ZNSt3__128__exception_guard_exceptionsINS_6vectorI11PairOfWordsNS_9allocatorIS2_EEE16__destroy_vectorEED2B7v160006Ev, symObjAddr: 0x4C90, symBinAddr: 0x100006FF0, symSize: 0x40 }
  - { offsetInCU: 0x17EB4, offset: 0x17EB4, size: 0x8, addend: 0x0, symName: __ZNSt3__16vectorI11PairOfWordsNS_9allocatorIS1_EEE16__destroy_vectorclB7v160006Ev, symObjAddr: 0x4CD0, symBinAddr: 0x100007030, symSize: 0x90 }
  - { offsetInCU: 0x17EDA, offset: 0x17EDA, size: 0x8, addend: 0x0, symName: __ZNKSt3__16vectorI11PairOfWordsNS_9allocatorIS1_EEE17__annotate_deleteB7v160006Ev, symObjAddr: 0x4D60, symBinAddr: 0x1000070C0, symSize: 0xB0 }
  - { offsetInCU: 0x17F00, offset: 0x17F00, size: 0x8, addend: 0x0, symName: __ZNSt3__16vectorI11PairOfWordsNS_9allocatorIS1_EEE7__clearB7v160006Ev, symObjAddr: 0x4E20, symBinAddr: 0x100007180, symSize: 0x20 }
  - { offsetInCU: 0x17F26, offset: 0x17F26, size: 0x8, addend: 0x0, symName: __ZNSt3__116allocator_traitsINS_9allocatorI11PairOfWordsEEE10deallocateB7v160006ERS3_PS2_m, symObjAddr: 0x4E40, symBinAddr: 0x1000071A0, symSize: 0x30 }
  - { offsetInCU: 0x17F68, offset: 0x17F68, size: 0x8, addend: 0x0, symName: __ZNSt3__16vectorI11PairOfWordsNS_9allocatorIS1_EEE22__base_destruct_at_endB7v160006EPS1_, symObjAddr: 0x4E70, symBinAddr: 0x1000071D0, symSize: 0x80 }
  - { offsetInCU: 0x17FAC, offset: 0x17FAC, size: 0x8, addend: 0x0, symName: __ZNSt3__116allocator_traitsINS_9allocatorI11PairOfWordsEEE7destroyB7v160006IS2_vvEEvRS3_PT_, symObjAddr: 0x4EF0, symBinAddr: 0x100007250, symSize: 0x20 }
  - { offsetInCU: 0x17FE7, offset: 0x17FE7, size: 0x8, addend: 0x0, symName: __ZNSt3__19allocatorI11PairOfWordsE10deallocateB7v160006EPS1_m, symObjAddr: 0x4F50, symBinAddr: 0x1000072B0, symSize: 0x40 }
  - { offsetInCU: 0x18029, offset: 0x18029, size: 0x8, addend: 0x0, symName: __ZNSt3__111char_traitsIcE7compareEPKcS3_m, symObjAddr: 0x4F90, symBinAddr: 0x1000072F0, symSize: 0x60 }
  - { offsetInCU: 0x18068, offset: 0x18068, size: 0x8, addend: 0x0, symName: __ZNSt3__112basic_stringIcNS_11char_traitsIcEENS_9allocatorIcEEEaSB7v160006EOS5_, symObjAddr: 0x5070, symBinAddr: 0x1000073D0, symSize: 0x30 }
  - { offsetInCU: 0x1809D, offset: 0x1809D, size: 0x8, addend: 0x0, symName: __ZNSt3__112basic_stringIcNS_11char_traitsIcEENS_9allocatorIcEEE13__move_assignB7v160006ERS5_NS_17integral_constantIbLb1EEE, symObjAddr: 0x50A0, symBinAddr: 0x100007400, symSize: 0xD0 }
  - { offsetInCU: 0x180E0, offset: 0x180E0, size: 0x8, addend: 0x0, symName: __ZNSt3__116allocator_traitsINS_9allocatorIcEEE10deallocateB7v160006ERS2_Pcm, symObjAddr: 0x5170, symBinAddr: 0x1000074D0, symSize: 0x30 }
  - { offsetInCU: 0x18122, offset: 0x18122, size: 0x8, addend: 0x0, symName: __ZNSt3__112basic_stringIcNS_11char_traitsIcEENS_9allocatorIcEEE7__allocB7v160006Ev, symObjAddr: 0x51A0, symBinAddr: 0x100007500, symSize: 0x20 }
  - { offsetInCU: 0x18148, offset: 0x18148, size: 0x8, addend: 0x0, symName: __ZNKSt3__112basic_stringIcNS_11char_traitsIcEENS_9allocatorIcEEE14__get_long_capB7v160006Ev, symObjAddr: 0x51C0, symBinAddr: 0x100007520, symSize: 0x30 }
  - { offsetInCU: 0x1816E, offset: 0x1816E, size: 0x8, addend: 0x0, symName: __ZNSt3__112basic_stringIcNS_11char_traitsIcEENS_9allocatorIcEEE19__move_assign_allocB7v160006ERS5_, symObjAddr: 0x51F0, symBinAddr: 0x100007550, symSize: 0x30 }
  - { offsetInCU: 0x181A3, offset: 0x181A3, size: 0x8, addend: 0x0, symName: __ZNSt3__112basic_stringIcNS_11char_traitsIcEENS_9allocatorIcEEE16__set_short_sizeB7v160006Em, symObjAddr: 0x5220, symBinAddr: 0x100007580, symSize: 0x50 }
  - { offsetInCU: 0x181D8, offset: 0x181D8, size: 0x8, addend: 0x0, symName: __ZNSt3__111char_traitsIcE6assignERcRKc, symObjAddr: 0x5270, symBinAddr: 0x1000075D0, symSize: 0x20 }
  - { offsetInCU: 0x18209, offset: 0x18209, size: 0x8, addend: 0x0, symName: __ZNSt3__19allocatorIcE10deallocateB7v160006EPcm, symObjAddr: 0x5290, symBinAddr: 0x1000075F0, symSize: 0x40 }
  - { offsetInCU: 0x1824B, offset: 0x1824B, size: 0x8, addend: 0x0, symName: __ZNSt3__117__compressed_pairINS_12basic_stringIcNS_11char_traitsIcEENS_9allocatorIcEEE5__repES5_E6secondB7v160006Ev, symObjAddr: 0x52D0, symBinAddr: 0x100007630, symSize: 0x20 }
  - { offsetInCU: 0x18271, offset: 0x18271, size: 0x8, addend: 0x0, symName: __ZNSt3__122__compressed_pair_elemINS_9allocatorIcEELi1ELb1EE5__getB7v160006Ev, symObjAddr: 0x52F0, symBinAddr: 0x100007650, symSize: 0x10 }
  - { offsetInCU: 0x18297, offset: 0x18297, size: 0x8, addend: 0x0, symName: __ZNSt3__112basic_stringIcNS_11char_traitsIcEENS_9allocatorIcEEE19__move_assign_allocB7v160006ERS5_NS_17integral_constantIbLb1EEE, symObjAddr: 0x5300, symBinAddr: 0x100007660, symSize: 0x30 }
  - { offsetInCU: 0x182D8, offset: 0x182D8, size: 0x8, addend: 0x0, symName: __ZN11PairOfWordsD2Ev, symObjAddr: 0x5330, symBinAddr: 0x100007690, symSize: 0x30 }
  - { offsetInCU: 0x1830A, offset: 0x1830A, size: 0x8, addend: 0x0, symName: '__ZNSt3__116_UnwrapAlgPolicyIRZ18CalculateDistancesRKNS_6vectorINS_12basic_stringIcNS_11char_traitsIcEENS_9allocatorIcEEEENS5_IS7_EEEEE3$_0E10__get_compB7v160006ESD_', symObjAddr: 0x54E0, symBinAddr: 0x100007840, symSize: 0x10 }
  - { offsetInCU: 0x18338, offset: 0x18338, size: 0x8, addend: 0x0, symName: '__ZZ18CalculateDistancesRKNSt3__16vectorINS_12basic_stringIcNS_11char_traitsIcEENS_9allocatorIcEEEENS4_IS6_EEEEENK3$_0clI11PairOfWordsSD_EEDaRT_RT0_', symObjAddr: 0x5BC0, symBinAddr: 0x100007F20, symSize: 0x70 }
  - { offsetInCU: 0x18390, offset: 0x18390, size: 0x8, addend: 0x0, symName: __ZNSt3__18_IterOpsINS_17_ClassicAlgPolicyEE9iter_swapB7v160006IRP11PairOfWordsS6_EEvOT_OT0_, symObjAddr: 0x5C30, symBinAddr: 0x100007F90, symSize: 0x30 }
  - { offsetInCU: 0x183D3, offset: 0x183D3, size: 0x8, addend: 0x0, symName: __ZN11PairOfWords3KeyEv, symObjAddr: 0x64A0, symBinAddr: 0x100008800, symSize: 0x40 }
  - { offsetInCU: 0x18409, offset: 0x18409, size: 0x8, addend: 0x0, symName: __ZNSt3__120_CmpUnspecifiedParamC1B7v160006EMS0_i, symObjAddr: 0x64E0, symBinAddr: 0x100008840, symSize: 0x30 }
  - { offsetInCU: 0x1843D, offset: 0x1843D, size: 0x8, addend: 0x0, symName: __ZNKSt3__116partial_ordering12__is_orderedB7v160006Ev, symObjAddr: 0x6510, symBinAddr: 0x100008870, symSize: 0x20 }
  - { offsetInCU: 0x18463, offset: 0x18463, size: 0x8, addend: 0x0, symName: __ZNKSt3__115strong_orderingcvNS_16partial_orderingEB7v160006Ev, symObjAddr: 0x66B0, symBinAddr: 0x100008A10, symSize: 0x80 }
  - { offsetInCU: 0x1849A, offset: 0x1849A, size: 0x8, addend: 0x0, symName: __ZNKSt3__117__synth_three_wayMUlTyTyRKT_RKT0_E_clIddEEDaS2_S5_, symObjAddr: 0x6730, symBinAddr: 0x100008A90, symSize: 0x90 }
  - { offsetInCU: 0x184EE, offset: 0x184EE, size: 0x8, addend: 0x0, symName: __ZNKSt3__117__synth_three_wayMUlTyTyRKT_RKT0_E_clINS_12basic_stringIcNS_11char_traitsIcEENS_9allocatorIcEEEESD_EEDaS2_S5_, symObjAddr: 0x6830, symBinAddr: 0x100008B90, symSize: 0x30 }
  - { offsetInCU: 0x18542, offset: 0x18542, size: 0x8, addend: 0x0, symName: __ZNKSt3__112__tuple_leafILm0ERdLb0EE3getB7v160006Ev, symObjAddr: 0x68A0, symBinAddr: 0x100008C00, symSize: 0x20 }
  - { offsetInCU: 0x18568, offset: 0x18568, size: 0x8, addend: 0x0, symName: __ZNKSt3__112basic_stringIcNS_11char_traitsIcEENS_9allocatorIcEEEcvNS_17basic_string_viewIcS2_EEB7v160006Ev, symObjAddr: 0x69B0, symBinAddr: 0x100008D10, symSize: 0x50 }
  - { offsetInCU: 0x1858E, offset: 0x1858E, size: 0x8, addend: 0x0, symName: __ZNKSt3__117basic_string_viewIcNS_11char_traitsIcEEE7compareES3_, symObjAddr: 0x6A00, symBinAddr: 0x100008D60, symSize: 0x100 }
  - { offsetInCU: 0x185E1, offset: 0x185E1, size: 0x8, addend: 0x0, symName: __ZNKSt3__117basic_string_viewIcNS_11char_traitsIcEEE4sizeB7v160006Ev, symObjAddr: 0x6B00, symBinAddr: 0x100008E60, symSize: 0x20 }
  - { offsetInCU: 0x18607, offset: 0x18607, size: 0x8, addend: 0x0, symName: __ZNKSt3__117basic_string_viewIcNS_11char_traitsIcEEE4dataB7v160006Ev, symObjAddr: 0x6B20, symBinAddr: 0x100008E80, symSize: 0x20 }
  - { offsetInCU: 0x1862D, offset: 0x1862D, size: 0x8, addend: 0x0, symName: __ZNSt3__117basic_string_viewIcNS_11char_traitsIcEEEC1B7v160006EPKcm, symObjAddr: 0x6B40, symBinAddr: 0x100008EA0, symSize: 0x30 }
  - { offsetInCU: 0x18675, offset: 0x18675, size: 0x8, addend: 0x0, symName: __ZNSt3__117basic_string_viewIcNS_11char_traitsIcEEEC2B7v160006EPKcm, symObjAddr: 0x6B70, symBinAddr: 0x100008ED0, symSize: 0x50 }
  - { offsetInCU: 0x186BD, offset: 0x186BD, size: 0x8, addend: 0x0, symName: __ZNKSt3__112__tuple_leafILm1ERNS_12basic_stringIcNS_11char_traitsIcEENS_9allocatorIcEEEELb0EE3getB7v160006Ev, symObjAddr: 0x6BC0, symBinAddr: 0x100008F20, symSize: 0x20 }
  - { offsetInCU: 0x186E3, offset: 0x186E3, size: 0x8, addend: 0x0, symName: __ZNKSt3__112__tuple_leafILm2ERNS_12basic_stringIcNS_11char_traitsIcEENS_9allocatorIcEEEELb0EE3getB7v160006Ev, symObjAddr: 0x6BE0, symBinAddr: 0x100008F40, symSize: 0x20 }
  - { offsetInCU: 0x18709, offset: 0x18709, size: 0x8, addend: 0x0, symName: __ZNSt3__15tupleIJRdRNS_12basic_stringIcNS_11char_traitsIcEENS_9allocatorIcEEEES8_EEC1B7v160006INS_4_AndELi0EEES1_S8_S8_, symObjAddr: 0x6C00, symBinAddr: 0x100008F60, symSize: 0x40 }
  - { offsetInCU: 0x1876F, offset: 0x1876F, size: 0x8, addend: 0x0, symName: __ZNSt3__15tupleIJRdRNS_12basic_stringIcNS_11char_traitsIcEENS_9allocatorIcEEEES8_EEC2B7v160006INS_4_AndELi0EEES1_S8_S8_, symObjAddr: 0x6C40, symBinAddr: 0x100008FA0, symSize: 0x40 }
  - { offsetInCU: 0x187D5, offset: 0x187D5, size: 0x8, addend: 0x0, symName: __ZNSt3__112__tuple_implINS_15__tuple_indicesIJLm0ELm1ELm2EEEEJRdRNS_12basic_stringIcNS_11char_traitsIcEENS_9allocatorIcEEEESA_EEC1B7v160006IJLm0ELm1ELm2EEJS3_SA_SA_EJEJEJS3_SA_SA_EEENS1_IJXspT_EEEENS_13__tuple_typesIJDpT0_EEENS1_IJXspT1_EEEENSE_IJDpT2_EEEDpOT3_, symObjAddr: 0x6C80, symBinAddr: 0x100008FE0, symSize: 0x40 }
  - { offsetInCU: 0x188A8, offset: 0x188A8, size: 0x8, addend: 0x0, symName: __ZNSt3__112__tuple_implINS_15__tuple_indicesIJLm0ELm1ELm2EEEEJRdRNS_12basic_stringIcNS_11char_traitsIcEENS_9allocatorIcEEEESA_EEC2B7v160006IJLm0ELm1ELm2EEJS3_SA_SA_EJEJEJS3_SA_SA_EEENS1_IJXspT_EEEENS_13__tuple_typesIJDpT0_EEENS1_IJXspT1_EEEENSE_IJDpT2_EEEDpOT3_, symObjAddr: 0x6CC0, symBinAddr: 0x100009020, symSize: 0x60 }
  - { offsetInCU: 0x1897B, offset: 0x1897B, size: 0x8, addend: 0x0, symName: __ZNSt3__112__tuple_leafILm0ERdLb0EEC2B7v160006IS1_vEEOT_, symObjAddr: 0x6D20, symBinAddr: 0x100009080, symSize: 0x20 }
  - { offsetInCU: 0x189BE, offset: 0x189BE, size: 0x8, addend: 0x0, symName: __ZNSt3__112__tuple_leafILm1ERNS_12basic_stringIcNS_11char_traitsIcEENS_9allocatorIcEEEELb0EEC2B7v160006IS7_vEEOT_, symObjAddr: 0x6D40, symBinAddr: 0x1000090A0, symSize: 0x20 }
  - { offsetInCU: 0x18A01, offset: 0x18A01, size: 0x8, addend: 0x0, symName: __ZNSt3__112__tuple_leafILm2ERNS_12basic_stringIcNS_11char_traitsIcEENS_9allocatorIcEEEELb0EEC2B7v160006IS7_vEEOT_, symObjAddr: 0x6D60, symBinAddr: 0x1000090C0, symSize: 0x20 }
  - { offsetInCU: 0x18A44, offset: 0x18A44, size: 0x8, addend: 0x0, symName: __ZNSt3__120_CmpUnspecifiedParamC2B7v160006EMS0_i, symObjAddr: 0x6D80, symBinAddr: 0x1000090E0, symSize: 0x10 }
  - { offsetInCU: 0x18A78, offset: 0x18A78, size: 0x8, addend: 0x0, symName: __ZN11PairOfWordsC1EOS_, symObjAddr: 0x6E10, symBinAddr: 0x100009170, symSize: 0x30 }
  - { offsetInCU: 0x18AAD, offset: 0x18AAD, size: 0x8, addend: 0x0, symName: __ZN11PairOfWordsC2EOS_, symObjAddr: 0x6E40, symBinAddr: 0x1000091A0, symSize: 0x50 }
  - { offsetInCU: 0x18AE2, offset: 0x18AE2, size: 0x8, addend: 0x0, symName: __ZNSt3__112basic_stringIcNS_11char_traitsIcEENS_9allocatorIcEEEC1B7v160006EOS5_, symObjAddr: 0x6E90, symBinAddr: 0x1000091F0, symSize: 0x30 }
  - { offsetInCU: 0x18B1B, offset: 0x18B1B, size: 0x8, addend: 0x0, symName: __ZNSt3__112basic_stringIcNS_11char_traitsIcEENS_9allocatorIcEEEC2B7v160006EOS5_, symObjAddr: 0x6EC0, symBinAddr: 0x100009220, symSize: 0x80 }
  - { offsetInCU: 0x18B54, offset: 0x18B54, size: 0x8, addend: 0x0, symName: __ZNSt3__18_IterOpsINS_17_ClassicAlgPolicyEE11__iter_moveB7v160006IRP11PairOfWordsEENS_9enable_ifIXsr12is_referenceIDTdeclsr3stdE7declvalIRT_EEEEE5valueEDTclsr3stdE4movedeclsr3stdE7declvalIS9_EEEEE4typeEOS8_, symObjAddr: 0x7040, symBinAddr: 0x1000093A0, symSize: 0x20 }
  - { offsetInCU: 0x18B80, offset: 0x18B80, size: 0x8, addend: 0x0, symName: __ZNSt3__18_IterOpsINS_17_ClassicAlgPolicyEE25__validate_iter_referenceB7v160006IRP11PairOfWordsEEvv, symObjAddr: 0x7060, symBinAddr: 0x1000093C0, symSize: 0x10 }
  - { offsetInCU: 0x18B9E, offset: 0x18B9E, size: 0x8, addend: 0x0, symName: __ZNSt3__18_IterOpsINS_17_ClassicAlgPolicyEE4nextB7v160006IP11PairOfWordsEET_S6_S6_, symObjAddr: 0x7070, symBinAddr: 0x1000093D0, symSize: 0x20 }
  - { offsetInCU: 0x18BD4, offset: 0x18BD4, size: 0x8, addend: 0x0, symName: __ZNSt3__118__unwrap_iter_implINS_11__wrap_iterIP11PairOfWordsEELb1EE8__unwrapB7v160006ES4_, symObjAddr: 0x79E0, symBinAddr: 0x100009D40, symSize: 0x20 }
  - { offsetInCU: 0x18C03, offset: 0x18C03, size: 0x8, addend: 0x0, symName: __ZNSt3__119__to_address_helperINS_11__wrap_iterIP11PairOfWordsEEvE6__callB7v160006ERKS4_, symObjAddr: 0x7A20, symBinAddr: 0x100009D80, symSize: 0x30 }
  - { offsetInCU: 0x18C26, offset: 0x18C26, size: 0x8, addend: 0x0, symName: __ZNSt3__114pointer_traitsINS_11__wrap_iterIP11PairOfWordsEEE10to_addressB7v160006ES4_, symObjAddr: 0x7A50, symBinAddr: 0x100009DB0, symSize: 0x30 }
  - { offsetInCU: 0x18C4A, offset: 0x18C4A, size: 0x8, addend: 0x0, symName: __ZNKSt3__111__wrap_iterIP11PairOfWordsE4baseB7v160006Ev, symObjAddr: 0x7A80, symBinAddr: 0x100009DE0, symSize: 0x20 }
  - { offsetInCU: 0x18C70, offset: 0x18C70, size: 0x8, addend: 0x0, symName: __ZNSt3__16vectorI11PairOfWordsNS_9allocatorIS1_EEE11__make_iterB7v160006EPS1_, symObjAddr: 0x7AA0, symBinAddr: 0x100009E00, symSize: 0x30 }
  - { offsetInCU: 0x18CA5, offset: 0x18CA5, size: 0x8, addend: 0x0, symName: __ZNSt3__111__wrap_iterIP11PairOfWordsEC1B7v160006EPKvS2_, symObjAddr: 0x7AD0, symBinAddr: 0x100009E30, symSize: 0x30 }
  - { offsetInCU: 0x18CEB, offset: 0x18CEB, size: 0x8, addend: 0x0, symName: __ZNSt3__111__wrap_iterIP11PairOfWordsEC2B7v160006EPKvS2_, symObjAddr: 0x7B00, symBinAddr: 0x100009E60, symSize: 0x20 }
  - { offsetInCU: 0x18D42, offset: 0x18D42, size: 0x8, addend: 0x0, symName: '__ZZ18CalculateDistancesRKNSt3__16vectorINS_12basic_stringIcNS_11char_traitsIcEENS_9allocatorIcEEEENS4_IS6_EEEEENK3$_1clI11PairOfWordsEEDaRKT_', symObjAddr: 0x7B50, symBinAddr: 0x100009EB0, symSize: 0x70 }
  - { offsetInCU: 0x18D83, offset: 0x18D83, size: 0x8, addend: 0x0, symName: __ZNKSt3__111__wrap_iterIP11PairOfWordsEdeB7v160006Ev, symObjAddr: 0x7BC0, symBinAddr: 0x100009F20, symSize: 0x20 }
  - { offsetInCU: 0x18DA9, offset: 0x18DA9, size: 0x8, addend: 0x0, symName: __ZN11PairOfWordsaSERKS_, symObjAddr: 0x7BE0, symBinAddr: 0x100009F40, symSize: 0x50 }
  - { offsetInCU: 0x18DDA, offset: 0x18DDA, size: 0x8, addend: 0x0, symName: __ZNSt3__111__wrap_iterIP11PairOfWordsEppB7v160006Ev, symObjAddr: 0x7C30, symBinAddr: 0x100009F90, symSize: 0x20 }
  - { offsetInCU: 0x18E00, offset: 0x18E00, size: 0x8, addend: 0x0, symName: __ZNSt3__16vectorI11PairOfWordsNS_9allocatorIS1_EEE8__appendEm, symObjAddr: 0x7C90, symBinAddr: 0x100009FF0, symSize: 0x100 }
  - { offsetInCU: 0x18E5B, offset: 0x18E5B, size: 0x8, addend: 0x0, symName: __ZNSt3__16vectorI11PairOfWordsNS_9allocatorIS1_EEE17__destruct_at_endB7v160006EPS1_, symObjAddr: 0x7D90, symBinAddr: 0x10000A0F0, symSize: 0x60 }
  - { offsetInCU: 0x18E9F, offset: 0x18E9F, size: 0x8, addend: 0x0, symName: __ZNKSt3__16vectorI11PairOfWordsNS_9allocatorIS1_EEE11__recommendB7v160006Em, symObjAddr: 0x7DF0, symBinAddr: 0x10000A150, symSize: 0xA0 }
  - { offsetInCU: 0x18EF4, offset: 0x18EF4, size: 0x8, addend: 0x0, symName: __ZNSt3__114__split_bufferI11PairOfWordsRNS_9allocatorIS1_EEEC1EmmS4_, symObjAddr: 0x7E90, symBinAddr: 0x10000A1F0, symSize: 0x40 }
  - { offsetInCU: 0x18F4A, offset: 0x18F4A, size: 0x8, addend: 0x0, symName: __ZNSt3__114__split_bufferI11PairOfWordsRNS_9allocatorIS1_EEE18__construct_at_endEm, symObjAddr: 0x7ED0, symBinAddr: 0x10000A230, symSize: 0xB0 }
  - { offsetInCU: 0x18F8D, offset: 0x18F8D, size: 0x8, addend: 0x0, symName: __ZNSt3__114__split_bufferI11PairOfWordsRNS_9allocatorIS1_EEED1Ev, symObjAddr: 0x80B0, symBinAddr: 0x10000A410, symSize: 0x20 }
  - { offsetInCU: 0x18FB9, offset: 0x18FB9, size: 0x8, addend: 0x0, symName: __ZNSt3__114__split_bufferI11PairOfWordsRNS_9allocatorIS1_EEEC2EmmS4_, symObjAddr: 0x80D0, symBinAddr: 0x10000A430, symSize: 0xC0 }
  - { offsetInCU: 0x1902C, offset: 0x1902C, size: 0x8, addend: 0x0, symName: __ZNSt3__117__compressed_pairIP11PairOfWordsRNS_9allocatorIS1_EEEC1B7v160006IDnS5_EEOT_OT0_, symObjAddr: 0x8190, symBinAddr: 0x10000A4F0, symSize: 0x30 }
  - { offsetInCU: 0x19084, offset: 0x19084, size: 0x8, addend: 0x0, symName: __ZNSt3__114__split_bufferI11PairOfWordsRNS_9allocatorIS1_EEE7__allocB7v160006Ev, symObjAddr: 0x81C0, symBinAddr: 0x10000A520, symSize: 0x20 }
  - { offsetInCU: 0x190AA, offset: 0x190AA, size: 0x8, addend: 0x0, symName: __ZNSt3__114__split_bufferI11PairOfWordsRNS_9allocatorIS1_EEE9__end_capB7v160006Ev, symObjAddr: 0x81E0, symBinAddr: 0x10000A540, symSize: 0x20 }
  - { offsetInCU: 0x190D0, offset: 0x190D0, size: 0x8, addend: 0x0, symName: __ZNSt3__117__compressed_pairIP11PairOfWordsRNS_9allocatorIS1_EEEC2B7v160006IDnS5_EEOT_OT0_, symObjAddr: 0x8200, symBinAddr: 0x10000A560, symSize: 0x40 }
  - { offsetInCU: 0x19128, offset: 0x19128, size: 0x8, addend: 0x0, symName: __ZNSt3__122__compressed_pair_elemIRNS_9allocatorI11PairOfWordsEELi1ELb0EEC2B7v160006IS4_vEEOT_, symObjAddr: 0x8240, symBinAddr: 0x10000A5A0, symSize: 0x20 }
  - { offsetInCU: 0x1916A, offset: 0x1916A, size: 0x8, addend: 0x0, symName: __ZNSt3__117__compressed_pairIP11PairOfWordsRNS_9allocatorIS1_EEE6secondB7v160006Ev, symObjAddr: 0x8260, symBinAddr: 0x10000A5C0, symSize: 0x20 }
  - { offsetInCU: 0x19190, offset: 0x19190, size: 0x8, addend: 0x0, symName: __ZNSt3__122__compressed_pair_elemIRNS_9allocatorI11PairOfWordsEELi1ELb0EE5__getB7v160006Ev, symObjAddr: 0x8280, symBinAddr: 0x10000A5E0, symSize: 0x20 }
  - { offsetInCU: 0x191B6, offset: 0x191B6, size: 0x8, addend: 0x0, symName: __ZNSt3__117__compressed_pairIP11PairOfWordsRNS_9allocatorIS1_EEE5firstB7v160006Ev, symObjAddr: 0x82A0, symBinAddr: 0x10000A600, symSize: 0x20 }
  - { offsetInCU: 0x191E8, offset: 0x191E8, size: 0x8, addend: 0x0, symName: __ZNSt3__114__split_bufferI11PairOfWordsRNS_9allocatorIS1_EEE21_ConstructTransactionC1B7v160006EPPS1_m, symObjAddr: 0x82C0, symBinAddr: 0x10000A620, symSize: 0x30 }
  - { offsetInCU: 0x1922E, offset: 0x1922E, size: 0x8, addend: 0x0, symName: __ZNSt3__114__split_bufferI11PairOfWordsRNS_9allocatorIS1_EEE21_ConstructTransactionD1B7v160006Ev, symObjAddr: 0x82F0, symBinAddr: 0x10000A650, symSize: 0x20 }
  - { offsetInCU: 0x19258, offset: 0x19258, size: 0x8, addend: 0x0, symName: __ZNSt3__114__split_bufferI11PairOfWordsRNS_9allocatorIS1_EEE21_ConstructTransactionC2B7v160006EPPS1_m, symObjAddr: 0x8310, symBinAddr: 0x10000A670, symSize: 0x40 }
  - { offsetInCU: 0x1929E, offset: 0x1929E, size: 0x8, addend: 0x0, symName: __ZNSt3__114__split_bufferI11PairOfWordsRNS_9allocatorIS1_EEE21_ConstructTransactionD2B7v160006Ev, symObjAddr: 0x8350, symBinAddr: 0x10000A6B0, symSize: 0x20 }
  - { offsetInCU: 0x192C8, offset: 0x192C8, size: 0x8, addend: 0x0, symName: __ZNSt3__116reverse_iteratorIP11PairOfWordsEC1B7v160006ES2_, symObjAddr: 0x84F0, symBinAddr: 0x10000A850, symSize: 0x30 }
  - { offsetInCU: 0x19300, offset: 0x19300, size: 0x8, addend: 0x0, symName: __ZNKSt3__116reverse_iteratorIP11PairOfWordsE4baseB7v160006Ev, symObjAddr: 0x8520, symBinAddr: 0x10000A880, symSize: 0x20 }
  - { offsetInCU: 0x19326, offset: 0x19326, size: 0x8, addend: 0x0, symName: __ZNSt3__129_AllocatorDestroyRangeReverseINS_9allocatorI11PairOfWordsEENS_16reverse_iteratorIPS2_EEEC1B7v160006ERS3_RS6_S9_, symObjAddr: 0x85F0, symBinAddr: 0x10000A950, symSize: 0x40 }
  - { offsetInCU: 0x1937D, offset: 0x1937D, size: 0x8, addend: 0x0, symName: __ZNSt3__116allocator_traitsINS_9allocatorI11PairOfWordsEEE9constructB7v160006IS2_JS2_EvvEEvRS3_PT_DpOT0_, symObjAddr: 0x8670, symBinAddr: 0x10000A9D0, symSize: 0x30 }
  - { offsetInCU: 0x193D2, offset: 0x193D2, size: 0x8, addend: 0x0, symName: __ZNKSt3__116reverse_iteratorIP11PairOfWordsEdeB7v160006Ev, symObjAddr: 0x86C0, symBinAddr: 0x10000AA20, symSize: 0x30 }
  - { offsetInCU: 0x19406, offset: 0x19406, size: 0x8, addend: 0x0, symName: __ZNSt3__116reverse_iteratorIP11PairOfWordsEppB7v160006Ev, symObjAddr: 0x86F0, symBinAddr: 0x10000AA50, symSize: 0x20 }
  - { offsetInCU: 0x1942C, offset: 0x1942C, size: 0x8, addend: 0x0, symName: __ZNSt3__128__exception_guard_exceptionsINS_29_AllocatorDestroyRangeReverseINS_9allocatorI11PairOfWordsEENS_16reverse_iteratorIPS3_EEEEE10__completeB7v160006Ev, symObjAddr: 0x8710, symBinAddr: 0x10000AA70, symSize: 0x20 }
  - { offsetInCU: 0x19452, offset: 0x19452, size: 0x8, addend: 0x0, symName: __ZNSt3__128__exception_guard_exceptionsINS_29_AllocatorDestroyRangeReverseINS_9allocatorI11PairOfWordsEENS_16reverse_iteratorIPS3_EEEEED1B7v160006Ev, symObjAddr: 0x8730, symBinAddr: 0x10000AA90, symSize: 0x20 }
  - { offsetInCU: 0x1947C, offset: 0x1947C, size: 0x8, addend: 0x0, symName: __ZNSt3__128__exception_guard_exceptionsINS_29_AllocatorDestroyRangeReverseINS_9allocatorI11PairOfWordsEENS_16reverse_iteratorIPS3_EEEEEC1B7v160006ES8_, symObjAddr: 0x8750, symBinAddr: 0x10000AAB0, symSize: 0x40 }
  - { offsetInCU: 0x194B4, offset: 0x194B4, size: 0x8, addend: 0x0, symName: __ZNSt3__128__exception_guard_exceptionsINS_29_AllocatorDestroyRangeReverseINS_9allocatorI11PairOfWordsEENS_16reverse_iteratorIPS3_EEEEEC2B7v160006ES8_, symObjAddr: 0x8790, symBinAddr: 0x10000AAF0, symSize: 0x30 }
  - { offsetInCU: 0x194EC, offset: 0x194EC, size: 0x8, addend: 0x0, symName: __ZNSt3__129_AllocatorDestroyRangeReverseINS_9allocatorI11PairOfWordsEENS_16reverse_iteratorIPS2_EEEC2B7v160006ERS3_RS6_S9_, symObjAddr: 0x87C0, symBinAddr: 0x10000AB20, symSize: 0x40 }
  - { offsetInCU: 0x19549, offset: 0x19549, size: 0x8, addend: 0x0, symName: __ZNSt3__119__to_address_helperINS_16reverse_iteratorIP11PairOfWordsEEvE6__callB7v160006ERKS4_, symObjAddr: 0x8840, symBinAddr: 0x10000ABA0, symSize: 0x40 }
  - { offsetInCU: 0x1956C, offset: 0x1956C, size: 0x8, addend: 0x0, symName: __ZNKSt3__116reverse_iteratorIP11PairOfWordsEptB7v160006Ev, symObjAddr: 0x8880, symBinAddr: 0x10000ABE0, symSize: 0x30 }
  - { offsetInCU: 0x19592, offset: 0x19592, size: 0x8, addend: 0x0, symName: __ZNSt3__128__exception_guard_exceptionsINS_29_AllocatorDestroyRangeReverseINS_9allocatorI11PairOfWordsEENS_16reverse_iteratorIPS3_EEEEED2B7v160006Ev, symObjAddr: 0x8970, symBinAddr: 0x10000ACD0, symSize: 0x40 }
  - { offsetInCU: 0x195BC, offset: 0x195BC, size: 0x8, addend: 0x0, symName: __ZNKSt3__129_AllocatorDestroyRangeReverseINS_9allocatorI11PairOfWordsEENS_16reverse_iteratorIPS2_EEEclB7v160006Ev, symObjAddr: 0x89B0, symBinAddr: 0x10000AD10, symSize: 0xF0 }
  - { offsetInCU: 0x195E3, offset: 0x195E3, size: 0x8, addend: 0x0, symName: __ZNSt3__116reverse_iteratorINS0_IP11PairOfWordsEEEC1B7v160006ES3_, symObjAddr: 0x8B10, symBinAddr: 0x10000AE70, symSize: 0x30 }
  - { offsetInCU: 0x1961B, offset: 0x1961B, size: 0x8, addend: 0x0, symName: __ZNSt3__116reverse_iteratorINS0_IP11PairOfWordsEEEppB7v160006Ev, symObjAddr: 0x8BB0, symBinAddr: 0x10000AF10, symSize: 0x30 }
  - { offsetInCU: 0x19641, offset: 0x19641, size: 0x8, addend: 0x0, symName: __ZNKSt3__116reverse_iteratorINS0_IP11PairOfWordsEEE4baseB7v160006Ev, symObjAddr: 0x8BE0, symBinAddr: 0x10000AF40, symSize: 0x20 }
  - { offsetInCU: 0x1966D, offset: 0x1966D, size: 0x8, addend: 0x0, symName: __ZNSt3__119__to_address_helperINS_16reverse_iteratorINS1_IP11PairOfWordsEEEEvE6__callB7v160006ERKS5_, symObjAddr: 0x8C00, symBinAddr: 0x10000AF60, symSize: 0x40 }
  - { offsetInCU: 0x19690, offset: 0x19690, size: 0x8, addend: 0x0, symName: __ZNKSt3__116reverse_iteratorINS0_IP11PairOfWordsEEEptB7v160006Ev, symObjAddr: 0x8C40, symBinAddr: 0x10000AFA0, symSize: 0x50 }
  - { offsetInCU: 0x196B6, offset: 0x196B6, size: 0x8, addend: 0x0, symName: __ZNSt3__116reverse_iteratorIP11PairOfWordsEpLB7v160006El, symObjAddr: 0x8D70, symBinAddr: 0x10000B0D0, symSize: 0x30 }
  - { offsetInCU: 0x196EA, offset: 0x196EA, size: 0x8, addend: 0x0, symName: __ZNSt3__116reverse_iteratorIP11PairOfWordsEmmB7v160006Ev, symObjAddr: 0x8DA0, symBinAddr: 0x10000B100, symSize: 0x20 }
  - { offsetInCU: 0x19710, offset: 0x19710, size: 0x8, addend: 0x0, symName: __ZNSt3__116reverse_iteratorINS0_IP11PairOfWordsEEEC2B7v160006ES3_, symObjAddr: 0x8DC0, symBinAddr: 0x10000B120, symSize: 0x40 }
  - { offsetInCU: 0x19748, offset: 0x19748, size: 0x8, addend: 0x0, symName: __ZNSt3__116reverse_iteratorIP11PairOfWordsEC2B7v160006ES2_, symObjAddr: 0x8E00, symBinAddr: 0x10000B160, symSize: 0x30 }
  - { offsetInCU: 0x19780, offset: 0x19780, size: 0x8, addend: 0x0, symName: __ZNSt3__114__split_bufferI11PairOfWordsRNS_9allocatorIS1_EEED2Ev, symObjAddr: 0x8E30, symBinAddr: 0x10000B190, symSize: 0x70 }
  - { offsetInCU: 0x197AC, offset: 0x197AC, size: 0x8, addend: 0x0, symName: __ZNSt3__114__split_bufferI11PairOfWordsRNS_9allocatorIS1_EEE5clearB7v160006Ev, symObjAddr: 0x8EA0, symBinAddr: 0x10000B200, symSize: 0x20 }
  - { offsetInCU: 0x197D2, offset: 0x197D2, size: 0x8, addend: 0x0, symName: __ZNKSt3__114__split_bufferI11PairOfWordsRNS_9allocatorIS1_EEE8capacityB7v160006Ev, symObjAddr: 0x8EC0, symBinAddr: 0x10000B220, symSize: 0x40 }
  - { offsetInCU: 0x197F8, offset: 0x197F8, size: 0x8, addend: 0x0, symName: __ZNSt3__114__split_bufferI11PairOfWordsRNS_9allocatorIS1_EEE17__destruct_at_endB7v160006EPS1_, symObjAddr: 0x8F00, symBinAddr: 0x10000B260, symSize: 0x30 }
  - { offsetInCU: 0x1982C, offset: 0x1982C, size: 0x8, addend: 0x0, symName: __ZNSt3__114__split_bufferI11PairOfWordsRNS_9allocatorIS1_EEE17__destruct_at_endB7v160006EPS1_NS_17integral_constantIbLb0EEE, symObjAddr: 0x8F30, symBinAddr: 0x10000B290, symSize: 0x80 }
  - { offsetInCU: 0x1986C, offset: 0x1986C, size: 0x8, addend: 0x0, symName: __ZNKSt3__114__split_bufferI11PairOfWordsRNS_9allocatorIS1_EEE9__end_capB7v160006Ev, symObjAddr: 0x8FB0, symBinAddr: 0x10000B310, symSize: 0x20 }
  - { offsetInCU: 0x19892, offset: 0x19892, size: 0x8, addend: 0x0, symName: __ZNKSt3__117__compressed_pairIP11PairOfWordsRNS_9allocatorIS1_EEE5firstB7v160006Ev, symObjAddr: 0x8FD0, symBinAddr: 0x10000B330, symSize: 0x20 }
  - { offsetInCU: 0x198B8, offset: 0x198B8, size: 0x8, addend: 0x0, symName: __ZNSt3__16vectorI11PairOfWordsNS_9allocatorIS1_EEE27__invalidate_iterators_pastB7v160006EPS1_, symObjAddr: 0x8FF0, symBinAddr: 0x10000B350, symSize: 0x10 }
  - { offsetInCU: 0x198EF, offset: 0x198EF, size: 0x8, addend: 0x0, symName: __ZNKSt3__16vectorI11PairOfWordsNS_9allocatorIS1_EEE17__annotate_shrinkB7v160006Em, symObjAddr: 0x9000, symBinAddr: 0x10000B360, symSize: 0xA0 }
  - { offsetInCU: 0x19924, offset: 0x19924, size: 0x8, addend: 0x0, symName: __ZNSt3__16vectorI11PairOfWordsNS_9allocatorIS1_EEE4swapERS4_, symObjAddr: 0x90A0, symBinAddr: 0x10000B400, symSize: 0xA0 }
  - { offsetInCU: 0x1995B, offset: 0x1995B, size: 0x8, addend: 0x0, symName: __ZNSt3__16vectorI11PairOfWordsNS_9allocatorIS1_EEED2B7v160006Ev, symObjAddr: 0x9160, symBinAddr: 0x10000B4C0, symSize: 0x40 }
  - { offsetInCU: 0x19985, offset: 0x19985, size: 0x8, addend: 0x0, symName: __ZNSt3__16vectorINS_12basic_stringIcNS_11char_traitsIcEENS_9allocatorIcEEEENS4_IS6_EEED2B7v160006Ev, symObjAddr: 0x91A0, symBinAddr: 0x10000B500, symSize: 0x40 }
  - { offsetInCU: 0x199D2, offset: 0x199D2, size: 0x8, addend: 0x0, symName: __ZNKSt3__113basic_ostreamIcNS_11char_traitsIcEEE6sentrycvbB7v160006Ev, symObjAddr: 0x93D0, symBinAddr: 0x10000B730, symSize: 0x20 }
  - { offsetInCU: 0x199F8, offset: 0x199F8, size: 0x8, addend: 0x0, symName: __ZNSt3__119ostreambuf_iteratorIcNS_11char_traitsIcEEEC1B7v160006ERNS_13basic_ostreamIcS2_EE, symObjAddr: 0x9610, symBinAddr: 0x10000B970, symSize: 0x30 }
  - { offsetInCU: 0x19A30, offset: 0x19A30, size: 0x8, addend: 0x0, symName: __ZNKSt3__18ios_base5flagsB7v160006Ev, symObjAddr: 0x9640, symBinAddr: 0x10000B9A0, symSize: 0x20 }
  - { offsetInCU: 0x19A58, offset: 0x19A58, size: 0x8, addend: 0x0, symName: __ZNKSt3__19basic_iosIcNS_11char_traitsIcEEE4fillB7v160006Ev, symObjAddr: 0x9660, symBinAddr: 0x10000B9C0, symSize: 0x70 }
  - { offsetInCU: 0x19A80, offset: 0x19A80, size: 0x8, addend: 0x0, symName: __ZNKSt3__119ostreambuf_iteratorIcNS_11char_traitsIcEEE6failedB7v160006Ev, symObjAddr: 0x96D0, symBinAddr: 0x10000BA30, symSize: 0x20 }
  - { offsetInCU: 0x19AA6, offset: 0x19AA6, size: 0x8, addend: 0x0, symName: __ZNSt3__19basic_iosIcNS_11char_traitsIcEEE8setstateB7v160006Ej, symObjAddr: 0x96F0, symBinAddr: 0x10000BA50, symSize: 0x30 }
  - { offsetInCU: 0x19ADB, offset: 0x19ADB, size: 0x8, addend: 0x0, symName: __ZNKSt3__18ios_base5widthB7v160006Ev, symObjAddr: 0x9720, symBinAddr: 0x10000BA80, symSize: 0x20 }
  - { offsetInCU: 0x19B03, offset: 0x19B03, size: 0x8, addend: 0x0, symName: __ZNSt3__115basic_streambufIcNS_11char_traitsIcEEE5sputnB7v160006EPKcl, symObjAddr: 0x9740, symBinAddr: 0x10000BAA0, symSize: 0x30 }
  - { offsetInCU: 0x19B45, offset: 0x19B45, size: 0x8, addend: 0x0, symName: __ZNSt3__112basic_stringIcNS_11char_traitsIcEENS_9allocatorIcEEEC1B7v160006Emc, symObjAddr: 0x9770, symBinAddr: 0x10000BAD0, symSize: 0x30 }
  - { offsetInCU: 0x19B8D, offset: 0x19B8D, size: 0x8, addend: 0x0, symName: __ZNSt3__112basic_stringIcNS_11char_traitsIcEENS_9allocatorIcEEE4dataB7v160006Ev, symObjAddr: 0x97A0, symBinAddr: 0x10000BB00, symSize: 0x30 }
  - { offsetInCU: 0x19BB3, offset: 0x19BB3, size: 0x8, addend: 0x0, symName: __ZNSt3__18ios_base5widthB7v160006El, symObjAddr: 0x97D0, symBinAddr: 0x10000BB30, symSize: 0x30 }
  - { offsetInCU: 0x19BF9, offset: 0x19BF9, size: 0x8, addend: 0x0, symName: __ZNSt3__112basic_stringIcNS_11char_traitsIcEENS_9allocatorIcEEEC2B7v160006Emc, symObjAddr: 0x9800, symBinAddr: 0x10000BB60, symSize: 0x50 }
  - { offsetInCU: 0x19C41, offset: 0x19C41, size: 0x8, addend: 0x0, symName: __ZNSt3__119ostreambuf_iteratorIcNS_11char_traitsIcEEEC2B7v160006ERNS_13basic_ostreamIcS2_EE, symObjAddr: 0x9860, symBinAddr: 0x10000BBC0, symSize: 0x50 }
  - { offsetInCU: 0x19C79, offset: 0x19C79, size: 0x8, addend: 0x0, symName: __ZNKSt3__19basic_iosIcNS_11char_traitsIcEEE5rdbufB7v160006Ev, symObjAddr: 0x98B0, symBinAddr: 0x10000BC10, symSize: 0x20 }
  - { offsetInCU: 0x19CA1, offset: 0x19CA1, size: 0x8, addend: 0x0, symName: __ZNKSt3__18ios_base5rdbufB7v160006Ev, symObjAddr: 0x98D0, symBinAddr: 0x10000BC30, symSize: 0x20 }
  - { offsetInCU: 0x19CC7, offset: 0x19CC7, size: 0x8, addend: 0x0, symName: __ZNSt3__111char_traitsIcE11eq_int_typeEii, symObjAddr: 0x98F0, symBinAddr: 0x10000BC50, symSize: 0x20 }
  - { offsetInCU: 0x19CF8, offset: 0x19CF8, size: 0x8, addend: 0x0, symName: __ZNSt3__111char_traitsIcE3eofEv, symObjAddr: 0x9910, symBinAddr: 0x10000BC70, symSize: 0x10 }
  - { offsetInCU: 0x19D0C, offset: 0x19D0C, size: 0x8, addend: 0x0, symName: __ZNKSt3__19basic_iosIcNS_11char_traitsIcEEE5widenB7v160006Ec, symObjAddr: 0x9920, symBinAddr: 0x10000BC80, symSize: 0x80 }
  - { offsetInCU: 0x19D76, offset: 0x19D76, size: 0x8, addend: 0x0, symName: __ZNKSt3__15ctypeIcE5widenB7v160006Ec, symObjAddr: 0x99D0, symBinAddr: 0x10000BD30, symSize: 0x30 }
  - { offsetInCU: 0x19DAB, offset: 0x19DAB, size: 0x8, addend: 0x0, symName: __ZNSt3__18ios_base8setstateB7v160006Ej, symObjAddr: 0x9A00, symBinAddr: 0x10000BD60, symSize: 0x30 }
  - { offsetInCU: 0x19DE2, offset: 0x19DE2, size: 0x8, addend: 0x0, symName: __ZNSt3__111char_traitsIcE6lengthEPKc, symObjAddr: 0x9A30, symBinAddr: 0x10000BD90, symSize: 0x30 }
  - { offsetInCU: 0x19E05, offset: 0x19E05, size: 0x8, addend: 0x0, symName: __ZNSt3__113unordered_setINS_12basic_stringIcNS_11char_traitsIcEENS_9allocatorIcEEEENS_4hashIS6_EENS_8equal_toIS6_EENS4_IS6_EEEC2B7v160006Ev, symObjAddr: 0x9A80, symBinAddr: 0x10000BDE0, symSize: 0x40 }
  - { offsetInCU: 0x19E2F, offset: 0x19E2F, size: 0x8, addend: 0x0, symName: __ZNSt3__112__hash_tableINS_12basic_stringIcNS_11char_traitsIcEENS_9allocatorIcEEEENS_4hashIS6_EENS_8equal_toIS6_EENS4_IS6_EEEC1Ev, symObjAddr: 0x9AC0, symBinAddr: 0x10000BE20, symSize: 0x20 }
  - { offsetInCU: 0x19E5B, offset: 0x19E5B, size: 0x8, addend: 0x0, symName: __ZNSt3__112__hash_tableINS_12basic_stringIcNS_11char_traitsIcEENS_9allocatorIcEEEENS_4hashIS6_EENS_8equal_toIS6_EENS4_IS6_EEEC2Ev, symObjAddr: 0x9AF0, symBinAddr: 0x10000BE50, symSize: 0x80 }
  - { offsetInCU: 0x19E87, offset: 0x19E87, size: 0x8, addend: 0x0, symName: __ZNSt3__110unique_ptrIA_PNS_16__hash_node_baseIPNS_11__hash_nodeINS_12basic_stringIcNS_11char_traitsIcEENS_9allocatorIcEEEEPvEEEENS_25__bucket_list_deallocatorINS6_ISD_EEEEEC1B7v160006ILb1EvEEv, symObjAddr: 0x9B70, symBinAddr: 0x10000BED0, symSize: 0x20 }
  - { offsetInCU: 0x19EBC, offset: 0x19EBC, size: 0x8, addend: 0x0, symName: __ZNSt3__117__compressed_pairINS_16__hash_node_baseIPNS_11__hash_nodeINS_12basic_stringIcNS_11char_traitsIcEENS_9allocatorIcEEEEPvEEEENS6_ISA_EEEC1B7v160006ILb1EvEEv, symObjAddr: 0x9B90, symBinAddr: 0x10000BEF0, symSize: 0x20 }
  - { offsetInCU: 0x19EF7, offset: 0x19EF7, size: 0x8, addend: 0x0, symName: __ZNSt3__117__compressed_pairImNS_4hashINS_12basic_stringIcNS_11char_traitsIcEENS_9allocatorIcEEEEEEEC1B7v160006IiNS_18__default_init_tagEEEOT_OT0_, symObjAddr: 0x9BB0, symBinAddr: 0x10000BF10, symSize: 0x30 }
  - { offsetInCU: 0x19F55, offset: 0x19F55, size: 0x8, addend: 0x0, symName: __ZNSt3__117__compressed_pairIfNS_8equal_toINS_12basic_stringIcNS_11char_traitsIcEENS_9allocatorIcEEEEEEEC1B7v160006IfNS_18__default_init_tagEEEOT_OT0_, symObjAddr: 0x9BE0, symBinAddr: 0x10000BF40, symSize: 0x30 }
  - { offsetInCU: 0x19FAD, offset: 0x19FAD, size: 0x8, addend: 0x0, symName: __ZNSt3__110unique_ptrIA_PNS_16__hash_node_baseIPNS_11__hash_nodeINS_12basic_stringIcNS_11char_traitsIcEENS_9allocatorIcEEEEPvEEEENS_25__bucket_list_deallocatorINS6_ISD_EEEEEC2B7v160006ILb1EvEEv, symObjAddr: 0x9C10, symBinAddr: 0x10000BF70, symSize: 0x30 }
  - { offsetInCU: 0x19FE8, offset: 0x19FE8, size: 0x8, addend: 0x0, symName: __ZNSt3__117__compressed_pairIPPNS_16__hash_node_baseIPNS_11__hash_nodeINS_12basic_stringIcNS_11char_traitsIcEENS_9allocatorIcEEEEPvEEEENS_25__bucket_list_deallocatorINS6_ISD_EEEEEC1B7v160006INS_16__value_init_tagESK_EEOT_OT0_, symObjAddr: 0x9C40, symBinAddr: 0x10000BFA0, symSize: 0x30 }
  - { offsetInCU: 0x1A040, offset: 0x1A040, size: 0x8, addend: 0x0, symName: __ZNSt3__117__compressed_pairIPPNS_16__hash_node_baseIPNS_11__hash_nodeINS_12basic_stringIcNS_11char_traitsIcEENS_9allocatorIcEEEEPvEEEENS_25__bucket_list_deallocatorINS6_ISD_EEEEEC2B7v160006INS_16__value_init_tagESK_EEOT_OT0_, symObjAddr: 0x9C70, symBinAddr: 0x10000BFD0, symSize: 0x40 }
  - { offsetInCU: 0x1A098, offset: 0x1A098, size: 0x8, addend: 0x0, symName: __ZNSt3__122__compressed_pair_elemIPPNS_16__hash_node_baseIPNS_11__hash_nodeINS_12basic_stringIcNS_11char_traitsIcEENS_9allocatorIcEEEEPvEEEELi0ELb0EEC2B7v160006ENS_16__value_init_tagE, symObjAddr: 0x9CB0, symBinAddr: 0x10000C010, symSize: 0x20 }
  - { offsetInCU: 0x1A0CC, offset: 0x1A0CC, size: 0x8, addend: 0x0, symName: __ZNSt3__122__compressed_pair_elemINS_25__bucket_list_deallocatorINS_9allocatorIPNS_16__hash_node_baseIPNS_11__hash_nodeINS_12basic_stringIcNS_11char_traitsIcEENS2_IcEEEEPvEEEEEEEELi1ELb0EEC2B7v160006ENS_16__value_init_tagE, symObjAddr: 0x9CD0, symBinAddr: 0x10000C030, symSize: 0x20 }
  - { offsetInCU: 0x1A100, offset: 0x1A100, size: 0x8, addend: 0x0, symName: __ZNSt3__125__bucket_list_deallocatorINS_9allocatorIPNS_16__hash_node_baseIPNS_11__hash_nodeINS_12basic_stringIcNS_11char_traitsIcEENS1_IcEEEEPvEEEEEEEC1B7v160006Ev, symObjAddr: 0x9CF0, symBinAddr: 0x10000C050, symSize: 0x20 }
  - { offsetInCU: 0x1A12A, offset: 0x1A12A, size: 0x8, addend: 0x0, symName: __ZNSt3__125__bucket_list_deallocatorINS_9allocatorIPNS_16__hash_node_baseIPNS_11__hash_nodeINS_12basic_stringIcNS_11char_traitsIcEENS1_IcEEEEPvEEEEEEEC2B7v160006Ev, symObjAddr: 0x9D10, symBinAddr: 0x10000C070, symSize: 0x40 }
  - { offsetInCU: 0x1A154, offset: 0x1A154, size: 0x8, addend: 0x0, symName: __ZNSt3__117__compressed_pairImNS_9allocatorIPNS_16__hash_node_baseIPNS_11__hash_nodeINS_12basic_stringIcNS_11char_traitsIcEENS1_IcEEEEPvEEEEEEEC1B7v160006IiNS_18__default_init_tagEEEOT_OT0_, symObjAddr: 0x9D50, symBinAddr: 0x10000C0B0, symSize: 0x30 }
  - { offsetInCU: 0x1A1AC, offset: 0x1A1AC, size: 0x8, addend: 0x0, symName: __ZNSt3__117__compressed_pairImNS_9allocatorIPNS_16__hash_node_baseIPNS_11__hash_nodeINS_12basic_stringIcNS_11char_traitsIcEENS1_IcEEEEPvEEEEEEEC2B7v160006IiNS_18__default_init_tagEEEOT_OT0_, symObjAddr: 0x9D80, symBinAddr: 0x10000C0E0, symSize: 0x40 }
  - { offsetInCU: 0x1A204, offset: 0x1A204, size: 0x8, addend: 0x0, symName: __ZNSt3__122__compressed_pair_elemImLi0ELb0EEC2B7v160006IivEEOT_, symObjAddr: 0x9DC0, symBinAddr: 0x10000C120, symSize: 0x20 }
  - { offsetInCU: 0x1A246, offset: 0x1A246, size: 0x8, addend: 0x0, symName: __ZNSt3__122__compressed_pair_elemINS_9allocatorIPNS_16__hash_node_baseIPNS_11__hash_nodeINS_12basic_stringIcNS_11char_traitsIcEENS1_IcEEEEPvEEEEEELi1ELb1EEC2B7v160006ENS_18__default_init_tagE, symObjAddr: 0x9DE0, symBinAddr: 0x10000C140, symSize: 0x20 }
  - { offsetInCU: 0x1A27A, offset: 0x1A27A, size: 0x8, addend: 0x0, symName: __ZNSt3__19allocatorIPNS_16__hash_node_baseIPNS_11__hash_nodeINS_12basic_stringIcNS_11char_traitsIcEENS0_IcEEEEPvEEEEEC2B7v160006Ev, symObjAddr: 0x9E00, symBinAddr: 0x10000C160, symSize: 0x20 }
  - { offsetInCU: 0x1A2A4, offset: 0x1A2A4, size: 0x8, addend: 0x0, symName: __ZNSt3__116__non_trivial_ifILb1ENS_9allocatorIPNS_16__hash_node_baseIPNS_11__hash_nodeINS_12basic_stringIcNS_11char_traitsIcEENS1_IcEEEEPvEEEEEEEC2B7v160006Ev, symObjAddr: 0x9E20, symBinAddr: 0x10000C180, symSize: 0x10 }
  - { offsetInCU: 0x1A2CE, offset: 0x1A2CE, size: 0x8, addend: 0x0, symName: __ZNSt3__117__compressed_pairINS_16__hash_node_baseIPNS_11__hash_nodeINS_12basic_stringIcNS_11char_traitsIcEENS_9allocatorIcEEEEPvEEEENS6_ISA_EEEC2B7v160006ILb1EvEEv, symObjAddr: 0x9E30, symBinAddr: 0x10000C190, symSize: 0x30 }
  - { offsetInCU: 0x1A303, offset: 0x1A303, size: 0x8, addend: 0x0, symName: __ZNSt3__122__compressed_pair_elemINS_16__hash_node_baseIPNS_11__hash_nodeINS_12basic_stringIcNS_11char_traitsIcEENS_9allocatorIcEEEEPvEEEELi0ELb0EEC2B7v160006ENS_16__value_init_tagE, symObjAddr: 0x9E60, symBinAddr: 0x10000C1C0, symSize: 0x20 }
  - { offsetInCU: 0x1A337, offset: 0x1A337, size: 0x8, addend: 0x0, symName: __ZNSt3__122__compressed_pair_elemINS_9allocatorINS_11__hash_nodeINS_12basic_stringIcNS_11char_traitsIcEENS1_IcEEEEPvEEEELi1ELb1EEC2B7v160006ENS_16__value_init_tagE, symObjAddr: 0x9E80, symBinAddr: 0x10000C1E0, symSize: 0x20 }
  - { offsetInCU: 0x1A36B, offset: 0x1A36B, size: 0x8, addend: 0x0, symName: __ZNSt3__116__hash_node_baseIPNS_11__hash_nodeINS_12basic_stringIcNS_11char_traitsIcEENS_9allocatorIcEEEEPvEEEC1B7v160006Ev, symObjAddr: 0x9EA0, symBinAddr: 0x10000C200, symSize: 0x20 }
  - { offsetInCU: 0x1A395, offset: 0x1A395, size: 0x8, addend: 0x0, symName: __ZNSt3__116__hash_node_baseIPNS_11__hash_nodeINS_12basic_stringIcNS_11char_traitsIcEENS_9allocatorIcEEEEPvEEEC2B7v160006Ev, symObjAddr: 0x9EC0, symBinAddr: 0x10000C220, symSize: 0x20 }
  - { offsetInCU: 0x1A3BF, offset: 0x1A3BF, size: 0x8, addend: 0x0, symName: __ZNSt3__19allocatorINS_11__hash_nodeINS_12basic_stringIcNS_11char_traitsIcEENS0_IcEEEEPvEEEC2B7v160006Ev, symObjAddr: 0x9EE0, symBinAddr: 0x10000C240, symSize: 0x20 }
  - { offsetInCU: 0x1A3E9, offset: 0x1A3E9, size: 0x8, addend: 0x0, symName: __ZNSt3__116__non_trivial_ifILb1ENS_9allocatorINS_11__hash_nodeINS_12basic_stringIcNS_11char_traitsIcEENS1_IcEEEEPvEEEEEC2B7v160006Ev, symObjAddr: 0x9F00, symBinAddr: 0x10000C260, symSize: 0x10 }
  - { offsetInCU: 0x1A413, offset: 0x1A413, size: 0x8, addend: 0x0, symName: __ZNSt3__117__compressed_pairImNS_4hashINS_12basic_stringIcNS_11char_traitsIcEENS_9allocatorIcEEEEEEEC2B7v160006IiNS_18__default_init_tagEEEOT_OT0_, symObjAddr: 0x9F10, symBinAddr: 0x10000C270, symSize: 0x40 }
  - { offsetInCU: 0x1A46B, offset: 0x1A46B, size: 0x8, addend: 0x0, symName: __ZNSt3__122__compressed_pair_elemINS_4hashINS_12basic_stringIcNS_11char_traitsIcEENS_9allocatorIcEEEEEELi1ELb1EEC2B7v160006ENS_18__default_init_tagE, symObjAddr: 0x9F50, symBinAddr: 0x10000C2B0, symSize: 0x10 }
  - { offsetInCU: 0x1A49F, offset: 0x1A49F, size: 0x8, addend: 0x0, symName: __ZNSt3__117__compressed_pairIfNS_8equal_toINS_12basic_stringIcNS_11char_traitsIcEENS_9allocatorIcEEEEEEEC2B7v160006IfNS_18__default_init_tagEEEOT_OT0_, symObjAddr: 0x9F60, symBinAddr: 0x10000C2C0, symSize: 0x40 }
  - { offsetInCU: 0x1A4F7, offset: 0x1A4F7, size: 0x8, addend: 0x0, symName: __ZNSt3__122__compressed_pair_elemIfLi0ELb0EEC2B7v160006IfvEEOT_, symObjAddr: 0x9FA0, symBinAddr: 0x10000C300, symSize: 0x20 }
  - { offsetInCU: 0x1A539, offset: 0x1A539, size: 0x8, addend: 0x0, symName: __ZNSt3__122__compressed_pair_elemINS_8equal_toINS_12basic_stringIcNS_11char_traitsIcEENS_9allocatorIcEEEEEELi1ELb1EEC2B7v160006ENS_18__default_init_tagE, symObjAddr: 0x9FC0, symBinAddr: 0x10000C320, symSize: 0x10 }
  - { offsetInCU: 0x1A56D, offset: 0x1A56D, size: 0x8, addend: 0x0, symName: __ZNSt3__113unordered_setINS_12basic_stringIcNS_11char_traitsIcEENS_9allocatorIcEEEENS_4hashIS6_EENS_8equal_toIS6_EENS4_IS6_EEED2B7v160006Ev, symObjAddr: 0x9FD0, symBinAddr: 0x10000C330, symSize: 0x20 }
  - { offsetInCU: 0x1A597, offset: 0x1A597, size: 0x8, addend: 0x0, symName: __ZNSt3__112__hash_tableINS_12basic_stringIcNS_11char_traitsIcEENS_9allocatorIcEEEENS_4hashIS6_EENS_8equal_toIS6_EENS4_IS6_EEED1Ev, symObjAddr: 0x9FF0, symBinAddr: 0x10000C350, symSize: 0x20 }
  - { offsetInCU: 0x1A5C3, offset: 0x1A5C3, size: 0x8, addend: 0x0, symName: __ZNSt3__112__hash_tableINS_12basic_stringIcNS_11char_traitsIcEENS_9allocatorIcEEEENS_4hashIS6_EENS_8equal_toIS6_EENS4_IS6_EEED2Ev, symObjAddr: 0xA010, symBinAddr: 0x10000C370, symSize: 0x50 }
  - { offsetInCU: 0x1A5EF, offset: 0x1A5EF, size: 0x8, addend: 0x0, symName: __ZNSt3__112__hash_tableINS_12basic_stringIcNS_11char_traitsIcEENS_9allocatorIcEEEENS_4hashIS6_EENS_8equal_toIS6_EENS4_IS6_EEE17__deallocate_nodeEPNS_16__hash_node_baseIPNS_11__hash_nodeIS6_PvEEEE, symObjAddr: 0xA060, symBinAddr: 0x10000C3C0, symSize: 0xA0 }
  - { offsetInCU: 0x1A659, offset: 0x1A659, size: 0x8, addend: 0x0, symName: __ZNSt3__117__compressed_pairINS_16__hash_node_baseIPNS_11__hash_nodeINS_12basic_stringIcNS_11char_traitsIcEENS_9allocatorIcEEEEPvEEEENS6_ISA_EEE5firstB7v160006Ev, symObjAddr: 0xA100, symBinAddr: 0x10000C460, symSize: 0x20 }
  - { offsetInCU: 0x1A67F, offset: 0x1A67F, size: 0x8, addend: 0x0, symName: __ZNSt3__110unique_ptrIA_PNS_16__hash_node_baseIPNS_11__hash_nodeINS_12basic_stringIcNS_11char_traitsIcEENS_9allocatorIcEEEEPvEEEENS_25__bucket_list_deallocatorINS6_ISD_EEEEED1B7v160006Ev, symObjAddr: 0xA130, symBinAddr: 0x10000C490, symSize: 0x20 }
  - { offsetInCU: 0x1A6A9, offset: 0x1A6A9, size: 0x8, addend: 0x0, symName: __ZNSt3__112__hash_tableINS_12basic_stringIcNS_11char_traitsIcEENS_9allocatorIcEEEENS_4hashIS6_EENS_8equal_toIS6_EENS4_IS6_EEE12__node_allocB7v160006Ev, symObjAddr: 0xA150, symBinAddr: 0x10000C4B0, symSize: 0x20 }
  - { offsetInCU: 0x1A6CF, offset: 0x1A6CF, size: 0x8, addend: 0x0, symName: __ZNSt3__116allocator_traitsINS_9allocatorINS_11__hash_nodeINS_12basic_stringIcNS_11char_traitsIcEENS1_IcEEEEPvEEEEE7destroyB7v160006IS7_vvEEvRSA_PT_, symObjAddr: 0xA170, symBinAddr: 0x10000C4D0, symSize: 0x20 }
  - { offsetInCU: 0x1A70A, offset: 0x1A70A, size: 0x8, addend: 0x0, symName: __ZNSt3__122__hash_key_value_typesINS_12basic_stringIcNS_11char_traitsIcEENS_9allocatorIcEEEEE9__get_ptrB7v160006ERS6_, symObjAddr: 0xA190, symBinAddr: 0x10000C4F0, symSize: 0x10 }
  - { offsetInCU: 0x1A72D, offset: 0x1A72D, size: 0x8, addend: 0x0, symName: __ZNSt3__116allocator_traitsINS_9allocatorINS_11__hash_nodeINS_12basic_stringIcNS_11char_traitsIcEENS1_IcEEEEPvEEEEE10deallocateB7v160006ERSA_PS9_m, symObjAddr: 0xA1A0, symBinAddr: 0x10000C500, symSize: 0x30 }
  - { offsetInCU: 0x1A76F, offset: 0x1A76F, size: 0x8, addend: 0x0, symName: __ZNSt3__117__compressed_pairINS_16__hash_node_baseIPNS_11__hash_nodeINS_12basic_stringIcNS_11char_traitsIcEENS_9allocatorIcEEEEPvEEEENS6_ISA_EEE6secondB7v160006Ev, symObjAddr: 0xA1D0, symBinAddr: 0x10000C530, symSize: 0x20 }
  - { offsetInCU: 0x1A795, offset: 0x1A795, size: 0x8, addend: 0x0, symName: __ZNSt3__122__compressed_pair_elemINS_9allocatorINS_11__hash_nodeINS_12basic_stringIcNS_11char_traitsIcEENS1_IcEEEEPvEEEELi1ELb1EE5__getB7v160006Ev, symObjAddr: 0xA1F0, symBinAddr: 0x10000C550, symSize: 0x10 }
  - { offsetInCU: 0x1A7BB, offset: 0x1A7BB, size: 0x8, addend: 0x0, symName: __ZNSt3__19allocatorINS_11__hash_nodeINS_12basic_stringIcNS_11char_traitsIcEENS0_IcEEEEPvEEE10deallocateB7v160006EPS8_m, symObjAddr: 0xA200, symBinAddr: 0x10000C560, symSize: 0x50 }
  - { offsetInCU: 0x1A7FD, offset: 0x1A7FD, size: 0x8, addend: 0x0, symName: __ZNSt3__122__compressed_pair_elemINS_16__hash_node_baseIPNS_11__hash_nodeINS_12basic_stringIcNS_11char_traitsIcEENS_9allocatorIcEEEEPvEEEELi0ELb0EE5__getB7v160006Ev, symObjAddr: 0xA250, symBinAddr: 0x10000C5B0, symSize: 0x10 }
  - { offsetInCU: 0x1A823, offset: 0x1A823, size: 0x8, addend: 0x0, symName: __ZNSt3__110unique_ptrIA_PNS_16__hash_node_baseIPNS_11__hash_nodeINS_12basic_stringIcNS_11char_traitsIcEENS_9allocatorIcEEEEPvEEEENS_25__bucket_list_deallocatorINS6_ISD_EEEEED2B7v160006Ev, symObjAddr: 0xA260, symBinAddr: 0x10000C5C0, symSize: 0x20 }
  - { offsetInCU: 0x1A84D, offset: 0x1A84D, size: 0x8, addend: 0x0, symName: __ZNSt3__110unique_ptrIA_PNS_16__hash_node_baseIPNS_11__hash_nodeINS_12basic_stringIcNS_11char_traitsIcEENS_9allocatorIcEEEEPvEEEENS_25__bucket_list_deallocatorINS6_ISD_EEEEE5resetB7v160006EDn, symObjAddr: 0xA280, symBinAddr: 0x10000C5E0, symSize: 0x60 }
  - { offsetInCU: 0x1A88E, offset: 0x1A88E, size: 0x8, addend: 0x0, symName: __ZNSt3__117__compressed_pairIPPNS_16__hash_node_baseIPNS_11__hash_nodeINS_12basic_stringIcNS_11char_traitsIcEENS_9allocatorIcEEEEPvEEEENS_25__bucket_list_deallocatorINS6_ISD_EEEEE5firstB7v160006Ev, symObjAddr: 0xA2E0, symBinAddr: 0x10000C640, symSize: 0x20 }
  - { offsetInCU: 0x1A8B4, offset: 0x1A8B4, size: 0x8, addend: 0x0, symName: __ZNSt3__117__compressed_pairIPPNS_16__hash_node_baseIPNS_11__hash_nodeINS_12basic_stringIcNS_11char_traitsIcEENS_9allocatorIcEEEEPvEEEENS_25__bucket_list_deallocatorINS6_ISD_EEEEE6secondB7v160006Ev, symObjAddr: 0xA300, symBinAddr: 0x10000C660, symSize: 0x20 }
  - { offsetInCU: 0x1A8DA, offset: 0x1A8DA, size: 0x8, addend: 0x0, symName: __ZNSt3__125__bucket_list_deallocatorINS_9allocatorIPNS_16__hash_node_baseIPNS_11__hash_nodeINS_12basic_stringIcNS_11char_traitsIcEENS1_IcEEEEPvEEEEEEEclB7v160006EPSD_, symObjAddr: 0xA320, symBinAddr: 0x10000C680, symSize: 0x50 }
  - { offsetInCU: 0x1A90F, offset: 0x1A90F, size: 0x8, addend: 0x0, symName: __ZNSt3__122__compressed_pair_elemIPPNS_16__hash_node_baseIPNS_11__hash_nodeINS_12basic_stringIcNS_11char_traitsIcEENS_9allocatorIcEEEEPvEEEELi0ELb0EE5__getB7v160006Ev, symObjAddr: 0xA370, symBinAddr: 0x10000C6D0, symSize: 0x10 }
  - { offsetInCU: 0x1A935, offset: 0x1A935, size: 0x8, addend: 0x0, symName: __ZNSt3__122__compressed_pair_elemINS_25__bucket_list_deallocatorINS_9allocatorIPNS_16__hash_node_baseIPNS_11__hash_nodeINS_12basic_stringIcNS_11char_traitsIcEENS2_IcEEEEPvEEEEEEEELi1ELb0EE5__getB7v160006Ev, symObjAddr: 0xA380, symBinAddr: 0x10000C6E0, symSize: 0x10 }
  - { offsetInCU: 0x1A95B, offset: 0x1A95B, size: 0x8, addend: 0x0, symName: __ZNSt3__116allocator_traitsINS_9allocatorIPNS_16__hash_node_baseIPNS_11__hash_nodeINS_12basic_stringIcNS_11char_traitsIcEENS1_IcEEEEPvEEEEEEE10deallocateB7v160006ERSE_PSD_m, symObjAddr: 0xA390, symBinAddr: 0x10000C6F0, symSize: 0x30 }
  - { offsetInCU: 0x1A99D, offset: 0x1A99D, size: 0x8, addend: 0x0, symName: __ZNSt3__125__bucket_list_deallocatorINS_9allocatorIPNS_16__hash_node_baseIPNS_11__hash_nodeINS_12basic_stringIcNS_11char_traitsIcEENS1_IcEEEEPvEEEEEEE7__allocB7v160006Ev, symObjAddr: 0xA3C0, symBinAddr: 0x10000C720, symSize: 0x20 }
  - { offsetInCU: 0x1A9C3, offset: 0x1A9C3, size: 0x8, addend: 0x0, symName: __ZNSt3__125__bucket_list_deallocatorINS_9allocatorIPNS_16__hash_node_baseIPNS_11__hash_nodeINS_12basic_stringIcNS_11char_traitsIcEENS1_IcEEEEPvEEEEEEE4sizeB7v160006Ev, symObjAddr: 0xA3E0, symBinAddr: 0x10000C740, symSize: 0x20 }
  - { offsetInCU: 0x1A9E9, offset: 0x1A9E9, size: 0x8, addend: 0x0, symName: __ZNSt3__19allocatorIPNS_16__hash_node_baseIPNS_11__hash_nodeINS_12basic_stringIcNS_11char_traitsIcEENS0_IcEEEEPvEEEEE10deallocateB7v160006EPSC_m, symObjAddr: 0xA400, symBinAddr: 0x10000C760, symSize: 0x40 }
  - { offsetInCU: 0x1AA2B, offset: 0x1AA2B, size: 0x8, addend: 0x0, symName: __ZNSt3__117__compressed_pairImNS_9allocatorIPNS_16__hash_node_baseIPNS_11__hash_nodeINS_12basic_stringIcNS_11char_traitsIcEENS1_IcEEEEPvEEEEEEE6secondB7v160006Ev, symObjAddr: 0xA440, symBinAddr: 0x10000C7A0, symSize: 0x20 }
  - { offsetInCU: 0x1AA51, offset: 0x1AA51, size: 0x8, addend: 0x0, symName: __ZNSt3__122__compressed_pair_elemINS_9allocatorIPNS_16__hash_node_baseIPNS_11__hash_nodeINS_12basic_stringIcNS_11char_traitsIcEENS1_IcEEEEPvEEEEEELi1ELb1EE5__getB7v160006Ev, symObjAddr: 0xA460, symBinAddr: 0x10000C7C0, symSize: 0x10 }
  - { offsetInCU: 0x1AA77, offset: 0x1AA77, size: 0x8, addend: 0x0, symName: __ZNSt3__117__compressed_pairImNS_9allocatorIPNS_16__hash_node_baseIPNS_11__hash_nodeINS_12basic_stringIcNS_11char_traitsIcEENS1_IcEEEEPvEEEEEEE5firstB7v160006Ev, symObjAddr: 0xA470, symBinAddr: 0x10000C7D0, symSize: 0x20 }
  - { offsetInCU: 0x1AA9D, offset: 0x1AA9D, size: 0x8, addend: 0x0, symName: __ZNSt3__122__compressed_pair_elemImLi0ELb0EE5__getB7v160006Ev, symObjAddr: 0xA490, symBinAddr: 0x10000C7F0, symSize: 0x10 }
  - { offsetInCU: 0x1AB57, offset: 0x1AB57, size: 0x8, addend: 0x0, symName: __ZNKSt3__113basic_istreamIcNS_11char_traitsIcEEE6sentrycvbB7v160006Ev, symObjAddr: 0xA4A0, symBinAddr: 0x10000C800, symSize: 0x20 }
  - { offsetInCU: 0x1AB7D, offset: 0x1AB7D, size: 0x8, addend: 0x0, symName: __ZNSt3__112basic_stringIcNS_11char_traitsIcEENS_9allocatorIcEEE5clearB7v160006Ev, symObjAddr: 0xA4C0, symBinAddr: 0x10000C820, symSize: 0xA0 }
  - { offsetInCU: 0x1ABA5, offset: 0x1ABA5, size: 0x8, addend: 0x0, symName: __ZNKSt3__112basic_stringIcNS_11char_traitsIcEENS_9allocatorIcEEE8max_sizeB7v160006Ev, symObjAddr: 0xA560, symBinAddr: 0x10000C8C0, symSize: 0xA0 }
  - { offsetInCU: 0x1ABF7, offset: 0x1ABF7, size: 0x8, addend: 0x0, symName: __ZNSt3__115basic_streambufIcNS_11char_traitsIcEEE5sgetcB7v160006Ev, symObjAddr: 0xA600, symBinAddr: 0x10000C960, symSize: 0x50 }
  - { offsetInCU: 0x1AC1D, offset: 0x1AC1D, size: 0x8, addend: 0x0, symName: __ZNSt3__111char_traitsIcE12to_char_typeEi, symObjAddr: 0xA650, symBinAddr: 0x10000C9B0, symSize: 0x10 }
  - { offsetInCU: 0x1AC40, offset: 0x1AC40, size: 0x8, addend: 0x0, symName: __ZNKSt3__15ctypeIcE2isB7v160006Ejc, symObjAddr: 0xA660, symBinAddr: 0x10000C9C0, symSize: 0x70 }
  - { offsetInCU: 0x1AC84, offset: 0x1AC84, size: 0x8, addend: 0x0, symName: __ZNSt3__115basic_streambufIcNS_11char_traitsIcEEE6sbumpcB7v160006Ev, symObjAddr: 0xA6D0, symBinAddr: 0x10000CA30, symSize: 0x60 }
  - { offsetInCU: 0x1ACAA, offset: 0x1ACAA, size: 0x8, addend: 0x0, symName: __ZNSt3__18ios_base18__setstate_nothrowB7v160006Ej, symObjAddr: 0xA730, symBinAddr: 0x10000CA90, symSize: 0x50 }
  - { offsetInCU: 0x1ACDF, offset: 0x1ACDF, size: 0x8, addend: 0x0, symName: __ZNKSt3__19basic_iosIcNS_11char_traitsIcEEE10exceptionsB7v160006Ev, symObjAddr: 0xA780, symBinAddr: 0x10000CAE0, symSize: 0x20 }
  - { offsetInCU: 0x1AD05, offset: 0x1AD05, size: 0x8, addend: 0x0, symName: __ZNSt3__112basic_stringIcNS_11char_traitsIcEENS_9allocatorIcEEE15__set_long_sizeB7v160006Em, symObjAddr: 0xA7B0, symBinAddr: 0x10000CB10, symSize: 0x30 }
  - { offsetInCU: 0x1AD45, offset: 0x1AD45, size: 0x8, addend: 0x0, symName: __ZNSt3__116allocator_traitsINS_9allocatorIcEEE8max_sizeB7v160006IS2_vvEEmRKS2_, symObjAddr: 0xA7E0, symBinAddr: 0x10000CB40, symSize: 0x20 }
  - { offsetInCU: 0x1AD71, offset: 0x1AD71, size: 0x8, addend: 0x0, symName: __ZNKSt3__112basic_stringIcNS_11char_traitsIcEENS_9allocatorIcEEE7__allocB7v160006Ev, symObjAddr: 0xA800, symBinAddr: 0x10000CB60, symSize: 0x20 }
  - { offsetInCU: 0x1AD97, offset: 0x1AD97, size: 0x8, addend: 0x0, symName: __ZNKSt3__117__compressed_pairINS_12basic_stringIcNS_11char_traitsIcEENS_9allocatorIcEEE5__repES5_E6secondB7v160006Ev, symObjAddr: 0xA820, symBinAddr: 0x10000CB80, symSize: 0x20 }
  - { offsetInCU: 0x1ADBD, offset: 0x1ADBD, size: 0x8, addend: 0x0, symName: __ZNKSt3__122__compressed_pair_elemINS_9allocatorIcEELi1ELb1EE5__getB7v160006Ev, symObjAddr: 0xA840, symBinAddr: 0x10000CBA0, symSize: 0x10 }
  - { offsetInCU: 0x1ADE3, offset: 0x1ADE3, size: 0x8, addend: 0x0, symName: __ZNSt3__111char_traitsIcE11to_int_typeEc, symObjAddr: 0xA850, symBinAddr: 0x10000CBB0, symSize: 0x10 }
  - { offsetInCU: 0x1AE05, offset: 0x1AE05, size: 0x8, addend: 0x0, symName: __Z7isasciii, symObjAddr: 0xA860, symBinAddr: 0x10000CBC0, symSize: 0x20 }
  - { offsetInCU: 0x1AE32, offset: 0x1AE32, size: 0x8, addend: 0x0, symName: __ZNKSt3__18ios_base10exceptionsB7v160006Ev, symObjAddr: 0xA880, symBinAddr: 0x10000CBE0, symSize: 0x20 }
  - { offsetInCU: 0x1AE5A, offset: 0x1AE5A, size: 0x8, addend: 0x0, symName: __ZNKSt3__19basic_iosIcNS_11char_traitsIcEEE4failB7v160006Ev, symObjAddr: 0xA8A0, symBinAddr: 0x10000CC00, symSize: 0x20 }
  - { offsetInCU: 0x1AE80, offset: 0x1AE80, size: 0x8, addend: 0x0, symName: __ZNKSt3__18ios_base4failB7v160006Ev, symObjAddr: 0xA8C0, symBinAddr: 0x10000CC20, symSize: 0x20 }
  - { offsetInCU: 0x1AEA8, offset: 0x1AEA8, size: 0x8, addend: 0x0, symName: __ZNSt3__112__hash_tableINS_12basic_stringIcNS_11char_traitsIcEENS_9allocatorIcEEEENS_4hashIS6_EENS_8equal_toIS6_EENS4_IS6_EEE15__insert_uniqueB7v160006EOS6_, symObjAddr: 0xA8E0, symBinAddr: 0x10000CC40, symSize: 0x50 }
  - { offsetInCU: 0x1AEDD, offset: 0x1AEDD, size: 0x8, addend: 0x0, symName: __ZNSt3__14pairINS_21__hash_const_iteratorIPNS_11__hash_nodeINS_12basic_stringIcNS_11char_traitsIcEENS_9allocatorIcEEEEPvEEEEbEC1B7v160006INS_15__hash_iteratorISB_EEbLS9_0EEEONS0_IT_T0_EE, symObjAddr: 0xA930, symBinAddr: 0x10000CC90, symSize: 0x30 }
  - { offsetInCU: 0x1AF34, offset: 0x1AF34, size: 0x8, addend: 0x0, symName: __ZNSt3__112__hash_tableINS_12basic_stringIcNS_11char_traitsIcEENS_9allocatorIcEEEENS_4hashIS6_EENS_8equal_toIS6_EENS4_IS6_EEE25__emplace_unique_key_argsIS6_JS6_EEENS_4pairINS_15__hash_iteratorIPNS_11__hash_nodeIS6_PvEEEEbEERKT_DpOT0_, symObjAddr: 0xA960, symBinAddr: 0x10000CCC0, symSize: 0x630 }
  - { offsetInCU: 0x1B011, offset: 0x1B011, size: 0x8, addend: 0x0, symName: __ZNSt3__122__hash_key_value_typesINS_12basic_stringIcNS_11char_traitsIcEENS_9allocatorIcEEEEE9__get_keyB7v160006ERKS6_, symObjAddr: 0xAF90, symBinAddr: 0x10000D2F0, symSize: 0x10 }
  - { offsetInCU: 0x1B034, offset: 0x1B034, size: 0x8, addend: 0x0, symName: __ZNSt3__112__hash_tableINS_12basic_stringIcNS_11char_traitsIcEENS_9allocatorIcEEEENS_4hashIS6_EENS_8equal_toIS6_EENS4_IS6_EEE13hash_functionB7v160006Ev, symObjAddr: 0xAFA0, symBinAddr: 0x10000D300, symSize: 0x20 }
  - { offsetInCU: 0x1B05A, offset: 0x1B05A, size: 0x8, addend: 0x0, symName: __ZNKSt3__113__string_hashIcNS_9allocatorIcEEEclERKNS_12basic_stringIcNS_11char_traitsIcEES2_EE, symObjAddr: 0xAFC0, symBinAddr: 0x10000D320, symSize: 0x60 }
  - { offsetInCU: 0x1B08F, offset: 0x1B08F, size: 0x8, addend: 0x0, symName: __ZNKSt3__112__hash_tableINS_12basic_stringIcNS_11char_traitsIcEENS_9allocatorIcEEEENS_4hashIS6_EENS_8equal_toIS6_EENS4_IS6_EEE12bucket_countB7v160006Ev, symObjAddr: 0xB020, symBinAddr: 0x10000D380, symSize: 0x30 }
  - { offsetInCU: 0x1B0B5, offset: 0x1B0B5, size: 0x8, addend: 0x0, symName: __ZNKSt3__110unique_ptrIA_PNS_16__hash_node_baseIPNS_11__hash_nodeINS_12basic_stringIcNS_11char_traitsIcEENS_9allocatorIcEEEEPvEEEENS_25__bucket_list_deallocatorINS6_ISD_EEEEEixB7v160006Em, symObjAddr: 0xB0D0, symBinAddr: 0x10000D430, symSize: 0x30 }
  - { offsetInCU: 0x1B0EA, offset: 0x1B0EA, size: 0x8, addend: 0x0, symName: __ZNKSt3__116__hash_node_baseIPNS_11__hash_nodeINS_12basic_stringIcNS_11char_traitsIcEENS_9allocatorIcEEEEPvEEE6__hashB7v160006Ev, symObjAddr: 0xB100, symBinAddr: 0x10000D460, symSize: 0x20 }
  - { offsetInCU: 0x1B110, offset: 0x1B110, size: 0x8, addend: 0x0, symName: __ZNSt3__112__hash_tableINS_12basic_stringIcNS_11char_traitsIcEENS_9allocatorIcEEEENS_4hashIS6_EENS_8equal_toIS6_EENS4_IS6_EEE6key_eqB7v160006Ev, symObjAddr: 0xB120, symBinAddr: 0x10000D480, symSize: 0x20 }
  - { offsetInCU: 0x1B136, offset: 0x1B136, size: 0x8, addend: 0x0, symName: __ZNKSt3__18equal_toINS_12basic_stringIcNS_11char_traitsIcEENS_9allocatorIcEEEEEclB7v160006ERKS6_S9_, symObjAddr: 0xB140, symBinAddr: 0x10000D4A0, symSize: 0x30 }
  - { offsetInCU: 0x1B17A, offset: 0x1B17A, size: 0x8, addend: 0x0, symName: __ZNSt3__112__hash_tableINS_12basic_stringIcNS_11char_traitsIcEENS_9allocatorIcEEEENS_4hashIS6_EENS_8equal_toIS6_EENS4_IS6_EEE21__construct_node_hashIS6_JEEENS_10unique_ptrINS_11__hash_nodeIS6_PvEENS_22__hash_node_destructorINS4_ISH_EEEEEEmOT_DpOT0_, symObjAddr: 0xB170, symBinAddr: 0x10000D4D0, symSize: 0x130 }
  - { offsetInCU: 0x1B1ED, offset: 0x1B1ED, size: 0x8, addend: 0x0, symName: __ZNSt3__112__hash_tableINS_12basic_stringIcNS_11char_traitsIcEENS_9allocatorIcEEEENS_4hashIS6_EENS_8equal_toIS6_EENS4_IS6_EEE4sizeB7v160006Ev, symObjAddr: 0xB2A0, symBinAddr: 0x10000D600, symSize: 0x20 }
  - { offsetInCU: 0x1B213, offset: 0x1B213, size: 0x8, addend: 0x0, symName: __ZNSt3__112__hash_tableINS_12basic_stringIcNS_11char_traitsIcEENS_9allocatorIcEEEENS_4hashIS6_EENS_8equal_toIS6_EENS4_IS6_EEE15max_load_factorB7v160006Ev, symObjAddr: 0xB2C0, symBinAddr: 0x10000D620, symSize: 0x20 }
  - { offsetInCU: 0x1B239, offset: 0x1B239, size: 0x8, addend: 0x0, symName: __ZNSt3__112__hash_tableINS_12basic_stringIcNS_11char_traitsIcEENS_9allocatorIcEEEENS_4hashIS6_EENS_8equal_toIS6_EENS4_IS6_EEE15__rehash_uniqueB7v160006Em, symObjAddr: 0xB2E0, symBinAddr: 0x10000D640, symSize: 0x30 }
  - { offsetInCU: 0x1B26D, offset: 0x1B26D, size: 0x8, addend: 0x0, symName: __Z4ceilB7v160006f, symObjAddr: 0xB350, symBinAddr: 0x10000D6B0, symSize: 0x20 }
  - { offsetInCU: 0x1B29C, offset: 0x1B29C, size: 0x8, addend: 0x0, symName: __ZNSt3__116__hash_node_baseIPNS_11__hash_nodeINS_12basic_stringIcNS_11char_traitsIcEENS_9allocatorIcEEEEPvEEE5__ptrB7v160006Ev, symObjAddr: 0xB370, symBinAddr: 0x10000D6D0, symSize: 0x20 }
  - { offsetInCU: 0x1B2C2, offset: 0x1B2C2, size: 0x8, addend: 0x0, symName: __ZNKSt3__110unique_ptrINS_11__hash_nodeINS_12basic_stringIcNS_11char_traitsIcEENS_9allocatorIcEEEEPvEENS_22__hash_node_destructorINS5_IS9_EEEEEptB7v160006Ev, symObjAddr: 0xB390, symBinAddr: 0x10000D6F0, symSize: 0x20 }
  - { offsetInCU: 0x1B2E8, offset: 0x1B2E8, size: 0x8, addend: 0x0, symName: __ZNKSt3__110unique_ptrINS_11__hash_nodeINS_12basic_stringIcNS_11char_traitsIcEENS_9allocatorIcEEEEPvEENS_22__hash_node_destructorINS5_IS9_EEEEE3getB7v160006Ev, symObjAddr: 0xB3B0, symBinAddr: 0x10000D710, symSize: 0x20 }
  - { offsetInCU: 0x1B30E, offset: 0x1B30E, size: 0x8, addend: 0x0, symName: __ZNSt3__110unique_ptrINS_11__hash_nodeINS_12basic_stringIcNS_11char_traitsIcEENS_9allocatorIcEEEEPvEENS_22__hash_node_destructorINS5_IS9_EEEEE7releaseB7v160006Ev, symObjAddr: 0xB3D0, symBinAddr: 0x10000D730, symSize: 0x40 }
  - { offsetInCU: 0x1B343, offset: 0x1B343, size: 0x8, addend: 0x0, symName: __ZNSt3__110unique_ptrINS_11__hash_nodeINS_12basic_stringIcNS_11char_traitsIcEENS_9allocatorIcEEEEPvEENS_22__hash_node_destructorINS5_IS9_EEEEED1B7v160006Ev, symObjAddr: 0xB410, symBinAddr: 0x10000D770, symSize: 0x20 }
  - { offsetInCU: 0x1B36D, offset: 0x1B36D, size: 0x8, addend: 0x0, symName: __ZNSt3__115__hash_iteratorIPNS_11__hash_nodeINS_12basic_stringIcNS_11char_traitsIcEENS_9allocatorIcEEEEPvEEEC1B7v160006EPNS_16__hash_node_baseISA_EEPKv, symObjAddr: 0xB430, symBinAddr: 0x10000D790, symSize: 0x30 }
  - { offsetInCU: 0x1B3BB, offset: 0x1B3BB, size: 0x8, addend: 0x0, symName: __ZNSt3__14pairINS_15__hash_iteratorIPNS_11__hash_nodeINS_12basic_stringIcNS_11char_traitsIcEENS_9allocatorIcEEEEPvEEEEbEC1B7v160006ISC_RbLS9_0EEEOT_OT0_, symObjAddr: 0xB460, symBinAddr: 0x10000D7C0, symSize: 0x30 }
  - { offsetInCU: 0x1B419, offset: 0x1B419, size: 0x8, addend: 0x0, symName: __ZNSt3__117__compressed_pairImNS_4hashINS_12basic_stringIcNS_11char_traitsIcEENS_9allocatorIcEEEEEEE6secondB7v160006Ev, symObjAddr: 0xB490, symBinAddr: 0x10000D7F0, symSize: 0x20 }
  - { offsetInCU: 0x1B43F, offset: 0x1B43F, size: 0x8, addend: 0x0, symName: __ZNSt3__122__compressed_pair_elemINS_4hashINS_12basic_stringIcNS_11char_traitsIcEENS_9allocatorIcEEEEEELi1ELb1EE5__getB7v160006Ev, symObjAddr: 0xB4B0, symBinAddr: 0x10000D810, symSize: 0x10 }
  - { offsetInCU: 0x1B465, offset: 0x1B465, size: 0x8, addend: 0x0, symName: __ZNSt3__121__murmur2_or_cityhashImLm64EEclEPKvm, symObjAddr: 0xB500, symBinAddr: 0x10000D860, symSize: 0x3D0 }
  - { offsetInCU: 0x1B4FE, offset: 0x1B4FE, size: 0x8, addend: 0x0, symName: __ZNSt3__121__murmur2_or_cityhashImLm64EE18__hash_len_0_to_16EPKcm, symObjAddr: 0xB8D0, symBinAddr: 0x10000DC30, symSize: 0x180 }
  - { offsetInCU: 0x1B5D7, offset: 0x1B5D7, size: 0x8, addend: 0x0, symName: __ZNSt3__121__murmur2_or_cityhashImLm64EE19__hash_len_17_to_32EPKcm, symObjAddr: 0xBA50, symBinAddr: 0x10000DDB0, symSize: 0x100 }
  - { offsetInCU: 0x1B640, offset: 0x1B640, size: 0x8, addend: 0x0, symName: __ZNSt3__121__murmur2_or_cityhashImLm64EE19__hash_len_33_to_64EPKcm, symObjAddr: 0xBB50, symBinAddr: 0x10000DEB0, symSize: 0x260 }
  - { offsetInCU: 0x1B6F2, offset: 0x1B6F2, size: 0x8, addend: 0x0, symName: __ZNSt3__121__murmur2_or_cityhashImLm64EE13__hash_len_16Emm, symObjAddr: 0xBDD0, symBinAddr: 0x10000E130, symSize: 0x90 }
  - { offsetInCU: 0x1B74D, offset: 0x1B74D, size: 0x8, addend: 0x0, symName: __ZNSt3__121__murmur2_or_cityhashImLm64EE29__weak_hash_len_32_with_seedsEPKcmm, symObjAddr: 0xBE60, symBinAddr: 0x10000E1C0, symSize: 0x90 }
  - { offsetInCU: 0x1B78C, offset: 0x1B78C, size: 0x8, addend: 0x0, symName: __ZNSt3__121__murmur2_or_cityhashImLm64EE8__rotateEmi, symObjAddr: 0xBEF0, symBinAddr: 0x10000E250, symSize: 0x50 }
  - { offsetInCU: 0x1B7BD, offset: 0x1B7BD, size: 0x8, addend: 0x0, symName: __ZNSt3__14pairImmEaSB7v160006EOS1_, symObjAddr: 0xBF40, symBinAddr: 0x10000E2A0, symSize: 0x30 }
  - { offsetInCU: 0x1B7F2, offset: 0x1B7F2, size: 0x8, addend: 0x0, symName: __ZNSt3__121__murmur2_or_cityhashImLm64EE11__shift_mixEm, symObjAddr: 0xBFB0, symBinAddr: 0x10000E310, symSize: 0x20 }
  - { offsetInCU: 0x1B815, offset: 0x1B815, size: 0x8, addend: 0x0, symName: __ZNSt3__121__murmur2_or_cityhashImLm64EE22__rotate_by_at_least_1Emi, symObjAddr: 0xBFD0, symBinAddr: 0x10000E330, symSize: 0x30 }
  - { offsetInCU: 0x1B846, offset: 0x1B846, size: 0x8, addend: 0x0, symName: __ZNSt3__121__murmur2_or_cityhashImLm64EE29__weak_hash_len_32_with_seedsEmmmmmm, symObjAddr: 0xC020, symBinAddr: 0x10000E380, symSize: 0xD0 }
  - { offsetInCU: 0x1B8C4, offset: 0x1B8C4, size: 0x8, addend: 0x0, symName: __ZNSt3__14pairImmEC1B7v160006ImmLPv0EEEOT_OT0_, symObjAddr: 0xC0F0, symBinAddr: 0x10000E450, symSize: 0x30 }
  - { offsetInCU: 0x1B922, offset: 0x1B922, size: 0x8, addend: 0x0, symName: __ZNSt3__14pairImmEC2B7v160006ImmLPv0EEEOT_OT0_, symObjAddr: 0xC120, symBinAddr: 0x10000E480, symSize: 0x30 }
  - { offsetInCU: 0x1B980, offset: 0x1B980, size: 0x8, addend: 0x0, symName: __ZNKSt3__110unique_ptrIA_PNS_16__hash_node_baseIPNS_11__hash_nodeINS_12basic_stringIcNS_11char_traitsIcEENS_9allocatorIcEEEEPvEEEENS_25__bucket_list_deallocatorINS6_ISD_EEEEE11get_deleterB7v160006Ev, symObjAddr: 0xC150, symBinAddr: 0x10000E4B0, symSize: 0x20 }
  - { offsetInCU: 0x1B9A6, offset: 0x1B9A6, size: 0x8, addend: 0x0, symName: __ZNKSt3__125__bucket_list_deallocatorINS_9allocatorIPNS_16__hash_node_baseIPNS_11__hash_nodeINS_12basic_stringIcNS_11char_traitsIcEENS1_IcEEEEPvEEEEEEE4sizeB7v160006Ev, symObjAddr: 0xC170, symBinAddr: 0x10000E4D0, symSize: 0x20 }
  - { offsetInCU: 0x1B9CC, offset: 0x1B9CC, size: 0x8, addend: 0x0, symName: __ZNKSt3__117__compressed_pairIPPNS_16__hash_node_baseIPNS_11__hash_nodeINS_12basic_stringIcNS_11char_traitsIcEENS_9allocatorIcEEEEPvEEEENS_25__bucket_list_deallocatorINS6_ISD_EEEEE6secondB7v160006Ev, symObjAddr: 0xC190, symBinAddr: 0x10000E4F0, symSize: 0x20 }
  - { offsetInCU: 0x1B9F2, offset: 0x1B9F2, size: 0x8, addend: 0x0, symName: __ZNKSt3__122__compressed_pair_elemINS_25__bucket_list_deallocatorINS_9allocatorIPNS_16__hash_node_baseIPNS_11__hash_nodeINS_12basic_stringIcNS_11char_traitsIcEENS2_IcEEEEPvEEEEEEEELi1ELb0EE5__getB7v160006Ev, symObjAddr: 0xC1B0, symBinAddr: 0x10000E510, symSize: 0x10 }
  - { offsetInCU: 0x1BA18, offset: 0x1BA18, size: 0x8, addend: 0x0, symName: __ZNKSt3__117__compressed_pairImNS_9allocatorIPNS_16__hash_node_baseIPNS_11__hash_nodeINS_12basic_stringIcNS_11char_traitsIcEENS1_IcEEEEPvEEEEEEE5firstB7v160006Ev, symObjAddr: 0xC1C0, symBinAddr: 0x10000E520, symSize: 0x20 }
  - { offsetInCU: 0x1BA3E, offset: 0x1BA3E, size: 0x8, addend: 0x0, symName: __ZNKSt3__122__compressed_pair_elemImLi0ELb0EE5__getB7v160006Ev, symObjAddr: 0xC1E0, symBinAddr: 0x10000E540, symSize: 0x10 }
  - { offsetInCU: 0x1BA64, offset: 0x1BA64, size: 0x8, addend: 0x0, symName: __ZNKSt3__117__compressed_pairIPPNS_16__hash_node_baseIPNS_11__hash_nodeINS_12basic_stringIcNS_11char_traitsIcEENS_9allocatorIcEEEEPvEEEENS_25__bucket_list_deallocatorINS6_ISD_EEEEE5firstB7v160006Ev, symObjAddr: 0xC1F0, symBinAddr: 0x10000E550, symSize: 0x20 }
  - { offsetInCU: 0x1BA8A, offset: 0x1BA8A, size: 0x8, addend: 0x0, symName: __ZNKSt3__122__compressed_pair_elemIPPNS_16__hash_node_baseIPNS_11__hash_nodeINS_12basic_stringIcNS_11char_traitsIcEENS_9allocatorIcEEEEPvEEEELi0ELb0EE5__getB7v160006Ev, symObjAddr: 0xC210, symBinAddr: 0x10000E570, symSize: 0x10 }
  - { offsetInCU: 0x1BAB0, offset: 0x1BAB0, size: 0x8, addend: 0x0, symName: __ZNSt3__117__compressed_pairIfNS_8equal_toINS_12basic_stringIcNS_11char_traitsIcEENS_9allocatorIcEEEEEEE6secondB7v160006Ev, symObjAddr: 0xC220, symBinAddr: 0x10000E580, symSize: 0x20 }
  - { offsetInCU: 0x1BAD6, offset: 0x1BAD6, size: 0x8, addend: 0x0, symName: __ZNSt3__122__compressed_pair_elemINS_8equal_toINS_12basic_stringIcNS_11char_traitsIcEENS_9allocatorIcEEEEEELi1ELb1EE5__getB7v160006Ev, symObjAddr: 0xC240, symBinAddr: 0x10000E5A0, symSize: 0x10 }
  - { offsetInCU: 0x1BAFC, offset: 0x1BAFC, size: 0x8, addend: 0x0, symName: __ZNSt3__116allocator_traitsINS_9allocatorINS_11__hash_nodeINS_12basic_stringIcNS_11char_traitsIcEENS1_IcEEEEPvEEEEE8allocateB7v160006ERSA_m, symObjAddr: 0xC250, symBinAddr: 0x10000E5B0, symSize: 0x30 }
  - { offsetInCU: 0x1BB2F, offset: 0x1BB2F, size: 0x8, addend: 0x0, symName: __ZNSt3__122__hash_node_destructorINS_9allocatorINS_11__hash_nodeINS_12basic_stringIcNS_11char_traitsIcEENS1_IcEEEEPvEEEEEC1B7v160006ERSA_b, symObjAddr: 0xC280, symBinAddr: 0x10000E5E0, symSize: 0x40 }
  - { offsetInCU: 0x1BB7D, offset: 0x1BB7D, size: 0x8, addend: 0x0, symName: __ZNSt3__110unique_ptrINS_11__hash_nodeINS_12basic_stringIcNS_11char_traitsIcEENS_9allocatorIcEEEEPvEENS_22__hash_node_destructorINS5_IS9_EEEEEC1B7v160006ILb1EvEEPS9_NS_16__dependent_typeINS_27__unique_ptr_deleter_sfinaeISC_EEXT_EE20__good_rval_ref_typeE, symObjAddr: 0xC2C0, symBinAddr: 0x10000E620, symSize: 0x30 }
  - { offsetInCU: 0x1BBCE, offset: 0x1BBCE, size: 0x8, addend: 0x0, symName: __ZNSt3__116allocator_traitsINS_9allocatorINS_11__hash_nodeINS_12basic_stringIcNS_11char_traitsIcEENS1_IcEEEEPvEEEEE9constructB7v160006IS7_JS7_EvvEEvRSA_PT_DpOT0_, symObjAddr: 0xC2F0, symBinAddr: 0x10000E650, symSize: 0x30 }
  - { offsetInCU: 0x1BC23, offset: 0x1BC23, size: 0x8, addend: 0x0, symName: __ZNSt3__110unique_ptrINS_11__hash_nodeINS_12basic_stringIcNS_11char_traitsIcEENS_9allocatorIcEEEEPvEENS_22__hash_node_destructorINS5_IS9_EEEEE11get_deleterB7v160006Ev, symObjAddr: 0xC320, symBinAddr: 0x10000E680, symSize: 0x20 }
  - { offsetInCU: 0x1BC49, offset: 0x1BC49, size: 0x8, addend: 0x0, symName: __ZNSt3__19allocatorINS_11__hash_nodeINS_12basic_stringIcNS_11char_traitsIcEENS0_IcEEEEPvEEE8allocateB7v160006Em, symObjAddr: 0xC340, symBinAddr: 0x10000E6A0, symSize: 0x50 }
  - { offsetInCU: 0x1BC88, offset: 0x1BC88, size: 0x8, addend: 0x0, symName: __ZNSt3__116allocator_traitsINS_9allocatorINS_11__hash_nodeINS_12basic_stringIcNS_11char_traitsIcEENS1_IcEEEEPvEEEEE8max_sizeB7v160006ISA_vvEEmRKSA_, symObjAddr: 0xC390, symBinAddr: 0x10000E6F0, symSize: 0x30 }
  - { offsetInCU: 0x1BCB4, offset: 0x1BCB4, size: 0x8, addend: 0x0, symName: __ZNSt3__122__hash_node_destructorINS_9allocatorINS_11__hash_nodeINS_12basic_stringIcNS_11char_traitsIcEENS1_IcEEEEPvEEEEEC2B7v160006ERSA_b, symObjAddr: 0xC3C0, symBinAddr: 0x10000E720, symSize: 0x30 }
  - { offsetInCU: 0x1BCFC, offset: 0x1BCFC, size: 0x8, addend: 0x0, symName: __ZNSt3__110unique_ptrINS_11__hash_nodeINS_12basic_stringIcNS_11char_traitsIcEENS_9allocatorIcEEEEPvEENS_22__hash_node_destructorINS5_IS9_EEEEEC2B7v160006ILb1EvEEPS9_NS_16__dependent_typeINS_27__unique_ptr_deleter_sfinaeISC_EEXT_EE20__good_rval_ref_typeE, symObjAddr: 0xC3F0, symBinAddr: 0x10000E750, symSize: 0x40 }
  - { offsetInCU: 0x1BD4D, offset: 0x1BD4D, size: 0x8, addend: 0x0, symName: __ZNSt3__117__compressed_pairIPNS_11__hash_nodeINS_12basic_stringIcNS_11char_traitsIcEENS_9allocatorIcEEEEPvEENS_22__hash_node_destructorINS5_IS9_EEEEEC1B7v160006IRSA_SD_EEOT_OT0_, symObjAddr: 0xC430, symBinAddr: 0x10000E790, symSize: 0x30 }
  - { offsetInCU: 0x1BDA5, offset: 0x1BDA5, size: 0x8, addend: 0x0, symName: __ZNSt3__117__compressed_pairIPNS_11__hash_nodeINS_12basic_stringIcNS_11char_traitsIcEENS_9allocatorIcEEEEPvEENS_22__hash_node_destructorINS5_IS9_EEEEEC2B7v160006IRSA_SD_EEOT_OT0_, symObjAddr: 0xC460, symBinAddr: 0x10000E7C0, symSize: 0x40 }
  - { offsetInCU: 0x1BDFD, offset: 0x1BDFD, size: 0x8, addend: 0x0, symName: __ZNSt3__122__compressed_pair_elemIPNS_11__hash_nodeINS_12basic_stringIcNS_11char_traitsIcEENS_9allocatorIcEEEEPvEELi0ELb0EEC2B7v160006IRSA_vEEOT_, symObjAddr: 0xC4A0, symBinAddr: 0x10000E800, symSize: 0x20 }
  - { offsetInCU: 0x1BE3F, offset: 0x1BE3F, size: 0x8, addend: 0x0, symName: __ZNSt3__122__compressed_pair_elemINS_22__hash_node_destructorINS_9allocatorINS_11__hash_nodeINS_12basic_stringIcNS_11char_traitsIcEENS2_IcEEEEPvEEEEEELi1ELb0EEC2B7v160006ISC_vEEOT_, symObjAddr: 0xC4C0, symBinAddr: 0x10000E820, symSize: 0x30 }
  - { offsetInCU: 0x1BE81, offset: 0x1BE81, size: 0x8, addend: 0x0, symName: __ZNSt3__117__compressed_pairIPNS_11__hash_nodeINS_12basic_stringIcNS_11char_traitsIcEENS_9allocatorIcEEEEPvEENS_22__hash_node_destructorINS5_IS9_EEEEE6secondB7v160006Ev, symObjAddr: 0xC530, symBinAddr: 0x10000E890, symSize: 0x20 }
  - { offsetInCU: 0x1BEA7, offset: 0x1BEA7, size: 0x8, addend: 0x0, symName: __ZNSt3__122__compressed_pair_elemINS_22__hash_node_destructorINS_9allocatorINS_11__hash_nodeINS_12basic_stringIcNS_11char_traitsIcEENS2_IcEEEEPvEEEEEELi1ELb0EE5__getB7v160006Ev, symObjAddr: 0xC550, symBinAddr: 0x10000E8B0, symSize: 0x10 }
  - { offsetInCU: 0x1BECD, offset: 0x1BECD, size: 0x8, addend: 0x0, symName: __ZNSt3__117__compressed_pairImNS_4hashINS_12basic_stringIcNS_11char_traitsIcEENS_9allocatorIcEEEEEEE5firstB7v160006Ev, symObjAddr: 0xC560, symBinAddr: 0x10000E8C0, symSize: 0x20 }
  - { offsetInCU: 0x1BEF3, offset: 0x1BEF3, size: 0x8, addend: 0x0, symName: __ZNSt3__117__compressed_pairIfNS_8equal_toINS_12basic_stringIcNS_11char_traitsIcEENS_9allocatorIcEEEEEEE5firstB7v160006Ev, symObjAddr: 0xC580, symBinAddr: 0x10000E8E0, symSize: 0x20 }
  - { offsetInCU: 0x1BF19, offset: 0x1BF19, size: 0x8, addend: 0x0, symName: __ZNSt3__122__compressed_pair_elemIfLi0ELb0EE5__getB7v160006Ev, symObjAddr: 0xC5A0, symBinAddr: 0x10000E900, symSize: 0x10 }
  - { offsetInCU: 0x1BF3F, offset: 0x1BF3F, size: 0x8, addend: 0x0, symName: __ZNSt3__112__hash_tableINS_12basic_stringIcNS_11char_traitsIcEENS_9allocatorIcEEEENS_4hashIS6_EENS_8equal_toIS6_EENS4_IS6_EEE8__rehashILb1EEEvm, symObjAddr: 0xC5B0, symBinAddr: 0x10000E910, symSize: 0x230 }
  - { offsetInCU: 0x1BF8F, offset: 0x1BF8F, size: 0x8, addend: 0x0, symName: __ZNSt3__112__hash_tableINS_12basic_stringIcNS_11char_traitsIcEENS_9allocatorIcEEEENS_4hashIS6_EENS_8equal_toIS6_EENS4_IS6_EEE11__do_rehashILb1EEEvm, symObjAddr: 0xC7E0, symBinAddr: 0x10000EB40, symSize: 0x260 }
  - { offsetInCU: 0x1C072, offset: 0x1C072, size: 0x8, addend: 0x0, symName: __ZNSt3__110unique_ptrIA_PNS_16__hash_node_baseIPNS_11__hash_nodeINS_12basic_stringIcNS_11char_traitsIcEENS_9allocatorIcEEEEPvEEEENS_25__bucket_list_deallocatorINS6_ISD_EEEEE11get_deleterB7v160006Ev, symObjAddr: 0xCAB0, symBinAddr: 0x10000EE10, symSize: 0x20 }
  - { offsetInCU: 0x1C098, offset: 0x1C098, size: 0x8, addend: 0x0, symName: __ZNSt3__110unique_ptrIA_PNS_16__hash_node_baseIPNS_11__hash_nodeINS_12basic_stringIcNS_11char_traitsIcEENS_9allocatorIcEEEEPvEEEENS_25__bucket_list_deallocatorINS6_ISD_EEEEE5resetB7v160006IPSD_EENS_9enable_ifIXsr28_CheckArrayPointerConversionIT_EE5valueEvE4typeESM_, symObjAddr: 0xCAD0, symBinAddr: 0x10000EE30, symSize: 0x70 }
  - { offsetInCU: 0x1C0E5, offset: 0x1C0E5, size: 0x8, addend: 0x0, symName: __ZNSt3__116allocator_traitsINS_9allocatorIPNS_16__hash_node_baseIPNS_11__hash_nodeINS_12basic_stringIcNS_11char_traitsIcEENS1_IcEEEEPvEEEEEEE8allocateB7v160006ERSE_m, symObjAddr: 0xCB40, symBinAddr: 0x10000EEA0, symSize: 0x30 }
  - { offsetInCU: 0x1C118, offset: 0x1C118, size: 0x8, addend: 0x0, symName: __ZNSt3__19allocatorIPNS_16__hash_node_baseIPNS_11__hash_nodeINS_12basic_stringIcNS_11char_traitsIcEENS0_IcEEEEPvEEEEE8allocateB7v160006Em, symObjAddr: 0xCB70, symBinAddr: 0x10000EED0, symSize: 0x50 }
  - { offsetInCU: 0x1C157, offset: 0x1C157, size: 0x8, addend: 0x0, symName: __ZNSt3__116allocator_traitsINS_9allocatorIPNS_16__hash_node_baseIPNS_11__hash_nodeINS_12basic_stringIcNS_11char_traitsIcEENS1_IcEEEEPvEEEEEEE8max_sizeB7v160006ISE_vvEEmRKSE_, symObjAddr: 0xCBC0, symBinAddr: 0x10000EF20, symSize: 0x20 }
  - { offsetInCU: 0x1C183, offset: 0x1C183, size: 0x8, addend: 0x0, symName: __ZNKSt3__117__compressed_pairIPNS_11__hash_nodeINS_12basic_stringIcNS_11char_traitsIcEENS_9allocatorIcEEEEPvEENS_22__hash_node_destructorINS5_IS9_EEEEE5firstB7v160006Ev, symObjAddr: 0xCBE0, symBinAddr: 0x10000EF40, symSize: 0x20 }
  - { offsetInCU: 0x1C1A9, offset: 0x1C1A9, size: 0x8, addend: 0x0, symName: __ZNKSt3__122__compressed_pair_elemIPNS_11__hash_nodeINS_12basic_stringIcNS_11char_traitsIcEENS_9allocatorIcEEEEPvEELi0ELb0EE5__getB7v160006Ev, symObjAddr: 0xCC00, symBinAddr: 0x10000EF60, symSize: 0x10 }
  - { offsetInCU: 0x1C1CF, offset: 0x1C1CF, size: 0x8, addend: 0x0, symName: __ZNSt3__117__compressed_pairIPNS_11__hash_nodeINS_12basic_stringIcNS_11char_traitsIcEENS_9allocatorIcEEEEPvEENS_22__hash_node_destructorINS5_IS9_EEEEE5firstB7v160006Ev, symObjAddr: 0xCC10, symBinAddr: 0x10000EF70, symSize: 0x20 }
  - { offsetInCU: 0x1C1F5, offset: 0x1C1F5, size: 0x8, addend: 0x0, symName: __ZNSt3__122__compressed_pair_elemIPNS_11__hash_nodeINS_12basic_stringIcNS_11char_traitsIcEENS_9allocatorIcEEEEPvEELi0ELb0EE5__getB7v160006Ev, symObjAddr: 0xCC30, symBinAddr: 0x10000EF90, symSize: 0x10 }
  - { offsetInCU: 0x1C21B, offset: 0x1C21B, size: 0x8, addend: 0x0, symName: __ZNSt3__110unique_ptrINS_11__hash_nodeINS_12basic_stringIcNS_11char_traitsIcEENS_9allocatorIcEEEEPvEENS_22__hash_node_destructorINS5_IS9_EEEEED2B7v160006Ev, symObjAddr: 0xCC40, symBinAddr: 0x10000EFA0, symSize: 0x20 }
  - { offsetInCU: 0x1C245, offset: 0x1C245, size: 0x8, addend: 0x0, symName: __ZNSt3__110unique_ptrINS_11__hash_nodeINS_12basic_stringIcNS_11char_traitsIcEENS_9allocatorIcEEEEPvEENS_22__hash_node_destructorINS5_IS9_EEEEE5resetB7v160006EPS9_, symObjAddr: 0xCC60, symBinAddr: 0x10000EFC0, symSize: 0x70 }
  - { offsetInCU: 0x1C289, offset: 0x1C289, size: 0x8, addend: 0x0, symName: __ZNSt3__122__hash_node_destructorINS_9allocatorINS_11__hash_nodeINS_12basic_stringIcNS_11char_traitsIcEENS1_IcEEEEPvEEEEEclB7v160006EPS9_, symObjAddr: 0xCCD0, symBinAddr: 0x10000F030, symSize: 0x80 }
  - { offsetInCU: 0x1C2BE, offset: 0x1C2BE, size: 0x8, addend: 0x0, symName: __ZNSt3__115__hash_iteratorIPNS_11__hash_nodeINS_12basic_stringIcNS_11char_traitsIcEENS_9allocatorIcEEEEPvEEEC2B7v160006EPNS_16__hash_node_baseISA_EEPKv, symObjAddr: 0xCD50, symBinAddr: 0x10000F0B0, symSize: 0x20 }
  - { offsetInCU: 0x1C306, offset: 0x1C306, size: 0x8, addend: 0x0, symName: __ZNSt3__14pairINS_15__hash_iteratorIPNS_11__hash_nodeINS_12basic_stringIcNS_11char_traitsIcEENS_9allocatorIcEEEEPvEEEEbEC2B7v160006ISC_RbLS9_0EEEOT_OT0_, symObjAddr: 0xCD70, symBinAddr: 0x10000F0D0, symSize: 0x30 }
  - { offsetInCU: 0x1C364, offset: 0x1C364, size: 0x8, addend: 0x0, symName: __ZNSt3__14pairINS_21__hash_const_iteratorIPNS_11__hash_nodeINS_12basic_stringIcNS_11char_traitsIcEENS_9allocatorIcEEEEPvEEEEbEC2B7v160006INS_15__hash_iteratorISB_EEbLS9_0EEEONS0_IT_T0_EE, symObjAddr: 0xCDA0, symBinAddr: 0x10000F100, symSize: 0x40 }
  - { offsetInCU: 0x1C3B5, offset: 0x1C3B5, size: 0x8, addend: 0x0, symName: __ZNSt3__121__hash_const_iteratorIPNS_11__hash_nodeINS_12basic_stringIcNS_11char_traitsIcEENS_9allocatorIcEEEEPvEEEC1B7v160006ERKNS_15__hash_iteratorISA_EE, symObjAddr: 0xCDE0, symBinAddr: 0x10000F140, symSize: 0x30 }
  - { offsetInCU: 0x1C3EE, offset: 0x1C3EE, size: 0x8, addend: 0x0, symName: __ZNSt3__121__hash_const_iteratorIPNS_11__hash_nodeINS_12basic_stringIcNS_11char_traitsIcEENS_9allocatorIcEEEEPvEEEC2B7v160006ERKNS_15__hash_iteratorISA_EE, symObjAddr: 0xCE10, symBinAddr: 0x10000F170, symSize: 0x20 }
  - { offsetInCU: 0x1C427, offset: 0x1C427, size: 0x8, addend: 0x0, symName: __ZNSt3__112__hash_tableINS_12basic_stringIcNS_11char_traitsIcEENS_9allocatorIcEEEENS_4hashIS6_EENS_8equal_toIS6_EENS4_IS6_EEE5beginEv, symObjAddr: 0xCE30, symBinAddr: 0x10000F190, symSize: 0x40 }
  - { offsetInCU: 0x1C44F, offset: 0x1C44F, size: 0x8, addend: 0x0, symName: __ZNSt3__112__hash_tableINS_12basic_stringIcNS_11char_traitsIcEENS_9allocatorIcEEEENS_4hashIS6_EENS_8equal_toIS6_EENS4_IS6_EEE3endEv, symObjAddr: 0xCE70, symBinAddr: 0x10000F1D0, symSize: 0x30 }
  - { offsetInCU: 0x1C477, offset: 0x1C477, size: 0x8, addend: 0x0, symName: __ZNKSt3__16vectorI11PairOfWordsNS_9allocatorIS1_EEE5beginB7v160006Ev, symObjAddr: 0xCEA0, symBinAddr: 0x10000F200, symSize: 0x30 }
  - { offsetInCU: 0x1C49F, offset: 0x1C49F, size: 0x8, addend: 0x0, symName: __ZNKSt3__16vectorI11PairOfWordsNS_9allocatorIS1_EEE3endB7v160006Ev, symObjAddr: 0xCED0, symBinAddr: 0x10000F230, symSize: 0x30 }
  - { offsetInCU: 0x1C4C7, offset: 0x1C4C7, size: 0x8, addend: 0x0, symName: __ZNKSt3__111__wrap_iterIPK11PairOfWordsEdeB7v160006Ev, symObjAddr: 0xCF30, symBinAddr: 0x10000F290, symSize: 0x20 }
  - { offsetInCU: 0x1C4ED, offset: 0x1C4ED, size: 0x8, addend: 0x0, symName: __ZNSt3__111__wrap_iterIPK11PairOfWordsEppB7v160006Ev, symObjAddr: 0xCF80, symBinAddr: 0x10000F2E0, symSize: 0x20 }
  - { offsetInCU: 0x1C513, offset: 0x1C513, size: 0x8, addend: 0x0, symName: __ZNKSt3__16vectorI11PairOfWordsNS_9allocatorIS1_EEE11__make_iterB7v160006EPKS1_, symObjAddr: 0xCFA0, symBinAddr: 0x10000F300, symSize: 0x30 }
  - { offsetInCU: 0x1C548, offset: 0x1C548, size: 0x8, addend: 0x0, symName: __ZNSt3__111__wrap_iterIPK11PairOfWordsEC1B7v160006EPKvS3_, symObjAddr: 0xCFD0, symBinAddr: 0x10000F330, symSize: 0x30 }
  - { offsetInCU: 0x1C58E, offset: 0x1C58E, size: 0x8, addend: 0x0, symName: __ZNSt3__111__wrap_iterIPK11PairOfWordsEC2B7v160006EPKvS3_, symObjAddr: 0xD000, symBinAddr: 0x10000F360, symSize: 0x20 }
  - { offsetInCU: 0x1C5D4, offset: 0x1C5D4, size: 0x8, addend: 0x0, symName: __ZNKSt3__111__wrap_iterIPK11PairOfWordsE4baseB7v160006Ev, symObjAddr: 0xD060, symBinAddr: 0x10000F3C0, symSize: 0x11 }
...
