---
triple:          'x86_64-apple-darwin'
binary-path:     '/Users/dmitrii/Documents/cpp-experiments/Algorhitms/6th_Sprint/Binaries/DijkstraAlgorithm'
relocations:
  - { offsetInCU: 0x6E1E, offset: 0x6E1E, size: 0x8, addend: 0x0, symName: __ZNSt3__113__fill_n_trueB7v160006INS_6vectorIbNS_9allocatorIbEEEEEEvNS_14__bit_iteratorIT_Lb0EXLi0EEEENS6_9size_typeE, symObjAddr: 0x41D0, symBinAddr: 0x1000071A0, symSize: 0x140 }
  - { offsetInCU: 0x6EE4, offset: 0x6EE4, size: 0x8, addend: 0x0, symName: __ZNSt3__114__fill_n_falseB7v160006INS_6vectorIbNS_9allocatorIbEEEEEEvNS_14__bit_iteratorIT_Lb0EXLi0EEEENS6_9size_typeE, symObjAddr: 0x4340, symBinAddr: 0x100007310, symSize: 0x140 }
  - { offsetInCU: 0x9A75, offset: 0x9A75, size: 0x8, addend: 0x0, symName: __ZNSt3__124__put_character_sequenceB7v160006IcNS_11char_traitsIcEEEERNS_13basic_ostreamIT_T0_EES7_PKS4_m, symObjAddr: 0x5B20, symBinAddr: 0x100008AF0, symSize: 0x1F0 }
  - { offsetInCU: 0xAC46, offset: 0xAC46, size: 0x8, addend: 0x0, symName: __ZNSt3__17advanceB7v160006IPNS_4pairIiiEEllvEEvRT_T0_, symObjAddr: 0x7720, symBinAddr: 0x10000A6F0, symSize: 0x50 }
  - { offsetInCU: 0xAEC6, offset: 0xAEC6, size: 0x8, addend: 0x0, symName: __ZNSt3__17advanceB7v160006INS_16reverse_iteratorIPNS_4pairIiiEEEEllvEEvRT_T0_, symObjAddr: 0x7B20, symBinAddr: 0x10000AAF0, symSize: 0x50 }
  - { offsetInCU: 0xAF31, offset: 0xAF31, size: 0x8, addend: 0x0, symName: '__ZNSt3__117__floyd_sift_downB7v160006INS_17_ClassicAlgPolicyERZ8DijkstraiRNS_6vectorINS2_I4EdgeNS_9allocatorIS3_EEEENS4_IS6_EEEEE3$_0NS_11__wrap_iterIPNS_4pairIiiEEEEEET1_SH_OT0_NS_15iterator_traitsISH_E15difference_typeE', symObjAddr: 0x8590, symBinAddr: 0x10000B560, symSize: 0x130 }
  - { offsetInCU: 0xC0BA, offset: 0xC0BA, size: 0x8, addend: 0x0, symName: __ZNSt3__1neB7v160006IPKiEEbRKNS_11__wrap_iterIT_EES7_, symObjAddr: 0x1A0, symBinAddr: 0x100003170, symSize: 0x30 }
  - { offsetInCU: 0xC2E7, offset: 0xC2E7, size: 0x8, addend: 0x0, symName: __ZNSt3__1lsB7v160006INS_11char_traitsIcEEEERNS_13basic_ostreamIcT_EES6_PKc, symObjAddr: 0x200, symBinAddr: 0x1000031D0, symSize: 0x40 }
  - { offsetInCU: 0xC32D, offset: 0xC32D, size: 0x8, addend: 0x0, symName: __ZNSt3__1lsB7v160006INS_11char_traitsIcEEEERNS_13basic_ostreamIcT_EES6_c, symObjAddr: 0x260, symBinAddr: 0x100003230, symSize: 0x30 }
  - { offsetInCU: 0xC56E, offset: 0xC56E, size: 0x8, addend: 0x0, symName: __ZNSt3__1neB7v160006IP4EdgeEEbRKNS_11__wrap_iterIT_EES7_, symObjAddr: 0xB60, symBinAddr: 0x100003B30, symSize: 0x30 }
  - { offsetInCU: 0xC5B1, offset: 0xC5B1, size: 0x8, addend: 0x0, symName: __ZNSt3__13minB7v160006IiEERKT_S3_S3_, symObjAddr: 0xBB0, symBinAddr: 0x100003B80, symSize: 0x30 }
  - { offsetInCU: 0xC5F4, offset: 0xC5F4, size: 0x8, addend: 0x0, symName: __ZNSt3__1eqB7v160006IPKiEEbRKNS_11__wrap_iterIT_EES7_, symObjAddr: 0xDE0, symBinAddr: 0x100003DB0, symSize: 0x40 }
  - { offsetInCU: 0xC637, offset: 0xC637, size: 0x8, addend: 0x0, symName: __ZNSt3__122__make_exception_guardB7v160006INS_6vectorINS1_I4EdgeNS_9allocatorIS2_EEEENS3_IS5_EEE16__destroy_vectorEEENS_28__exception_guard_exceptionsIT_EESA_, symObjAddr: 0xF60, symBinAddr: 0x100003F30, symSize: 0x40 }
  - { offsetInCU: 0xC66C, offset: 0xC66C, size: 0x8, addend: 0x0, symName: __ZNSt3__119__debug_db_insert_cB7v160006INS_6vectorINS1_I4EdgeNS_9allocatorIS2_EEEENS3_IS5_EEEEEEvPT_, symObjAddr: 0xFD0, symBinAddr: 0x100003FA0, symSize: 0x10 }
  - { offsetInCU: 0xC69D, offset: 0xC69D, size: 0x8, addend: 0x0, symName: __ZNSt3__119__allocate_at_leastB7v160006INS_9allocatorINS_6vectorI4EdgeNS1_IS3_EEEEEEEEDaRT_m, symObjAddr: 0x1320, symBinAddr: 0x1000042F0, symSize: 0x40 }
  - { offsetInCU: 0xC6E0, offset: 0xC6E0, size: 0x8, addend: 0x0, symName: __ZNSt3__13minB7v160006ImEERKT_S3_S3_, symObjAddr: 0x1440, symBinAddr: 0x100004410, symSize: 0x30 }
  - { offsetInCU: 0xC90D, offset: 0xC90D, size: 0x8, addend: 0x0, symName: __ZNSt3__13minB7v160006ImNS_6__lessImmEEEERKT_S5_S5_T0_, symObjAddr: 0x14E0, symBinAddr: 0x1000044B0, symSize: 0x50 }
  - { offsetInCU: 0xCB8E, offset: 0xCB8E, size: 0x8, addend: 0x0, symName: __ZNSt3__120__throw_length_errorB7v160006EPKc, symObjAddr: 0x15C0, symBinAddr: 0x100004590, symSize: 0x70 }
  - { offsetInCU: 0xCBB6, offset: 0xCBB6, size: 0x8, addend: 0x0, symName: __ZNSt3__117allocate_at_leastB7v160006INS_9allocatorINS_6vectorI4EdgeNS1_IS3_EEEEEEEENS_17allocation_resultINS_16allocator_traitsIT_E7pointerEEERS9_m, symObjAddr: 0x16A0, symBinAddr: 0x100004670, symSize: 0x40 }
  - { offsetInCU: 0xCBF9, offset: 0xCBF9, size: 0x8, addend: 0x0, symName: __ZNSt3__117__libcpp_allocateB7v160006Emm, symObjAddr: 0x17B0, symBinAddr: 0x100004780, symSize: 0x60 }
  - { offsetInCU: 0xCC53, offset: 0xCC53, size: 0x8, addend: 0x0, symName: __ZNSt3__124__is_overaligned_for_newB7v160006Em, symObjAddr: 0x1810, symBinAddr: 0x1000047E0, symSize: 0x20 }
  - { offsetInCU: 0xCC81, offset: 0xCC81, size: 0x8, addend: 0x0, symName: __ZNSt3__121__libcpp_operator_newB7v160006IJmSt11align_val_tEEEPvDpT_, symObjAddr: 0x1830, symBinAddr: 0x100004800, symSize: 0x30 }
  - { offsetInCU: 0xCCCE, offset: 0xCCCE, size: 0x8, addend: 0x0, symName: __ZNSt3__121__libcpp_operator_newB7v160006IJmEEEPvDpT_, symObjAddr: 0x1860, symBinAddr: 0x100004830, symSize: 0x20 }
  - { offsetInCU: 0xCD07, offset: 0xCD07, size: 0x8, addend: 0x0, symName: __ZNSt3__112__to_addressB7v160006INS_6vectorI4EdgeNS_9allocatorIS2_EEEEEEPT_S7_, symObjAddr: 0x1960, symBinAddr: 0x100004930, symSize: 0x10 }
  - { offsetInCU: 0xCD61, offset: 0xCD61, size: 0x8, addend: 0x0, symName: __ZNSt3__112construct_atB7v160006INS_6vectorI4EdgeNS_9allocatorIS2_EEEEJEPS5_EEPT_S8_DpOT0_, symObjAddr: 0x1A70, symBinAddr: 0x100004A40, symSize: 0x30 }
  - { offsetInCU: 0xCDBD, offset: 0xCDBD, size: 0x8, addend: 0x0, symName: __ZNSt3__119__debug_db_insert_cB7v160006INS_6vectorI4EdgeNS_9allocatorIS2_EEEEEEvPT_, symObjAddr: 0x1B50, symBinAddr: 0x100004B20, symSize: 0x10 }
  - { offsetInCU: 0xCDEE, offset: 0xCDEE, size: 0x8, addend: 0x0, symName: __ZNSt3__118__debug_db_erase_cB7v160006INS_6vectorINS1_I4EdgeNS_9allocatorIS2_EEEENS3_IS5_EEEEEEvPT_, symObjAddr: 0x1DB0, symBinAddr: 0x100004D80, symSize: 0x10 }
  - { offsetInCU: 0xCE1F, offset: 0xCE1F, size: 0x8, addend: 0x0, symName: __ZNSt3__110destroy_atB7v160006INS_6vectorI4EdgeNS_9allocatorIS2_EEEELi0EEEvPT_, symObjAddr: 0x1EB0, symBinAddr: 0x100004E80, symSize: 0x20 }
  - { offsetInCU: 0xCE56, offset: 0xCE56, size: 0x8, addend: 0x0, symName: __ZNSt3__112__destroy_atB7v160006INS_6vectorI4EdgeNS_9allocatorIS2_EEEELi0EEEvPT_, symObjAddr: 0x1ED0, symBinAddr: 0x100004EA0, symSize: 0x20 }
  - { offsetInCU: 0xCE8D, offset: 0xCE8D, size: 0x8, addend: 0x0, symName: __ZNSt3__118__debug_db_erase_cB7v160006INS_6vectorI4EdgeNS_9allocatorIS2_EEEEEEvPT_, symObjAddr: 0x20E0, symBinAddr: 0x1000050B0, symSize: 0x10 }
  - { offsetInCU: 0xCEBE, offset: 0xCEBE, size: 0x8, addend: 0x0, symName: __ZNSt3__112__to_addressB7v160006I4EdgeEEPT_S3_, symObjAddr: 0x21F0, symBinAddr: 0x1000051C0, symSize: 0x10 }
  - { offsetInCU: 0xCEF3, offset: 0xCEF3, size: 0x8, addend: 0x0, symName: __ZNSt3__110destroy_atB7v160006I4EdgeLi0EEEvPT_, symObjAddr: 0x22A0, symBinAddr: 0x100005270, symSize: 0x20 }
  - { offsetInCU: 0xCF2A, offset: 0xCF2A, size: 0x8, addend: 0x0, symName: __ZNSt3__112__destroy_atB7v160006I4EdgeLi0EEEvPT_, symObjAddr: 0x22C0, symBinAddr: 0x100005290, symSize: 0x10 }
  - { offsetInCU: 0xCF61, offset: 0xCF61, size: 0x8, addend: 0x0, symName: __ZNSt3__119__libcpp_deallocateB7v160006EPvmm, symObjAddr: 0x2310, symBinAddr: 0x1000052E0, symSize: 0x60 }
  - { offsetInCU: 0xCFC6, offset: 0xCFC6, size: 0x8, addend: 0x0, symName: __ZNSt3__127__do_deallocate_handle_sizeB7v160006IJSt11align_val_tEEEvPvmDpT_, symObjAddr: 0x2370, symBinAddr: 0x100005340, symSize: 0x30 }
  - { offsetInCU: 0xD019, offset: 0xD019, size: 0x8, addend: 0x0, symName: __ZNSt3__127__do_deallocate_handle_sizeB7v160006IJEEEvPvmDpT_, symObjAddr: 0x23A0, symBinAddr: 0x100005370, symSize: 0x20 }
  - { offsetInCU: 0xD057, offset: 0xD057, size: 0x8, addend: 0x0, symName: __ZNSt3__124__libcpp_operator_deleteB7v160006IJPvSt11align_val_tEEEvDpT_, symObjAddr: 0x23C0, symBinAddr: 0x100005390, symSize: 0x30 }
  - { offsetInCU: 0xD0A0, offset: 0xD0A0, size: 0x8, addend: 0x0, symName: __ZNSt3__124__libcpp_operator_deleteB7v160006IJPvEEEvDpT_, symObjAddr: 0x23F0, symBinAddr: 0x1000053C0, symSize: 0x20 }
  - { offsetInCU: 0xD0FA, offset: 0xD0FA, size: 0x8, addend: 0x0, symName: __ZNSt3__112construct_atB7v160006I4EdgeJiRiEPS1_EEPT_S5_DpOT0_, symObjAddr: 0x2790, symBinAddr: 0x100005760, symSize: 0x40 }
  - { offsetInCU: 0xD17D, offset: 0xD17D, size: 0x8, addend: 0x0, symName: __ZNSt3__13maxB7v160006ImEERKT_S3_S3_, symObjAddr: 0x2AF0, symBinAddr: 0x100005AC0, symSize: 0x30 }
  - { offsetInCU: 0xD1C0, offset: 0xD1C0, size: 0x8, addend: 0x0, symName: __ZNSt3__13maxB7v160006ImNS_6__lessImmEEEERKT_S5_S5_T0_, symObjAddr: 0x2B90, symBinAddr: 0x100005B60, symSize: 0x50 }
  - { offsetInCU: 0xD21A, offset: 0xD21A, size: 0x8, addend: 0x0, symName: __ZNSt3__119__allocate_at_leastB7v160006INS_9allocatorI4EdgeEEEEDaRT_m, symObjAddr: 0x2CE0, symBinAddr: 0x100005CB0, symSize: 0x40 }
  - { offsetInCU: 0xD25D, offset: 0xD25D, size: 0x8, addend: 0x0, symName: __ZNSt3__117allocate_at_leastB7v160006INS_9allocatorI4EdgeEEEENS_17allocation_resultINS_16allocator_traitsIT_E7pointerEEERS6_m, symObjAddr: 0x2DC0, symBinAddr: 0x100005D90, symSize: 0x40 }
  - { offsetInCU: 0xD2A0, offset: 0xD2A0, size: 0x8, addend: 0x0, symName: __ZNSt3__142__uninitialized_allocator_move_if_noexceptB7v160006INS_9allocatorI4EdgeEENS_16reverse_iteratorIPS2_EES6_S2_vEET1_RT_T0_SA_S7_, symObjAddr: 0x2EF0, symBinAddr: 0x100005EC0, symSize: 0x70 }
  - { offsetInCU: 0xD31C, offset: 0xD31C, size: 0x8, addend: 0x0, symName: __ZNSt3__14swapB7v160006IP4EdgeEENS_9enable_ifIXaasr21is_move_constructibleIT_EE5valuesr18is_move_assignableIS4_EE5valueEvE4typeERS4_S7_, symObjAddr: 0x2FB0, symBinAddr: 0x100005F80, symSize: 0x40 }
  - { offsetInCU: 0xD36D, offset: 0xD36D, size: 0x8, addend: 0x0, symName: __ZNSt3__125__debug_db_invalidate_allB7v160006INS_6vectorI4EdgeNS_9allocatorIS2_EEEEEEvPT_, symObjAddr: 0x30A0, symBinAddr: 0x100006070, symSize: 0x10 }
  - { offsetInCU: 0xD39E, offset: 0xD39E, size: 0x8, addend: 0x0, symName: __ZNSt3__14moveB7v160006INS_16reverse_iteratorIP4EdgeEES4_EET0_T_S6_S5_, symObjAddr: 0x30B0, symBinAddr: 0x100006080, symSize: 0x80 }
  - { offsetInCU: 0xD3F8, offset: 0xD3F8, size: 0x8, addend: 0x0, symName: __ZNSt3__16__moveB7v160006INS_17_ClassicAlgPolicyENS_16reverse_iteratorIP4EdgeEES5_S5_EENS_4pairIT0_T2_EES7_T1_S8_, symObjAddr: 0x3130, symBinAddr: 0x100006100, symSize: 0x90 }
  - { offsetInCU: 0xD464, offset: 0xD464, size: 0x8, addend: 0x0, symName: __ZNSt3__123__dispatch_copy_or_moveB7v160006INS_17_ClassicAlgPolicyENS_11__move_loopIS1_EENS_14__move_trivialENS_16reverse_iteratorIP4EdgeEES8_S8_EENS_4pairIT2_T4_EESA_T3_SB_, symObjAddr: 0x31C0, symBinAddr: 0x100006190, symSize: 0x90 }
  - { offsetInCU: 0xD4E2, offset: 0xD4E2, size: 0x8, addend: 0x0, symName: __ZNSt3__121__unwrap_and_dispatchB7v160006INS_10__overloadINS_11__move_loopINS_17_ClassicAlgPolicyEEENS_14__move_trivialEEENS_16reverse_iteratorIP4EdgeEESA_SA_Li0EEENS_4pairIT0_T2_EESC_T1_SD_, symObjAddr: 0x3250, symBinAddr: 0x100006220, symSize: 0x210 }
  - { offsetInCU: 0xD571, offset: 0xD571, size: 0x8, addend: 0x0, symName: __ZNSt3__114__unwrap_rangeB7v160006INS_16reverse_iteratorIP4EdgeEES4_EEDaT_T0_, symObjAddr: 0x3460, symBinAddr: 0x100006430, symSize: 0x60 }
  - { offsetInCU: 0xD739, offset: 0xD739, size: 0x8, addend: 0x0, symName: __ZNSt3__113__unwrap_iterB7v160006INS_16reverse_iteratorIP4EdgeEENS_18__unwrap_iter_implIS4_Lb0EEELi0EEEDTclsrT0_8__unwrapclsr3stdE7declvalIT_EEEES8_, symObjAddr: 0x3560, symBinAddr: 0x100006530, symSize: 0x40 }
  - { offsetInCU: 0xD77D, offset: 0xD77D, size: 0x8, addend: 0x0, symName: __ZNSt3__19make_pairB7v160006INS_16reverse_iteratorIP4EdgeEES4_EENS_4pairINS_18__unwrap_ref_decayIT_E4typeENS6_IT0_E4typeEEEOS7_OSA_, symObjAddr: 0x35A0, symBinAddr: 0x100006570, symSize: 0x30 }
  - { offsetInCU: 0xD7CC, offset: 0xD7CC, size: 0x8, addend: 0x0, symName: __ZNSt3__114__rewrap_rangeB7v160006INS_16reverse_iteratorIP4EdgeEES4_S4_EET0_S5_T1_, symObjAddr: 0x35D0, symBinAddr: 0x1000065A0, symSize: 0x60 }
  - { offsetInCU: 0xD821, offset: 0xD821, size: 0x8, addend: 0x0, symName: __ZNSt3__113__rewrap_iterB7v160006INS_16reverse_iteratorIP4EdgeEES4_NS_18__unwrap_iter_implIS4_Lb0EEEEET_S7_T0_, symObjAddr: 0x3630, symBinAddr: 0x100006600, symSize: 0x70 }
  - { offsetInCU: 0xD8C6, offset: 0xD8C6, size: 0x8, addend: 0x0, symName: __ZNSt3__1neB7v160006IP4EdgeS2_EEbRKNS_16reverse_iteratorIT_EERKNS3_IT0_EE, symObjAddr: 0x37A0, symBinAddr: 0x100006770, symSize: 0x40 }
  - { offsetInCU: 0xD9F7, offset: 0xD9F7, size: 0x8, addend: 0x0, symName: __ZNSt3__119__allocate_at_leastB7v160006INS_9allocatorImEEEEDaRT_m, symObjAddr: 0x3EA0, symBinAddr: 0x100006E70, symSize: 0x40 }
  - { offsetInCU: 0xDA3A, offset: 0xDA3A, size: 0x8, addend: 0x0, symName: __ZNSt3__117allocate_at_leastB7v160006INS_9allocatorImEEEENS_17allocation_resultINS_16allocator_traitsIT_E7pointerEEERS5_m, symObjAddr: 0x3FD0, symBinAddr: 0x100006FA0, symSize: 0x40 }
  - { offsetInCU: 0xDA7D, offset: 0xDA7D, size: 0x8, addend: 0x0, symName: __ZNSt3__16fill_nB7v160006INS_6vectorIbNS_9allocatorIbEEEEEEvNS_14__bit_iteratorIT_Lb0EXLi0EEEENS6_9size_typeEb, symObjAddr: 0x4100, symBinAddr: 0x1000070D0, symSize: 0x80 }
  - { offsetInCU: 0xDACF, offset: 0xDACF, size: 0x8, addend: 0x0, symName: __ZNSt3__16fill_nB7v160006IPmmmEET_S2_T0_RKT1_, symObjAddr: 0x4480, symBinAddr: 0x100007450, symSize: 0x40 }
  - { offsetInCU: 0xDB32, offset: 0xDB32, size: 0x8, addend: 0x0, symName: __ZNSt3__112__to_addressB7v160006ImEEPT_S2_, symObjAddr: 0x44C0, symBinAddr: 0x100007490, symSize: 0x10 }
  - { offsetInCU: 0xDB67, offset: 0xDB67, size: 0x8, addend: 0x0, symName: __ZNSt3__18__fill_nB7v160006IPmmmEET_S2_T0_RKT1_, symObjAddr: 0x44D0, symBinAddr: 0x1000074A0, symSize: 0x50 }
  - { offsetInCU: 0xDBCA, offset: 0xDBCA, size: 0x8, addend: 0x0, symName: __ZNSt3__121__convert_to_integralB7v160006Em, symObjAddr: 0x4520, symBinAddr: 0x1000074F0, symSize: 0x10 }
  - { offsetInCU: 0xDBF6, offset: 0xDBF6, size: 0x8, addend: 0x0, symName: __ZNSt3__16fill_nB7v160006IPmmiEET_S2_T0_RKT1_, symObjAddr: 0x4560, symBinAddr: 0x100007530, symSize: 0x40 }
  - { offsetInCU: 0xDC59, offset: 0xDC59, size: 0x8, addend: 0x0, symName: __ZNSt3__18__fill_nB7v160006IPmmiEET_S2_T0_RKT1_, symObjAddr: 0x45A0, symBinAddr: 0x100007570, symSize: 0x50 }
  - { offsetInCU: 0xDCBC, offset: 0xDCBC, size: 0x8, addend: 0x0, symName: __ZNSt3__122__make_exception_guardB7v160006INS_6vectorIiNS_9allocatorIiEEE16__destroy_vectorEEENS_28__exception_guard_exceptionsIT_EES7_, symObjAddr: 0x4760, symBinAddr: 0x100007730, symSize: 0x40 }
  - { offsetInCU: 0xDCF1, offset: 0xDCF1, size: 0x8, addend: 0x0, symName: __ZNSt3__119__debug_db_insert_cB7v160006INS_6vectorIiNS_9allocatorIiEEEEEEvPT_, symObjAddr: 0x47D0, symBinAddr: 0x1000077A0, symSize: 0x10 }
  - { offsetInCU: 0xDD22, offset: 0xDD22, size: 0x8, addend: 0x0, symName: __ZNSt3__119__allocate_at_leastB7v160006INS_9allocatorIiEEEEDaRT_m, symObjAddr: 0x4B20, symBinAddr: 0x100007AF0, symSize: 0x40 }
  - { offsetInCU: 0xDD65, offset: 0xDD65, size: 0x8, addend: 0x0, symName: __ZNSt3__117allocate_at_leastB7v160006INS_9allocatorIiEEEENS_17allocation_resultINS_16allocator_traitsIT_E7pointerEEERS5_m, symObjAddr: 0x4CC0, symBinAddr: 0x100007C90, symSize: 0x40 }
  - { offsetInCU: 0xDDA8, offset: 0xDDA8, size: 0x8, addend: 0x0, symName: __ZNSt3__112__to_addressB7v160006IiEEPT_S2_, symObjAddr: 0x4E60, symBinAddr: 0x100007E30, symSize: 0x10 }
  - { offsetInCU: 0xDE02, offset: 0xDE02, size: 0x8, addend: 0x0, symName: __ZNSt3__112construct_atB7v160006IiJRKiEPiEEPT_S5_DpOT0_, symObjAddr: 0x4F80, symBinAddr: 0x100007F50, symSize: 0x30 }
  - { offsetInCU: 0xDE72, offset: 0xDE72, size: 0x8, addend: 0x0, symName: __ZNSt3__118__debug_db_erase_cB7v160006INS_6vectorIiNS_9allocatorIiEEEEEEvPT_, symObjAddr: 0x5150, symBinAddr: 0x100008120, symSize: 0x10 }
  - { offsetInCU: 0xDEA3, offset: 0xDEA3, size: 0x8, addend: 0x0, symName: __ZNSt3__110destroy_atB7v160006IiLi0EEEvPT_, symObjAddr: 0x5270, symBinAddr: 0x100008240, symSize: 0x20 }
  - { offsetInCU: 0xDEDA, offset: 0xDEDA, size: 0x8, addend: 0x0, symName: __ZNSt3__112__destroy_atB7v160006IiLi0EEEvPT_, symObjAddr: 0x5290, symBinAddr: 0x100008260, symSize: 0x10 }
  - { offsetInCU: 0xDF11, offset: 0xDF11, size: 0x8, addend: 0x0, symName: __ZNSt3__1eqB7v160006IP4EdgeEEbRKNS_11__wrap_iterIT_EES7_, symObjAddr: 0x5390, symBinAddr: 0x100008360, symSize: 0x40 }
  - { offsetInCU: 0xDF54, offset: 0xDF54, size: 0x8, addend: 0x0, symName: __ZNSt3__13minB7v160006IiNS_6__lessIiiEEEERKT_S5_S5_T0_, symObjAddr: 0x53F0, symBinAddr: 0x1000083C0, symSize: 0x50 }
  - { offsetInCU: 0xDFE9, offset: 0xDFE9, size: 0x8, addend: 0x0, symName: __ZNSt3__118__debug_db_erase_cB7v160006INS_6vectorINS_4pairIiiEENS_9allocatorIS3_EEEEEEvPT_, symObjAddr: 0x56B0, symBinAddr: 0x100008680, symSize: 0x10 }
  - { offsetInCU: 0xE01A, offset: 0xE01A, size: 0x8, addend: 0x0, symName: __ZNSt3__112__to_addressB7v160006INS_4pairIiiEEEEPT_S4_, symObjAddr: 0x57C0, symBinAddr: 0x100008790, symSize: 0x10 }
  - { offsetInCU: 0xE04F, offset: 0xE04F, size: 0x8, addend: 0x0, symName: __ZNSt3__110destroy_atB7v160006INS_4pairIiiEELi0EEEvPT_, symObjAddr: 0x5870, symBinAddr: 0x100008840, symSize: 0x20 }
  - { offsetInCU: 0xE086, offset: 0xE086, size: 0x8, addend: 0x0, symName: __ZNSt3__112__destroy_atB7v160006INS_4pairIiiEELi0EEEvPT_, symObjAddr: 0x5890, symBinAddr: 0x100008860, symSize: 0x10 }
  - { offsetInCU: 0xE0BD, offset: 0xE0BD, size: 0x8, addend: 0x0, symName: __ZNSt3__125__debug_db_invalidate_allB7v160006INS_6vectorIbNS_9allocatorIbEEE16__destroy_vectorEEEvPT_, symObjAddr: 0x5AD0, symBinAddr: 0x100008AA0, symSize: 0x10 }
  - { offsetInCU: 0xE0EE, offset: 0xE0EE, size: 0x8, addend: 0x0, symName: __ZNSt3__116__pad_and_outputB7v160006IcNS_11char_traitsIcEEEENS_19ostreambuf_iteratorIT_T0_EES6_PKS4_S8_S8_RNS_8ios_baseES4_, symObjAddr: 0x5D60, symBinAddr: 0x100008D30, symSize: 0x220 }
  - { offsetInCU: 0xE1BE, offset: 0xE1BE, size: 0x8, addend: 0x0, symName: __ZNSt3__119__debug_db_insert_cB7v160006INS_12basic_stringIcNS_11char_traitsIcEENS_9allocatorIcEEEEEEvPT_, symObjAddr: 0x61F0, symBinAddr: 0x1000091C0, symSize: 0x10 }
  - { offsetInCU: 0xE1EF, offset: 0xE1EF, size: 0x8, addend: 0x0, symName: __ZNSt3__112__to_addressB7v160006IcEEPT_S2_, symObjAddr: 0x6290, symBinAddr: 0x100009260, symSize: 0x10 }
  - { offsetInCU: 0xE224, offset: 0xE224, size: 0x8, addend: 0x0, symName: __ZNSt3__19use_facetB7v160006INS_5ctypeIcEEEERKT_RKNS_6localeE, symObjAddr: 0x6520, symBinAddr: 0x1000094F0, symSize: 0x30 }
  - { offsetInCU: 0xE6F3, offset: 0xE6F3, size: 0x8, addend: 0x0, symName: __ZNSt3__118__constexpr_strlenB7v160006EPKc, symObjAddr: 0x65B0, symBinAddr: 0x100009580, symSize: 0x20 }
  - { offsetInCU: 0xE71F, offset: 0xE71F, size: 0x8, addend: 0x0, symName: __ZNSt3__119__debug_db_insert_cB7v160006INS_6vectorINS_4pairIiiEENS_9allocatorIS3_EEEEEEvPT_, symObjAddr: 0x66A0, symBinAddr: 0x100009670, symSize: 0x10 }
  - { offsetInCU: 0xE750, offset: 0xE750, size: 0x8, addend: 0x0, symName: '__ZNSt3__19push_heapB7v160006INS_11__wrap_iterIPNS_4pairIiiEEEEZ8DijkstraiRNS_6vectorINS6_I4EdgeNS_9allocatorIS7_EEEENS8_ISA_EEEEE3$_0EEvT_SF_T0_', symObjAddr: 0x67C0, symBinAddr: 0x100009790, symSize: 0x40 }
  - { offsetInCU: 0xE7CB, offset: 0xE7CB, size: 0x8, addend: 0x0, symName: __ZNSt3__112construct_atB7v160006INS_4pairIiiEEJS2_EPS2_EEPT_S5_DpOT0_, symObjAddr: 0x6AD0, symBinAddr: 0x100009AA0, symSize: 0x30 }
  - { offsetInCU: 0xE83B, offset: 0xE83B, size: 0x8, addend: 0x0, symName: __ZNSt3__119__allocate_at_leastB7v160006INS_9allocatorINS_4pairIiiEEEEEEDaRT_m, symObjAddr: 0x6F40, symBinAddr: 0x100009F10, symSize: 0x40 }
  - { offsetInCU: 0xE87E, offset: 0xE87E, size: 0x8, addend: 0x0, symName: __ZNSt3__117allocate_at_leastB7v160006INS_9allocatorINS_4pairIiiEEEEEENS_17allocation_resultINS_16allocator_traitsIT_E7pointerEEERS7_m, symObjAddr: 0x7020, symBinAddr: 0x100009FF0, symSize: 0x40 }
  - { offsetInCU: 0xE8C1, offset: 0xE8C1, size: 0x8, addend: 0x0, symName: __ZNSt3__142__uninitialized_allocator_move_if_noexceptB7v160006INS_9allocatorINS_4pairIiiEEEENS_16reverse_iteratorIPS3_EES7_S7_EET2_RT_T0_T1_S8_, symObjAddr: 0x7150, symBinAddr: 0x10000A120, symSize: 0x180 }
  - { offsetInCU: 0xE960, offset: 0xE960, size: 0x8, addend: 0x0, symName: __ZNSt3__14swapB7v160006IPNS_4pairIiiEEEENS_9enable_ifIXaasr21is_move_constructibleIT_EE5valuesr18is_move_assignableIS5_EE5valueEvE4typeERS5_S8_, symObjAddr: 0x7320, symBinAddr: 0x10000A2F0, symSize: 0x40 }
  - { offsetInCU: 0xE9B1, offset: 0xE9B1, size: 0x8, addend: 0x0, symName: __ZNSt3__125__debug_db_invalidate_allB7v160006INS_6vectorINS_4pairIiiEENS_9allocatorIS3_EEEEEEvPT_, symObjAddr: 0x7410, symBinAddr: 0x10000A3E0, symSize: 0x10 }
  - { offsetInCU: 0xE9E2, offset: 0xE9E2, size: 0x8, addend: 0x0, symName: __ZNSt3__122__make_exception_guardB7v160006INS_29_AllocatorDestroyRangeReverseINS_9allocatorINS_4pairIiiEEEENS_16reverse_iteratorIPS4_EEEEEENS_28__exception_guard_exceptionsIT_EESB_, symObjAddr: 0x7420, symBinAddr: 0x10000A3F0, symSize: 0x60 }
  - { offsetInCU: 0xEA17, offset: 0xEA17, size: 0x8, addend: 0x0, symName: __ZNSt3__1neB7v160006IPNS_4pairIiiEES3_EEbRKNS_16reverse_iteratorIT_EERKNS4_IT0_EE, symObjAddr: 0x74C0, symBinAddr: 0x10000A490, symSize: 0x40 }
  - { offsetInCU: 0xEA63, offset: 0xEA63, size: 0x8, addend: 0x0, symName: __ZNSt3__112__to_addressB7v160006INS_16reverse_iteratorIPNS_4pairIiiEEEEvEENS_5decayIDTclsr19__to_address_helperIT_EE6__callclsr3stdE7declvalIRKS7_EEEEE4typeES9_, symObjAddr: 0x7500, symBinAddr: 0x10000A4D0, symSize: 0x20 }
  - { offsetInCU: 0xEAC2, offset: 0xEAC2, size: 0x8, addend: 0x0, symName: __ZNSt3__14prevB7v160006IPNS_4pairIiiEEEENS_9enable_ifIXsr25__is_cpp17_input_iteratorIT_EE5valueES5_E4typeES5_NS_15iterator_traitsIS5_E15difference_typeE, symObjAddr: 0x76D0, symBinAddr: 0x10000A6A0, symSize: 0x50 }
  - { offsetInCU: 0xEB05, offset: 0xEB05, size: 0x8, addend: 0x0, symName: __ZNSt3__121__convert_to_integralB7v160006El, symObjAddr: 0x7770, symBinAddr: 0x10000A740, symSize: 0x10 }
  - { offsetInCU: 0xEB31, offset: 0xEB31, size: 0x8, addend: 0x0, symName: __ZNSt3__19__advanceB7v160006IPNS_4pairIiiEEEEvRT_NS_15iterator_traitsIS4_E15difference_typeENS_26random_access_iterator_tagE, symObjAddr: 0x7780, symBinAddr: 0x10000A750, symSize: 0x20 }
  - { offsetInCU: 0xEB7A, offset: 0xEB7A, size: 0x8, addend: 0x0, symName: __ZNSt3__119__allocator_destroyB7v160006INS_9allocatorINS_4pairIiiEEEENS_16reverse_iteratorINS5_IPS3_EEEES8_EEvRT_T0_T1_, symObjAddr: 0x78D0, symBinAddr: 0x10000A8A0, symSize: 0x70 }
  - { offsetInCU: 0xEBDD, offset: 0xEBDD, size: 0x8, addend: 0x0, symName: __ZNSt3__1neB7v160006INS_16reverse_iteratorIPNS_4pairIiiEEEES5_EEbRKNS1_IT_EERKNS1_IT0_EE, symObjAddr: 0x7970, symBinAddr: 0x10000A940, symSize: 0x50 }
  - { offsetInCU: 0xEC29, offset: 0xEC29, size: 0x8, addend: 0x0, symName: __ZNSt3__112__to_addressB7v160006INS_16reverse_iteratorINS1_IPNS_4pairIiiEEEEEEvEENS_5decayIDTclsr19__to_address_helperIT_EE6__callclsr3stdE7declvalIRKS8_EEEEE4typeESA_, symObjAddr: 0x79C0, symBinAddr: 0x10000A990, symSize: 0x20 }
  - { offsetInCU: 0xEC88, offset: 0xEC88, size: 0x8, addend: 0x0, symName: __ZNSt3__14prevB7v160006INS_16reverse_iteratorIPNS_4pairIiiEEEEEENS_9enable_ifIXsr25__is_cpp17_input_iteratorIT_EE5valueES7_E4typeES7_NS_15iterator_traitsIS7_E15difference_typeE, symObjAddr: 0x7AC0, symBinAddr: 0x10000AA90, symSize: 0x60 }
  - { offsetInCU: 0xECCB, offset: 0xECCB, size: 0x8, addend: 0x0, symName: __ZNSt3__19__advanceB7v160006INS_16reverse_iteratorIPNS_4pairIiiEEEEEEvRT_NS_15iterator_traitsIS6_E15difference_typeENS_26random_access_iterator_tagE, symObjAddr: 0x7B70, symBinAddr: 0x10000AB40, symSize: 0x30 }
  - { offsetInCU: 0xED14, offset: 0xED14, size: 0x8, addend: 0x0, symName: '__ZNSt3__111__push_heapB7v160006INS_17_ClassicAlgPolicyENS_11__wrap_iterIPNS_4pairIiiEEEEZ8DijkstraiRNS_6vectorINS7_I4EdgeNS_9allocatorIS8_EEEENS9_ISB_EEEEE3$_0EEvT0_SG_RT1_', symObjAddr: 0x7E10, symBinAddr: 0x10000ADE0, symSize: 0x50 }
  - { offsetInCU: 0xED81, offset: 0xED81, size: 0x8, addend: 0x0, symName: __ZNSt3__1miB7v160006IPNS_4pairIiiEES3_EEDTmicldtfp_4baseEcldtfp0_4baseEERKNS_11__wrap_iterIT_EERKNS5_IT0_EE, symObjAddr: 0x7E60, symBinAddr: 0x10000AE30, symSize: 0x40 }
  - { offsetInCU: 0xEDCD, offset: 0xEDCD, size: 0x8, addend: 0x0, symName: '__ZNSt3__19__sift_upB7v160006INS_17_ClassicAlgPolicyERZ8DijkstraiRNS_6vectorINS2_I4EdgeNS_9allocatorIS3_EEEENS4_IS6_EEEEE3$_0NS_11__wrap_iterIPNS_4pairIiiEEEEEEvT1_SH_OT0_NS_15iterator_traitsISH_E15difference_typeE', symObjAddr: 0x7EA0, symBinAddr: 0x10000AE70, symSize: 0x150 }
  - { offsetInCU: 0xEEA1, offset: 0xEEA1, size: 0x8, addend: 0x0, symName: '__ZNSt3__18pop_heapB7v160006INS_11__wrap_iterIPNS_4pairIiiEEEEZ8DijkstraiRNS_6vectorINS6_I4EdgeNS_9allocatorIS7_EEEENS8_ISA_EEEEE3$_0EEvT_SF_T0_', symObjAddr: 0x83F0, symBinAddr: 0x10000B3C0, symSize: 0x50 }
  - { offsetInCU: 0xEF05, offset: 0xEF05, size: 0x8, addend: 0x0, symName: '__ZNSt3__110__pop_heapB7v160006INS_17_ClassicAlgPolicyEZ8DijkstraiRNS_6vectorINS2_I4EdgeNS_9allocatorIS3_EEEENS4_IS6_EEEEE3$_0NS_11__wrap_iterIPNS_4pairIiiEEEEEEvT1_SG_RT0_NS_15iterator_traitsISG_E15difference_typeE', symObjAddr: 0x8470, symBinAddr: 0x10000B440, symSize: 0x120 }
  - { offsetInCU: 0xEFB5, offset: 0xEFB5, size: 0x8, addend: 0x0, symName: __ZNSt3__1eqB7v160006IPNS_4pairIiiEEEEbRKNS_11__wrap_iterIT_EES8_, symObjAddr: 0x86C0, symBinAddr: 0x10000B690, symSize: 0x40 }
  - { offsetInCU: 0xF49E, offset: 0xF49E, size: 0x8, addend: 0x0, symName: __ZSt28__throw_bad_array_new_lengthB7v160006v, symObjAddr: 0x1770, symBinAddr: 0x100004740, symSize: 0x40 }
  - { offsetInCU: 0xFB0D, offset: 0xFB0D, size: 0x8, addend: 0x0, symName: __ZNSt3__16vectorI4EdgeNS_9allocatorIS1_EEE26__swap_out_circular_bufferERNS_14__split_bufferIS1_RS3_EE, symObjAddr: 0x2920, symBinAddr: 0x1000058F0, symSize: 0x130 }
  - { offsetInCU: 0x100B6, offset: 0x100B6, size: 0x8, addend: 0x0, symName: __ZNSt3__16vectorINS_4pairIiiEENS_9allocatorIS2_EEE26__swap_out_circular_bufferERNS_14__split_bufferIS2_RS4_EE, symObjAddr: 0x6C00, symBinAddr: 0x100009BD0, symSize: 0x130 }
  - { offsetInCU: 0x1238B, offset: 0x1238B, size: 0x8, addend: 0x0, symName: __ZlsRNSt3__113basic_ostreamIcNS_11char_traitsIcEEEERKNS_6vectorIiNS_9allocatorIiEEEE, symObjAddr: 0x0, symBinAddr: 0x100002FD0, symSize: 0x140 }
  - { offsetInCU: 0x12425, offset: 0x12425, size: 0x8, addend: 0x0, symName: __ZNKSt3__16vectorIiNS_9allocatorIiEEE5beginB7v160006Ev, symObjAddr: 0x140, symBinAddr: 0x100003110, symSize: 0x30 }
  - { offsetInCU: 0x1244D, offset: 0x1244D, size: 0x8, addend: 0x0, symName: __ZNKSt3__16vectorIiNS_9allocatorIiEEE3endB7v160006Ev, symObjAddr: 0x170, symBinAddr: 0x100003140, symSize: 0x30 }
  - { offsetInCU: 0x12475, offset: 0x12475, size: 0x8, addend: 0x0, symName: __ZNKSt3__111__wrap_iterIPKiEdeB7v160006Ev, symObjAddr: 0x1D0, symBinAddr: 0x1000031A0, symSize: 0x20 }
  - { offsetInCU: 0x1249B, offset: 0x1249B, size: 0x8, addend: 0x0, symName: __ZNSt3__114numeric_limitsIiE3maxB7v160006Ev, symObjAddr: 0x1F0, symBinAddr: 0x1000031C0, symSize: 0x10 }
  - { offsetInCU: 0x124AF, offset: 0x124AF, size: 0x8, addend: 0x0, symName: __ZNSt3__111__wrap_iterIPKiEppB7v160006Ev, symObjAddr: 0x240, symBinAddr: 0x100003210, symSize: 0x20 }
  - { offsetInCU: 0x124D4, offset: 0x124D4, size: 0x8, addend: 0x0, symName: __Z16GetAdjacencyListv, symObjAddr: 0x290, symBinAddr: 0x100003260, symSize: 0x160 }
  - { offsetInCU: 0x1256A, offset: 0x1256A, size: 0x8, addend: 0x0, symName: __ZNSt3__16vectorINS0_I4EdgeNS_9allocatorIS1_EEEENS2_IS4_EEEC1Em, symObjAddr: 0x3F0, symBinAddr: 0x1000033C0, symSize: 0x30 }
  - { offsetInCU: 0x125A5, offset: 0x125A5, size: 0x8, addend: 0x0, symName: __ZNSt3__16vectorINS0_I4EdgeNS_9allocatorIS1_EEEENS2_IS4_EEEixB7v160006Em, symObjAddr: 0x420, symBinAddr: 0x1000033F0, symSize: 0x20 }
  - { offsetInCU: 0x125E2, offset: 0x125E2, size: 0x8, addend: 0x0, symName: __ZNSt3__16vectorI4EdgeNS_9allocatorIS1_EEE12emplace_backIJiRiEEERS1_DpOT_, symObjAddr: 0x440, symBinAddr: 0x100003410, symSize: 0x70 }
  - { offsetInCU: 0x12638, offset: 0x12638, size: 0x8, addend: 0x0, symName: __ZNSt3__16vectorINS0_I4EdgeNS_9allocatorIS1_EEEENS2_IS4_EEED1B7v160006Ev, symObjAddr: 0x4B0, symBinAddr: 0x100003480, symSize: 0x20 }
  - { offsetInCU: 0x12661, offset: 0x12661, size: 0x8, addend: 0x0, symName: __Z8DijkstraiRNSt3__16vectorINS0_I4EdgeNS_9allocatorIS1_EEEENS2_IS4_EEEE, symObjAddr: 0x4D0, symBinAddr: 0x1000034A0, symSize: 0x3F0 }
  - { offsetInCU: 0x1279F, offset: 0x1279F, size: 0x8, addend: 0x0, symName: __ZNKSt3__16vectorINS0_I4EdgeNS_9allocatorIS1_EEEENS2_IS4_EEE4sizeB7v160006Ev, symObjAddr: 0x8C0, symBinAddr: 0x100003890, symSize: 0x30 }
  - { offsetInCU: 0x127C5, offset: 0x127C5, size: 0x8, addend: 0x0, symName: __ZNSt3__16vectorIbNS_9allocatorIbEEEC1EmRKb, symObjAddr: 0x8F0, symBinAddr: 0x1000038C0, symSize: 0x30 }
  - { offsetInCU: 0x1280F, offset: 0x1280F, size: 0x8, addend: 0x0, symName: __ZNSt3__16vectorIiNS_9allocatorIiEEEC1EmRKi, symObjAddr: 0x920, symBinAddr: 0x1000038F0, symSize: 0x30 }
  - { offsetInCU: 0x12859, offset: 0x12859, size: 0x8, addend: 0x0, symName: __ZNSt3__16vectorIiNS_9allocatorIiEEEixB7v160006Em, symObjAddr: 0x950, symBinAddr: 0x100003920, symSize: 0x20 }
  - { offsetInCU: 0x128DE, offset: 0x128DE, size: 0x8, addend: 0x0, symName: '__ZNSt3__114priority_queueINS_4pairIiiEENS_6vectorIS2_NS_9allocatorIS2_EEEEZ8DijkstraiRNS3_INS3_I4EdgeNS4_IS7_EEEENS4_IS9_EEEEE3$_0EC1B7v160006Ev', symObjAddr: 0x970, symBinAddr: 0x100003940, symSize: 0x20 }
  - { offsetInCU: 0x12908, offset: 0x12908, size: 0x8, addend: 0x0, symName: '__ZNSt3__114priority_queueINS_4pairIiiEENS_6vectorIS2_NS_9allocatorIS2_EEEEZ8DijkstraiRNS3_INS3_I4EdgeNS4_IS7_EEEENS4_IS9_EEEEE3$_0E4pushEOS2_', symObjAddr: 0x990, symBinAddr: 0x100003960, symSize: 0x50 }
  - { offsetInCU: 0x1293F, offset: 0x1293F, size: 0x8, addend: 0x0, symName: __ZNSt3__14pairIiiEC1B7v160006IRiiLPv0EEEOT_OT0_, symObjAddr: 0x9E0, symBinAddr: 0x1000039B0, symSize: 0x30 }
  - { offsetInCU: 0x1299D, offset: 0x1299D, size: 0x8, addend: 0x0, symName: '__ZNKSt3__114priority_queueINS_4pairIiiEENS_6vectorIS2_NS_9allocatorIS2_EEEEZ8DijkstraiRNS3_INS3_I4EdgeNS4_IS7_EEEENS4_IS9_EEEEE3$_0E5emptyB7v160006Ev', symObjAddr: 0xA10, symBinAddr: 0x1000039E0, symSize: 0x20 }
  - { offsetInCU: 0x129C2, offset: 0x129C2, size: 0x8, addend: 0x0, symName: '__Z13GetNextVertexINSt3__114priority_queueINS0_4pairIiiEENS0_6vectorIS3_NS0_9allocatorIS3_EEEEZ8DijkstraiRNS4_INS4_I4EdgeNS5_IS8_EEEENS5_ISA_EEEEE3$_0EEEiRT_RNS4_IbNS5_IbEEEE', symObjAddr: 0xA30, symBinAddr: 0x100003A00, symSize: 0xD0 }
  - { offsetInCU: 0x12A14, offset: 0x12A14, size: 0x8, addend: 0x0, symName: __ZNSt3__16vectorI4EdgeNS_9allocatorIS1_EEE5beginB7v160006Ev, symObjAddr: 0xB00, symBinAddr: 0x100003AD0, symSize: 0x30 }
  - { offsetInCU: 0x12A3C, offset: 0x12A3C, size: 0x8, addend: 0x0, symName: __ZNSt3__16vectorI4EdgeNS_9allocatorIS1_EEE3endB7v160006Ev, symObjAddr: 0xB30, symBinAddr: 0x100003B00, symSize: 0x30 }
  - { offsetInCU: 0x12A64, offset: 0x12A64, size: 0x8, addend: 0x0, symName: __ZNKSt3__111__wrap_iterIP4EdgeEdeB7v160006Ev, symObjAddr: 0xB90, symBinAddr: 0x100003B60, symSize: 0x20 }
  - { offsetInCU: 0x12A8A, offset: 0x12A8A, size: 0x8, addend: 0x0, symName: __ZNSt3__14pairIiiEC1B7v160006IRKiRiLPv0EEEOT_OT0_, symObjAddr: 0xBE0, symBinAddr: 0x100003BB0, symSize: 0x30 }
  - { offsetInCU: 0x12AE8, offset: 0x12AE8, size: 0x8, addend: 0x0, symName: __ZNSt3__111__wrap_iterIP4EdgeEppB7v160006Ev, symObjAddr: 0xC10, symBinAddr: 0x100003BE0, symSize: 0x20 }
  - { offsetInCU: 0x12B0E, offset: 0x12B0E, size: 0x8, addend: 0x0, symName: '__ZNSt3__114priority_queueINS_4pairIiiEENS_6vectorIS2_NS_9allocatorIS2_EEEEZ8DijkstraiRNS3_INS3_I4EdgeNS4_IS7_EEEENS4_IS9_EEEEE3$_0ED1Ev', symObjAddr: 0xC30, symBinAddr: 0x100003C00, symSize: 0x20 }
  - { offsetInCU: 0x12B3B, offset: 0x12B3B, size: 0x8, addend: 0x0, symName: __ZNSt3__16vectorIiNS_9allocatorIiEEED1B7v160006Ev, symObjAddr: 0xC50, symBinAddr: 0x100003C20, symSize: 0x20 }
  - { offsetInCU: 0x12B65, offset: 0x12B65, size: 0x8, addend: 0x0, symName: __ZNSt3__16vectorIbNS_9allocatorIbEEED1B7v160006Ev, symObjAddr: 0xC70, symBinAddr: 0x100003C40, symSize: 0x20 }
  - { offsetInCU: 0x12B8E, offset: 0x12B8E, size: 0x8, addend: 0x0, symName: __Z12MainDijkstraRNSt3__16vectorINS0_I4EdgeNS_9allocatorIS1_EEEENS2_IS4_EEEE, symObjAddr: 0xC90, symBinAddr: 0x100003C60, symSize: 0x60 }
  - { offsetInCU: 0x12BD3, offset: 0x12BD3, size: 0x8, addend: 0x0, symName: _main, symObjAddr: 0xCF0, symBinAddr: 0x100003CC0, symSize: 0x70 }
  - { offsetInCU: 0x12BFC, offset: 0x12BFC, size: 0x8, addend: 0x0, symName: __ZNKSt3__16vectorIiNS_9allocatorIiEEE11__make_iterB7v160006EPKi, symObjAddr: 0xD60, symBinAddr: 0x100003D30, symSize: 0x30 }
  - { offsetInCU: 0x12C31, offset: 0x12C31, size: 0x8, addend: 0x0, symName: __ZNSt3__111__wrap_iterIPKiEC1B7v160006EPKvS2_, symObjAddr: 0xD90, symBinAddr: 0x100003D60, symSize: 0x30 }
  - { offsetInCU: 0x12C77, offset: 0x12C77, size: 0x8, addend: 0x0, symName: __ZNSt3__111__wrap_iterIPKiEC2B7v160006EPKvS2_, symObjAddr: 0xDC0, symBinAddr: 0x100003D90, symSize: 0x20 }
  - { offsetInCU: 0x12CBD, offset: 0x12CBD, size: 0x8, addend: 0x0, symName: __ZNKSt3__111__wrap_iterIPKiE4baseB7v160006Ev, symObjAddr: 0xE20, symBinAddr: 0x100003DF0, symSize: 0x20 }
  - { offsetInCU: 0x12CE3, offset: 0x12CE3, size: 0x8, addend: 0x0, symName: __ZNSt3__123__libcpp_numeric_limitsIiLb1EE3maxB7v160006Ev, symObjAddr: 0xE40, symBinAddr: 0x100003E10, symSize: 0x10 }
  - { offsetInCU: 0x12CF7, offset: 0x12CF7, size: 0x8, addend: 0x0, symName: __ZNSt3__16vectorINS0_I4EdgeNS_9allocatorIS1_EEEENS2_IS4_EEEC2Em, symObjAddr: 0xE50, symBinAddr: 0x100003E20, symSize: 0xE0 }
  - { offsetInCU: 0x12D53, offset: 0x12D53, size: 0x8, addend: 0x0, symName: __ZNSt3__117__compressed_pairIPNS_6vectorI4EdgeNS_9allocatorIS2_EEEENS3_IS5_EEEC1B7v160006IDnNS_18__default_init_tagEEEOT_OT0_, symObjAddr: 0xF30, symBinAddr: 0x100003F00, symSize: 0x30 }
  - { offsetInCU: 0x12DAB, offset: 0x12DAB, size: 0x8, addend: 0x0, symName: __ZNSt3__16vectorINS0_I4EdgeNS_9allocatorIS1_EEEENS2_IS4_EEE16__destroy_vectorC1ERS6_, symObjAddr: 0xFA0, symBinAddr: 0x100003F70, symSize: 0x30 }
  - { offsetInCU: 0x12DE4, offset: 0x12DE4, size: 0x8, addend: 0x0, symName: __ZNSt3__16vectorINS0_I4EdgeNS_9allocatorIS1_EEEENS2_IS4_EEE11__vallocateB7v160006Em, symObjAddr: 0xFE0, symBinAddr: 0x100003FB0, symSize: 0xA0 }
  - { offsetInCU: 0x12E28, offset: 0x12E28, size: 0x8, addend: 0x0, symName: __ZNSt3__16vectorINS0_I4EdgeNS_9allocatorIS1_EEEENS2_IS4_EEE18__construct_at_endEm, symObjAddr: 0x1080, symBinAddr: 0x100004050, symSize: 0xC0 }
  - { offsetInCU: 0x12E9A, offset: 0x12E9A, size: 0x8, addend: 0x0, symName: __ZNSt3__128__exception_guard_exceptionsINS_6vectorINS1_I4EdgeNS_9allocatorIS2_EEEENS3_IS5_EEE16__destroy_vectorEE10__completeB7v160006Ev, symObjAddr: 0x1140, symBinAddr: 0x100004110, symSize: 0x20 }
  - { offsetInCU: 0x12EC0, offset: 0x12EC0, size: 0x8, addend: 0x0, symName: __ZNSt3__128__exception_guard_exceptionsINS_6vectorINS1_I4EdgeNS_9allocatorIS2_EEEENS3_IS5_EEE16__destroy_vectorEED1B7v160006Ev, symObjAddr: 0x1160, symBinAddr: 0x100004130, symSize: 0x20 }
  - { offsetInCU: 0x12EEA, offset: 0x12EEA, size: 0x8, addend: 0x0, symName: __ZNSt3__117__compressed_pairIPNS_6vectorI4EdgeNS_9allocatorIS2_EEEENS3_IS5_EEEC2B7v160006IDnNS_18__default_init_tagEEEOT_OT0_, symObjAddr: 0x1180, symBinAddr: 0x100004150, symSize: 0x40 }
  - { offsetInCU: 0x12F42, offset: 0x12F42, size: 0x8, addend: 0x0, symName: __ZNSt3__122__compressed_pair_elemIPNS_6vectorI4EdgeNS_9allocatorIS2_EEEELi0ELb0EEC2B7v160006IDnvEEOT_, symObjAddr: 0x11C0, symBinAddr: 0x100004190, symSize: 0x20 }
  - { offsetInCU: 0x12F84, offset: 0x12F84, size: 0x8, addend: 0x0, symName: __ZNSt3__122__compressed_pair_elemINS_9allocatorINS_6vectorI4EdgeNS1_IS3_EEEEEELi1ELb1EEC2B7v160006ENS_18__default_init_tagE, symObjAddr: 0x11E0, symBinAddr: 0x1000041B0, symSize: 0x20 }
  - { offsetInCU: 0x12FB8, offset: 0x12FB8, size: 0x8, addend: 0x0, symName: __ZNSt3__19allocatorINS_6vectorI4EdgeNS0_IS2_EEEEEC2B7v160006Ev, symObjAddr: 0x1200, symBinAddr: 0x1000041D0, symSize: 0x20 }
  - { offsetInCU: 0x12FE2, offset: 0x12FE2, size: 0x8, addend: 0x0, symName: __ZNSt3__116__non_trivial_ifILb1ENS_9allocatorINS_6vectorI4EdgeNS1_IS3_EEEEEEEC2B7v160006Ev, symObjAddr: 0x1220, symBinAddr: 0x1000041F0, symSize: 0x10 }
  - { offsetInCU: 0x1300C, offset: 0x1300C, size: 0x8, addend: 0x0, symName: __ZNSt3__128__exception_guard_exceptionsINS_6vectorINS1_I4EdgeNS_9allocatorIS2_EEEENS3_IS5_EEE16__destroy_vectorEEC1B7v160006ES8_, symObjAddr: 0x1230, symBinAddr: 0x100004200, symSize: 0x30 }
  - { offsetInCU: 0x13044, offset: 0x13044, size: 0x8, addend: 0x0, symName: __ZNSt3__128__exception_guard_exceptionsINS_6vectorINS1_I4EdgeNS_9allocatorIS2_EEEENS3_IS5_EEE16__destroy_vectorEEC2B7v160006ES8_, symObjAddr: 0x1260, symBinAddr: 0x100004230, symSize: 0x20 }
  - { offsetInCU: 0x1307C, offset: 0x1307C, size: 0x8, addend: 0x0, symName: __ZNSt3__16vectorINS0_I4EdgeNS_9allocatorIS1_EEEENS2_IS4_EEE16__destroy_vectorC2ERS6_, symObjAddr: 0x1280, symBinAddr: 0x100004250, symSize: 0x20 }
  - { offsetInCU: 0x130B5, offset: 0x130B5, size: 0x8, addend: 0x0, symName: __ZNKSt3__16vectorINS0_I4EdgeNS_9allocatorIS1_EEEENS2_IS4_EEE8max_sizeEv, symObjAddr: 0x12A0, symBinAddr: 0x100004270, symSize: 0x60 }
  - { offsetInCU: 0x130DD, offset: 0x130DD, size: 0x8, addend: 0x0, symName: __ZNKSt3__16vectorINS0_I4EdgeNS_9allocatorIS1_EEEENS2_IS4_EEE20__throw_length_errorB7v160006Ev, symObjAddr: 0x1300, symBinAddr: 0x1000042D0, symSize: 0x20 }
  - { offsetInCU: 0x13103, offset: 0x13103, size: 0x8, addend: 0x0, symName: __ZNSt3__16vectorINS0_I4EdgeNS_9allocatorIS1_EEEENS2_IS4_EEE7__allocB7v160006Ev, symObjAddr: 0x1360, symBinAddr: 0x100004330, symSize: 0x20 }
  - { offsetInCU: 0x13129, offset: 0x13129, size: 0x8, addend: 0x0, symName: __ZNSt3__16vectorINS0_I4EdgeNS_9allocatorIS1_EEEENS2_IS4_EEE9__end_capB7v160006Ev, symObjAddr: 0x1380, symBinAddr: 0x100004350, symSize: 0x20 }
  - { offsetInCU: 0x1314F, offset: 0x1314F, size: 0x8, addend: 0x0, symName: __ZNKSt3__16vectorINS0_I4EdgeNS_9allocatorIS1_EEEENS2_IS4_EEE14__annotate_newB7v160006Em, symObjAddr: 0x13A0, symBinAddr: 0x100004370, symSize: 0xA0 }
  - { offsetInCU: 0x1318F, offset: 0x1318F, size: 0x8, addend: 0x0, symName: __ZNSt3__116allocator_traitsINS_9allocatorINS_6vectorI4EdgeNS1_IS3_EEEEEEE8max_sizeB7v160006IS6_vvEEmRKS6_, symObjAddr: 0x1470, symBinAddr: 0x100004440, symSize: 0x30 }
  - { offsetInCU: 0x131BA, offset: 0x131BA, size: 0x8, addend: 0x0, symName: __ZNKSt3__16vectorINS0_I4EdgeNS_9allocatorIS1_EEEENS2_IS4_EEE7__allocB7v160006Ev, symObjAddr: 0x14A0, symBinAddr: 0x100004470, symSize: 0x20 }
  - { offsetInCU: 0x131E0, offset: 0x131E0, size: 0x8, addend: 0x0, symName: __ZNSt3__114numeric_limitsIlE3maxB7v160006Ev, symObjAddr: 0x14C0, symBinAddr: 0x100004490, symSize: 0x10 }
  - { offsetInCU: 0x131FE, offset: 0x131FE, size: 0x8, addend: 0x0, symName: __ZNKSt3__16__lessImmEclB7v160006ERKmS3_, symObjAddr: 0x1530, symBinAddr: 0x100004500, symSize: 0x30 }
  - { offsetInCU: 0x13240, offset: 0x13240, size: 0x8, addend: 0x0, symName: __ZNSt3__114numeric_limitsImE3maxB7v160006Ev, symObjAddr: 0x1560, symBinAddr: 0x100004530, symSize: 0x10 }
  - { offsetInCU: 0x13254, offset: 0x13254, size: 0x8, addend: 0x0, symName: __ZNSt3__123__libcpp_numeric_limitsImLb1EE3maxB7v160006Ev, symObjAddr: 0x1570, symBinAddr: 0x100004540, symSize: 0x10 }
  - { offsetInCU: 0x13268, offset: 0x13268, size: 0x8, addend: 0x0, symName: __ZNKSt3__117__compressed_pairIPNS_6vectorI4EdgeNS_9allocatorIS2_EEEENS3_IS5_EEE6secondB7v160006Ev, symObjAddr: 0x1580, symBinAddr: 0x100004550, symSize: 0x20 }
  - { offsetInCU: 0x1328E, offset: 0x1328E, size: 0x8, addend: 0x0, symName: __ZNKSt3__122__compressed_pair_elemINS_9allocatorINS_6vectorI4EdgeNS1_IS3_EEEEEELi1ELb1EE5__getB7v160006Ev, symObjAddr: 0x15A0, symBinAddr: 0x100004570, symSize: 0x10 }
  - { offsetInCU: 0x132B4, offset: 0x132B4, size: 0x8, addend: 0x0, symName: __ZNSt3__123__libcpp_numeric_limitsIlLb1EE3maxB7v160006Ev, symObjAddr: 0x15B0, symBinAddr: 0x100004580, symSize: 0x10 }
  - { offsetInCU: 0x132C8, offset: 0x132C8, size: 0x8, addend: 0x0, symName: __ZNSt12length_errorC1B7v160006EPKc, symObjAddr: 0x1630, symBinAddr: 0x100004600, symSize: 0x30 }
  - { offsetInCU: 0x13300, offset: 0x13300, size: 0x8, addend: 0x0, symName: __ZNSt12length_errorC2B7v160006EPKc, symObjAddr: 0x1660, symBinAddr: 0x100004630, symSize: 0x40 }
  - { offsetInCU: 0x13338, offset: 0x13338, size: 0x8, addend: 0x0, symName: __ZNSt3__19allocatorINS_6vectorI4EdgeNS0_IS2_EEEEE17allocate_at_leastB7v160006Em, symObjAddr: 0x16E0, symBinAddr: 0x1000046B0, symSize: 0x40 }
  - { offsetInCU: 0x1336C, offset: 0x1336C, size: 0x8, addend: 0x0, symName: __ZNSt3__19allocatorINS_6vectorI4EdgeNS0_IS2_EEEEE8allocateB7v160006Em, symObjAddr: 0x1720, symBinAddr: 0x1000046F0, symSize: 0x50 }
  - { offsetInCU: 0x133A0, offset: 0x133A0, size: 0x8, addend: 0x0, symName: __ZNSt3__117__compressed_pairIPNS_6vectorI4EdgeNS_9allocatorIS2_EEEENS3_IS5_EEE6secondB7v160006Ev, symObjAddr: 0x1880, symBinAddr: 0x100004850, symSize: 0x20 }
  - { offsetInCU: 0x133C6, offset: 0x133C6, size: 0x8, addend: 0x0, symName: __ZNSt3__122__compressed_pair_elemINS_9allocatorINS_6vectorI4EdgeNS1_IS3_EEEEEELi1ELb1EE5__getB7v160006Ev, symObjAddr: 0x18A0, symBinAddr: 0x100004870, symSize: 0x10 }
  - { offsetInCU: 0x133EC, offset: 0x133EC, size: 0x8, addend: 0x0, symName: __ZNSt3__117__compressed_pairIPNS_6vectorI4EdgeNS_9allocatorIS2_EEEENS3_IS5_EEE5firstB7v160006Ev, symObjAddr: 0x18B0, symBinAddr: 0x100004880, symSize: 0x20 }
  - { offsetInCU: 0x13412, offset: 0x13412, size: 0x8, addend: 0x0, symName: __ZNSt3__122__compressed_pair_elemIPNS_6vectorI4EdgeNS_9allocatorIS2_EEEELi0ELb0EE5__getB7v160006Ev, symObjAddr: 0x18D0, symBinAddr: 0x1000048A0, symSize: 0x10 }
  - { offsetInCU: 0x13438, offset: 0x13438, size: 0x8, addend: 0x0, symName: __ZNKSt3__16vectorINS0_I4EdgeNS_9allocatorIS1_EEEENS2_IS4_EEE31__annotate_contiguous_containerB7v160006EPKvS8_S8_S8_, symObjAddr: 0x18E0, symBinAddr: 0x1000048B0, symSize: 0x20 }
  - { offsetInCU: 0x1348A, offset: 0x1348A, size: 0x8, addend: 0x0, symName: __ZNKSt3__16vectorINS0_I4EdgeNS_9allocatorIS1_EEEENS2_IS4_EEE4dataB7v160006Ev, symObjAddr: 0x1900, symBinAddr: 0x1000048D0, symSize: 0x20 }
  - { offsetInCU: 0x134B0, offset: 0x134B0, size: 0x8, addend: 0x0, symName: __ZNKSt3__16vectorINS0_I4EdgeNS_9allocatorIS1_EEEENS2_IS4_EEE8capacityB7v160006Ev, symObjAddr: 0x1920, symBinAddr: 0x1000048F0, symSize: 0x40 }
  - { offsetInCU: 0x134D6, offset: 0x134D6, size: 0x8, addend: 0x0, symName: __ZNKSt3__16vectorINS0_I4EdgeNS_9allocatorIS1_EEEENS2_IS4_EEE9__end_capB7v160006Ev, symObjAddr: 0x1970, symBinAddr: 0x100004940, symSize: 0x20 }
  - { offsetInCU: 0x134FC, offset: 0x134FC, size: 0x8, addend: 0x0, symName: __ZNKSt3__117__compressed_pairIPNS_6vectorI4EdgeNS_9allocatorIS2_EEEENS3_IS5_EEE5firstB7v160006Ev, symObjAddr: 0x1990, symBinAddr: 0x100004960, symSize: 0x20 }
  - { offsetInCU: 0x13522, offset: 0x13522, size: 0x8, addend: 0x0, symName: __ZNKSt3__122__compressed_pair_elemIPNS_6vectorI4EdgeNS_9allocatorIS2_EEEELi0ELb0EE5__getB7v160006Ev, symObjAddr: 0x19B0, symBinAddr: 0x100004980, symSize: 0x10 }
  - { offsetInCU: 0x13563, offset: 0x13563, size: 0x8, addend: 0x0, symName: __ZNSt3__16vectorINS0_I4EdgeNS_9allocatorIS1_EEEENS2_IS4_EEE21_ConstructTransactionC1B7v160006ERS6_m, symObjAddr: 0x19C0, symBinAddr: 0x100004990, symSize: 0x30 }
  - { offsetInCU: 0x135AB, offset: 0x135AB, size: 0x8, addend: 0x0, symName: __ZNSt3__116allocator_traitsINS_9allocatorINS_6vectorI4EdgeNS1_IS3_EEEEEEE9constructB7v160006IS5_JEvvEEvRS6_PT_DpOT0_, symObjAddr: 0x19F0, symBinAddr: 0x1000049C0, symSize: 0x20 }
  - { offsetInCU: 0x135EA, offset: 0x135EA, size: 0x8, addend: 0x0, symName: __ZNSt3__16vectorINS0_I4EdgeNS_9allocatorIS1_EEEENS2_IS4_EEE21_ConstructTransactionD1B7v160006Ev, symObjAddr: 0x1A10, symBinAddr: 0x1000049E0, symSize: 0x20 }
  - { offsetInCU: 0x13614, offset: 0x13614, size: 0x8, addend: 0x0, symName: __ZNSt3__16vectorINS0_I4EdgeNS_9allocatorIS1_EEEENS2_IS4_EEE21_ConstructTransactionC2B7v160006ERS6_m, symObjAddr: 0x1A30, symBinAddr: 0x100004A00, symSize: 0x40 }
  - { offsetInCU: 0x1365C, offset: 0x1365C, size: 0x8, addend: 0x0, symName: __ZNSt3__16vectorI4EdgeNS_9allocatorIS1_EEEC1B7v160006Ev, symObjAddr: 0x1AA0, symBinAddr: 0x100004A70, symSize: 0x20 }
  - { offsetInCU: 0x13686, offset: 0x13686, size: 0x8, addend: 0x0, symName: __ZNSt3__16vectorI4EdgeNS_9allocatorIS1_EEEC2B7v160006Ev, symObjAddr: 0x1AC0, symBinAddr: 0x100004A90, symSize: 0x60 }
  - { offsetInCU: 0x136B0, offset: 0x136B0, size: 0x8, addend: 0x0, symName: __ZNSt3__117__compressed_pairIP4EdgeNS_9allocatorIS1_EEEC1B7v160006IDnNS_18__default_init_tagEEEOT_OT0_, symObjAddr: 0x1B20, symBinAddr: 0x100004AF0, symSize: 0x30 }
  - { offsetInCU: 0x13708, offset: 0x13708, size: 0x8, addend: 0x0, symName: __ZNSt3__117__compressed_pairIP4EdgeNS_9allocatorIS1_EEEC2B7v160006IDnNS_18__default_init_tagEEEOT_OT0_, symObjAddr: 0x1B60, symBinAddr: 0x100004B30, symSize: 0x40 }
  - { offsetInCU: 0x13760, offset: 0x13760, size: 0x8, addend: 0x0, symName: __ZNSt3__122__compressed_pair_elemIP4EdgeLi0ELb0EEC2B7v160006IDnvEEOT_, symObjAddr: 0x1BA0, symBinAddr: 0x100004B70, symSize: 0x20 }
  - { offsetInCU: 0x137A2, offset: 0x137A2, size: 0x8, addend: 0x0, symName: __ZNSt3__122__compressed_pair_elemINS_9allocatorI4EdgeEELi1ELb1EEC2B7v160006ENS_18__default_init_tagE, symObjAddr: 0x1BC0, symBinAddr: 0x100004B90, symSize: 0x20 }
  - { offsetInCU: 0x137D6, offset: 0x137D6, size: 0x8, addend: 0x0, symName: __ZNSt3__19allocatorI4EdgeEC2B7v160006Ev, symObjAddr: 0x1BE0, symBinAddr: 0x100004BB0, symSize: 0x20 }
  - { offsetInCU: 0x13800, offset: 0x13800, size: 0x8, addend: 0x0, symName: __ZNSt3__116__non_trivial_ifILb1ENS_9allocatorI4EdgeEEEC2B7v160006Ev, symObjAddr: 0x1C00, symBinAddr: 0x100004BD0, symSize: 0x10 }
  - { offsetInCU: 0x1382A, offset: 0x1382A, size: 0x8, addend: 0x0, symName: __ZNSt3__16vectorINS0_I4EdgeNS_9allocatorIS1_EEEENS2_IS4_EEE21_ConstructTransactionD2B7v160006Ev, symObjAddr: 0x1C10, symBinAddr: 0x100004BE0, symSize: 0x20 }
  - { offsetInCU: 0x13854, offset: 0x13854, size: 0x8, addend: 0x0, symName: __ZNSt3__128__exception_guard_exceptionsINS_6vectorINS1_I4EdgeNS_9allocatorIS2_EEEENS3_IS5_EEE16__destroy_vectorEED2B7v160006Ev, symObjAddr: 0x1C30, symBinAddr: 0x100004C00, symSize: 0x40 }
  - { offsetInCU: 0x1387E, offset: 0x1387E, size: 0x8, addend: 0x0, symName: __ZNSt3__16vectorINS0_I4EdgeNS_9allocatorIS1_EEEENS2_IS4_EEE16__destroy_vectorclB7v160006Ev, symObjAddr: 0x1C70, symBinAddr: 0x100004C40, symSize: 0x90 }
  - { offsetInCU: 0x138A4, offset: 0x138A4, size: 0x8, addend: 0x0, symName: __ZNKSt3__16vectorINS0_I4EdgeNS_9allocatorIS1_EEEENS2_IS4_EEE17__annotate_deleteB7v160006Ev, symObjAddr: 0x1D00, symBinAddr: 0x100004CD0, symSize: 0xB0 }
  - { offsetInCU: 0x138CA, offset: 0x138CA, size: 0x8, addend: 0x0, symName: __ZNSt3__16vectorINS0_I4EdgeNS_9allocatorIS1_EEEENS2_IS4_EEE7__clearB7v160006Ev, symObjAddr: 0x1DC0, symBinAddr: 0x100004D90, symSize: 0x20 }
  - { offsetInCU: 0x138F0, offset: 0x138F0, size: 0x8, addend: 0x0, symName: __ZNSt3__116allocator_traitsINS_9allocatorINS_6vectorI4EdgeNS1_IS3_EEEEEEE10deallocateB7v160006ERS6_PS5_m, symObjAddr: 0x1DE0, symBinAddr: 0x100004DB0, symSize: 0x30 }
  - { offsetInCU: 0x13932, offset: 0x13932, size: 0x8, addend: 0x0, symName: __ZNSt3__16vectorINS0_I4EdgeNS_9allocatorIS1_EEEENS2_IS4_EEE22__base_destruct_at_endB7v160006EPS4_, symObjAddr: 0x1E10, symBinAddr: 0x100004DE0, symSize: 0x80 }
  - { offsetInCU: 0x13976, offset: 0x13976, size: 0x8, addend: 0x0, symName: __ZNSt3__116allocator_traitsINS_9allocatorINS_6vectorI4EdgeNS1_IS3_EEEEEEE7destroyB7v160006IS5_vvEEvRS6_PT_, symObjAddr: 0x1E90, symBinAddr: 0x100004E60, symSize: 0x20 }
  - { offsetInCU: 0x139B0, offset: 0x139B0, size: 0x8, addend: 0x0, symName: __ZNSt3__16vectorI4EdgeNS_9allocatorIS1_EEED1B7v160006Ev, symObjAddr: 0x1EF0, symBinAddr: 0x100004EC0, symSize: 0x20 }
  - { offsetInCU: 0x139DA, offset: 0x139DA, size: 0x8, addend: 0x0, symName: __ZNSt3__16vectorI4EdgeNS_9allocatorIS1_EEED2B7v160006Ev, symObjAddr: 0x1F10, symBinAddr: 0x100004EE0, symSize: 0x40 }
  - { offsetInCU: 0x13A04, offset: 0x13A04, size: 0x8, addend: 0x0, symName: __ZNSt3__16vectorI4EdgeNS_9allocatorIS1_EEE16__destroy_vectorC1ERS4_, symObjAddr: 0x1F50, symBinAddr: 0x100004F20, symSize: 0x30 }
  - { offsetInCU: 0x13A3D, offset: 0x13A3D, size: 0x8, addend: 0x0, symName: __ZNSt3__16vectorI4EdgeNS_9allocatorIS1_EEE16__destroy_vectorclB7v160006Ev, symObjAddr: 0x1F80, symBinAddr: 0x100004F50, symSize: 0x90 }
  - { offsetInCU: 0x13A63, offset: 0x13A63, size: 0x8, addend: 0x0, symName: __ZNSt3__16vectorI4EdgeNS_9allocatorIS1_EEE16__destroy_vectorC2ERS4_, symObjAddr: 0x2010, symBinAddr: 0x100004FE0, symSize: 0x20 }
  - { offsetInCU: 0x13A9C, offset: 0x13A9C, size: 0x8, addend: 0x0, symName: __ZNKSt3__16vectorI4EdgeNS_9allocatorIS1_EEE17__annotate_deleteB7v160006Ev, symObjAddr: 0x2030, symBinAddr: 0x100005000, symSize: 0xB0 }
  - { offsetInCU: 0x13AC2, offset: 0x13AC2, size: 0x8, addend: 0x0, symName: __ZNSt3__16vectorI4EdgeNS_9allocatorIS1_EEE7__clearB7v160006Ev, symObjAddr: 0x20F0, symBinAddr: 0x1000050C0, symSize: 0x20 }
  - { offsetInCU: 0x13AE8, offset: 0x13AE8, size: 0x8, addend: 0x0, symName: __ZNSt3__116allocator_traitsINS_9allocatorI4EdgeEEE10deallocateB7v160006ERS3_PS2_m, symObjAddr: 0x2110, symBinAddr: 0x1000050E0, symSize: 0x30 }
  - { offsetInCU: 0x13B2A, offset: 0x13B2A, size: 0x8, addend: 0x0, symName: __ZNSt3__16vectorI4EdgeNS_9allocatorIS1_EEE7__allocB7v160006Ev, symObjAddr: 0x2140, symBinAddr: 0x100005110, symSize: 0x20 }
  - { offsetInCU: 0x13B50, offset: 0x13B50, size: 0x8, addend: 0x0, symName: __ZNKSt3__16vectorI4EdgeNS_9allocatorIS1_EEE8capacityB7v160006Ev, symObjAddr: 0x2160, symBinAddr: 0x100005130, symSize: 0x30 }
  - { offsetInCU: 0x13B76, offset: 0x13B76, size: 0x8, addend: 0x0, symName: __ZNKSt3__16vectorI4EdgeNS_9allocatorIS1_EEE31__annotate_contiguous_containerB7v160006EPKvS6_S6_S6_, symObjAddr: 0x2190, symBinAddr: 0x100005160, symSize: 0x20 }
  - { offsetInCU: 0x13BC8, offset: 0x13BC8, size: 0x8, addend: 0x0, symName: __ZNKSt3__16vectorI4EdgeNS_9allocatorIS1_EEE4dataB7v160006Ev, symObjAddr: 0x21B0, symBinAddr: 0x100005180, symSize: 0x20 }
  - { offsetInCU: 0x13BEE, offset: 0x13BEE, size: 0x8, addend: 0x0, symName: __ZNKSt3__16vectorI4EdgeNS_9allocatorIS1_EEE4sizeB7v160006Ev, symObjAddr: 0x21D0, symBinAddr: 0x1000051A0, symSize: 0x20 }
  - { offsetInCU: 0x13C14, offset: 0x13C14, size: 0x8, addend: 0x0, symName: __ZNSt3__16vectorI4EdgeNS_9allocatorIS1_EEE22__base_destruct_at_endB7v160006EPS1_, symObjAddr: 0x2200, symBinAddr: 0x1000051D0, symSize: 0x80 }
  - { offsetInCU: 0x13C58, offset: 0x13C58, size: 0x8, addend: 0x0, symName: __ZNSt3__116allocator_traitsINS_9allocatorI4EdgeEEE7destroyB7v160006IS2_vvEEvRS3_PT_, symObjAddr: 0x2280, symBinAddr: 0x100005250, symSize: 0x20 }
  - { offsetInCU: 0x13C92, offset: 0x13C92, size: 0x8, addend: 0x0, symName: __ZNSt3__19allocatorI4EdgeE10deallocateB7v160006EPS1_m, symObjAddr: 0x22D0, symBinAddr: 0x1000052A0, symSize: 0x40 }
  - { offsetInCU: 0x13CD4, offset: 0x13CD4, size: 0x8, addend: 0x0, symName: __ZNSt3__117__compressed_pairIP4EdgeNS_9allocatorIS1_EEE6secondB7v160006Ev, symObjAddr: 0x2410, symBinAddr: 0x1000053E0, symSize: 0x20 }
  - { offsetInCU: 0x13CFA, offset: 0x13CFA, size: 0x8, addend: 0x0, symName: __ZNSt3__122__compressed_pair_elemINS_9allocatorI4EdgeEELi1ELb1EE5__getB7v160006Ev, symObjAddr: 0x2430, symBinAddr: 0x100005400, symSize: 0x10 }
  - { offsetInCU: 0x13D20, offset: 0x13D20, size: 0x8, addend: 0x0, symName: __ZNKSt3__16vectorI4EdgeNS_9allocatorIS1_EEE9__end_capB7v160006Ev, symObjAddr: 0x2440, symBinAddr: 0x100005410, symSize: 0x20 }
  - { offsetInCU: 0x13D46, offset: 0x13D46, size: 0x8, addend: 0x0, symName: __ZNKSt3__117__compressed_pairIP4EdgeNS_9allocatorIS1_EEE5firstB7v160006Ev, symObjAddr: 0x2460, symBinAddr: 0x100005430, symSize: 0x20 }
  - { offsetInCU: 0x13D6C, offset: 0x13D6C, size: 0x8, addend: 0x0, symName: __ZNKSt3__122__compressed_pair_elemIP4EdgeLi0ELb0EE5__getB7v160006Ev, symObjAddr: 0x2480, symBinAddr: 0x100005450, symSize: 0x10 }
  - { offsetInCU: 0x13D92, offset: 0x13D92, size: 0x8, addend: 0x0, symName: __ZNSt3__19allocatorINS_6vectorI4EdgeNS0_IS2_EEEEE10deallocateB7v160006EPS4_m, symObjAddr: 0x2490, symBinAddr: 0x100005460, symSize: 0x50 }
  - { offsetInCU: 0x13DD4, offset: 0x13DD4, size: 0x8, addend: 0x0, symName: __ZNSt3__16vectorI4EdgeNS_9allocatorIS1_EEE9__end_capB7v160006Ev, symObjAddr: 0x24E0, symBinAddr: 0x1000054B0, symSize: 0x20 }
  - { offsetInCU: 0x13DFA, offset: 0x13DFA, size: 0x8, addend: 0x0, symName: __ZNSt3__16vectorI4EdgeNS_9allocatorIS1_EEE22__construct_one_at_endB7v160006IJiRiEEEvDpOT_, symObjAddr: 0x2500, symBinAddr: 0x1000054D0, symSize: 0xA0 }
  - { offsetInCU: 0x13E5D, offset: 0x13E5D, size: 0x8, addend: 0x0, symName: __ZNSt3__16vectorI4EdgeNS_9allocatorIS1_EEE24__emplace_back_slow_pathIJiRiEEEvDpOT_, symObjAddr: 0x25A0, symBinAddr: 0x100005570, symSize: 0xE0 }
  - { offsetInCU: 0x13ED2, offset: 0x13ED2, size: 0x8, addend: 0x0, symName: __ZNSt3__16vectorI4EdgeNS_9allocatorIS1_EEE4backB7v160006Ev, symObjAddr: 0x2680, symBinAddr: 0x100005650, symSize: 0x20 }
  - { offsetInCU: 0x13EF8, offset: 0x13EF8, size: 0x8, addend: 0x0, symName: __ZNSt3__117__compressed_pairIP4EdgeNS_9allocatorIS1_EEE5firstB7v160006Ev, symObjAddr: 0x26A0, symBinAddr: 0x100005670, symSize: 0x20 }
  - { offsetInCU: 0x13F1E, offset: 0x13F1E, size: 0x8, addend: 0x0, symName: __ZNSt3__122__compressed_pair_elemIP4EdgeLi0ELb0EE5__getB7v160006Ev, symObjAddr: 0x26C0, symBinAddr: 0x100005690, symSize: 0x10 }
  - { offsetInCU: 0x13F5F, offset: 0x13F5F, size: 0x8, addend: 0x0, symName: __ZNSt3__16vectorI4EdgeNS_9allocatorIS1_EEE21_ConstructTransactionC1B7v160006ERS4_m, symObjAddr: 0x26D0, symBinAddr: 0x1000056A0, symSize: 0x30 }
  - { offsetInCU: 0x13FA7, offset: 0x13FA7, size: 0x8, addend: 0x0, symName: __ZNSt3__116allocator_traitsINS_9allocatorI4EdgeEEE9constructB7v160006IS2_JiRiEvvEEvRS3_PT_DpOT0_, symObjAddr: 0x2700, symBinAddr: 0x1000056D0, symSize: 0x30 }
  - { offsetInCU: 0x1400F, offset: 0x1400F, size: 0x8, addend: 0x0, symName: __ZNSt3__16vectorI4EdgeNS_9allocatorIS1_EEE21_ConstructTransactionD1B7v160006Ev, symObjAddr: 0x2730, symBinAddr: 0x100005700, symSize: 0x20 }
  - { offsetInCU: 0x14039, offset: 0x14039, size: 0x8, addend: 0x0, symName: __ZNSt3__16vectorI4EdgeNS_9allocatorIS1_EEE21_ConstructTransactionC2B7v160006ERS4_m, symObjAddr: 0x2750, symBinAddr: 0x100005720, symSize: 0x40 }
  - { offsetInCU: 0x14081, offset: 0x14081, size: 0x8, addend: 0x0, symName: __ZN4EdgeC1Eii, symObjAddr: 0x27D0, symBinAddr: 0x1000057A0, symSize: 0x30 }
  - { offsetInCU: 0x140C7, offset: 0x140C7, size: 0x8, addend: 0x0, symName: __ZN4EdgeC2Eii, symObjAddr: 0x2800, symBinAddr: 0x1000057D0, symSize: 0x20 }
  - { offsetInCU: 0x1410D, offset: 0x1410D, size: 0x8, addend: 0x0, symName: __ZNSt3__16vectorI4EdgeNS_9allocatorIS1_EEE21_ConstructTransactionD2B7v160006Ev, symObjAddr: 0x2820, symBinAddr: 0x1000057F0, symSize: 0x20 }
  - { offsetInCU: 0x14137, offset: 0x14137, size: 0x8, addend: 0x0, symName: __ZNKSt3__16vectorI4EdgeNS_9allocatorIS1_EEE11__recommendB7v160006Em, symObjAddr: 0x2840, symBinAddr: 0x100005810, symSize: 0xA0 }
  - { offsetInCU: 0x1418C, offset: 0x1418C, size: 0x8, addend: 0x0, symName: __ZNSt3__114__split_bufferI4EdgeRNS_9allocatorIS1_EEEC1EmmS4_, symObjAddr: 0x28E0, symBinAddr: 0x1000058B0, symSize: 0x40 }
  - { offsetInCU: 0x141E2, offset: 0x141E2, size: 0x8, addend: 0x0, symName: __ZNSt3__114__split_bufferI4EdgeRNS_9allocatorIS1_EEED1Ev, symObjAddr: 0x2A50, symBinAddr: 0x100005A20, symSize: 0x20 }
  - { offsetInCU: 0x1420E, offset: 0x1420E, size: 0x8, addend: 0x0, symName: __ZNKSt3__16vectorI4EdgeNS_9allocatorIS1_EEE8max_sizeEv, symObjAddr: 0x2A70, symBinAddr: 0x100005A40, symSize: 0x60 }
  - { offsetInCU: 0x14236, offset: 0x14236, size: 0x8, addend: 0x0, symName: __ZNKSt3__16vectorI4EdgeNS_9allocatorIS1_EEE20__throw_length_errorB7v160006Ev, symObjAddr: 0x2AD0, symBinAddr: 0x100005AA0, symSize: 0x20 }
  - { offsetInCU: 0x14267, offset: 0x14267, size: 0x8, addend: 0x0, symName: __ZNSt3__116allocator_traitsINS_9allocatorI4EdgeEEE8max_sizeB7v160006IS3_vvEEmRKS3_, symObjAddr: 0x2B20, symBinAddr: 0x100005AF0, symSize: 0x20 }
  - { offsetInCU: 0x14292, offset: 0x14292, size: 0x8, addend: 0x0, symName: __ZNKSt3__16vectorI4EdgeNS_9allocatorIS1_EEE7__allocB7v160006Ev, symObjAddr: 0x2B40, symBinAddr: 0x100005B10, symSize: 0x20 }
  - { offsetInCU: 0x142B8, offset: 0x142B8, size: 0x8, addend: 0x0, symName: __ZNKSt3__117__compressed_pairIP4EdgeNS_9allocatorIS1_EEE6secondB7v160006Ev, symObjAddr: 0x2B60, symBinAddr: 0x100005B30, symSize: 0x20 }
  - { offsetInCU: 0x142DE, offset: 0x142DE, size: 0x8, addend: 0x0, symName: __ZNKSt3__122__compressed_pair_elemINS_9allocatorI4EdgeEELi1ELb1EE5__getB7v160006Ev, symObjAddr: 0x2B80, symBinAddr: 0x100005B50, symSize: 0x10 }
  - { offsetInCU: 0x14304, offset: 0x14304, size: 0x8, addend: 0x0, symName: __ZNSt3__114__split_bufferI4EdgeRNS_9allocatorIS1_EEEC2EmmS4_, symObjAddr: 0x2BE0, symBinAddr: 0x100005BB0, symSize: 0xD0 }
  - { offsetInCU: 0x14377, offset: 0x14377, size: 0x8, addend: 0x0, symName: __ZNSt3__117__compressed_pairIP4EdgeRNS_9allocatorIS1_EEEC1B7v160006IDnS5_EEOT_OT0_, symObjAddr: 0x2CB0, symBinAddr: 0x100005C80, symSize: 0x30 }
  - { offsetInCU: 0x143CF, offset: 0x143CF, size: 0x8, addend: 0x0, symName: __ZNSt3__114__split_bufferI4EdgeRNS_9allocatorIS1_EEE7__allocB7v160006Ev, symObjAddr: 0x2D20, symBinAddr: 0x100005CF0, symSize: 0x20 }
  - { offsetInCU: 0x143F5, offset: 0x143F5, size: 0x8, addend: 0x0, symName: __ZNSt3__114__split_bufferI4EdgeRNS_9allocatorIS1_EEE9__end_capB7v160006Ev, symObjAddr: 0x2D40, symBinAddr: 0x100005D10, symSize: 0x20 }
  - { offsetInCU: 0x1441B, offset: 0x1441B, size: 0x8, addend: 0x0, symName: __ZNSt3__117__compressed_pairIP4EdgeRNS_9allocatorIS1_EEEC2B7v160006IDnS5_EEOT_OT0_, symObjAddr: 0x2D60, symBinAddr: 0x100005D30, symSize: 0x40 }
  - { offsetInCU: 0x14473, offset: 0x14473, size: 0x8, addend: 0x0, symName: __ZNSt3__122__compressed_pair_elemIRNS_9allocatorI4EdgeEELi1ELb0EEC2B7v160006IS4_vEEOT_, symObjAddr: 0x2DA0, symBinAddr: 0x100005D70, symSize: 0x20 }
  - { offsetInCU: 0x144B5, offset: 0x144B5, size: 0x8, addend: 0x0, symName: __ZNSt3__19allocatorI4EdgeE17allocate_at_leastB7v160006Em, symObjAddr: 0x2E00, symBinAddr: 0x100005DD0, symSize: 0x40 }
  - { offsetInCU: 0x144E9, offset: 0x144E9, size: 0x8, addend: 0x0, symName: __ZNSt3__19allocatorI4EdgeE8allocateB7v160006Em, symObjAddr: 0x2E40, symBinAddr: 0x100005E10, symSize: 0x50 }
  - { offsetInCU: 0x1451D, offset: 0x1451D, size: 0x8, addend: 0x0, symName: __ZNSt3__117__compressed_pairIP4EdgeRNS_9allocatorIS1_EEE6secondB7v160006Ev, symObjAddr: 0x2E90, symBinAddr: 0x100005E60, symSize: 0x20 }
  - { offsetInCU: 0x14543, offset: 0x14543, size: 0x8, addend: 0x0, symName: __ZNSt3__122__compressed_pair_elemIRNS_9allocatorI4EdgeEELi1ELb0EE5__getB7v160006Ev, symObjAddr: 0x2EB0, symBinAddr: 0x100005E80, symSize: 0x20 }
  - { offsetInCU: 0x14569, offset: 0x14569, size: 0x8, addend: 0x0, symName: __ZNSt3__117__compressed_pairIP4EdgeRNS_9allocatorIS1_EEE5firstB7v160006Ev, symObjAddr: 0x2ED0, symBinAddr: 0x100005EA0, symSize: 0x20 }
  - { offsetInCU: 0x1458F, offset: 0x1458F, size: 0x8, addend: 0x0, symName: __ZNSt3__116reverse_iteratorIP4EdgeEC1B7v160006ES2_, symObjAddr: 0x2F60, symBinAddr: 0x100005F30, symSize: 0x30 }
  - { offsetInCU: 0x145C7, offset: 0x145C7, size: 0x8, addend: 0x0, symName: __ZNKSt3__116reverse_iteratorIP4EdgeE4baseB7v160006Ev, symObjAddr: 0x2F90, symBinAddr: 0x100005F60, symSize: 0x20 }
  - { offsetInCU: 0x145ED, offset: 0x145ED, size: 0x8, addend: 0x0, symName: __ZNKSt3__16vectorI4EdgeNS_9allocatorIS1_EEE14__annotate_newB7v160006Em, symObjAddr: 0x2FF0, symBinAddr: 0x100005FC0, symSize: 0xB0 }
  - { offsetInCU: 0x1464D, offset: 0x1464D, size: 0x8, addend: 0x0, symName: __ZNKSt3__111__move_loopINS_17_ClassicAlgPolicyEEclB7v160006INS_16reverse_iteratorIP4EdgeEES7_S7_EENS_4pairIT_T1_EES9_T0_SA_, symObjAddr: 0x34C0, symBinAddr: 0x100006490, symSize: 0xA0 }
  - { offsetInCU: 0x146B8, offset: 0x146B8, size: 0x8, addend: 0x0, symName: __ZNSt3__119__unwrap_range_implINS_16reverse_iteratorIP4EdgeEES4_E8__unwrapB7v160006ES4_S4_, symObjAddr: 0x36A0, symBinAddr: 0x100006670, symSize: 0x90 }
  - { offsetInCU: 0x146EF, offset: 0x146EF, size: 0x8, addend: 0x0, symName: __ZNSt3__14pairINS_16reverse_iteratorIP4EdgeEES4_EC1B7v160006IS4_S4_LPv0EEEOT_OT0_, symObjAddr: 0x3730, symBinAddr: 0x100006700, symSize: 0x30 }
  - { offsetInCU: 0x1474D, offset: 0x1474D, size: 0x8, addend: 0x0, symName: __ZNSt3__14pairINS_16reverse_iteratorIP4EdgeEES4_EC2B7v160006IS4_S4_LPv0EEEOT_OT0_, symObjAddr: 0x3760, symBinAddr: 0x100006730, symSize: 0x40 }
  - { offsetInCU: 0x147B1, offset: 0x147B1, size: 0x8, addend: 0x0, symName: __ZNSt3__18_IterOpsINS_17_ClassicAlgPolicyEE11__iter_moveB7v160006IRNS_16reverse_iteratorIP4EdgeEEEENS_9enable_ifIXsr12is_referenceIDTdeclsr3stdE7declvalIRT_EEEEE5valueEDTclsr3stdE4movedeclsr3stdE7declvalISB_EEEEE4typeEOSA_, symObjAddr: 0x37E0, symBinAddr: 0x1000067B0, symSize: 0x20 }
  - { offsetInCU: 0x147DD, offset: 0x147DD, size: 0x8, addend: 0x0, symName: __ZNKSt3__116reverse_iteratorIP4EdgeEdeB7v160006Ev, symObjAddr: 0x3800, symBinAddr: 0x1000067D0, symSize: 0x30 }
  - { offsetInCU: 0x14811, offset: 0x14811, size: 0x8, addend: 0x0, symName: __ZNSt3__116reverse_iteratorIP4EdgeEppB7v160006Ev, symObjAddr: 0x3830, symBinAddr: 0x100006800, symSize: 0x20 }
  - { offsetInCU: 0x14837, offset: 0x14837, size: 0x8, addend: 0x0, symName: __ZNSt3__18_IterOpsINS_17_ClassicAlgPolicyEE25__validate_iter_referenceB7v160006IRNS_16reverse_iteratorIP4EdgeEEEEvv, symObjAddr: 0x3850, symBinAddr: 0x100006820, symSize: 0x10 }
  - { offsetInCU: 0x14855, offset: 0x14855, size: 0x8, addend: 0x0, symName: __ZNSt3__118__unwrap_iter_implINS_16reverse_iteratorIP4EdgeEELb0EE8__unwrapB7v160006ES4_, symObjAddr: 0x3860, symBinAddr: 0x100006830, symSize: 0x20 }
  - { offsetInCU: 0x14878, offset: 0x14878, size: 0x8, addend: 0x0, symName: __ZNSt3__119__unwrap_range_implINS_16reverse_iteratorIP4EdgeEES4_E8__rewrapB7v160006ES4_S4_, symObjAddr: 0x3880, symBinAddr: 0x100006850, symSize: 0x60 }
  - { offsetInCU: 0x148A9, offset: 0x148A9, size: 0x8, addend: 0x0, symName: __ZNSt3__118__unwrap_iter_implINS_16reverse_iteratorIP4EdgeEELb0EE8__rewrapB7v160006ES4_S4_, symObjAddr: 0x38E0, symBinAddr: 0x1000068B0, symSize: 0x30 }
  - { offsetInCU: 0x148D6, offset: 0x148D6, size: 0x8, addend: 0x0, symName: __ZNSt3__116reverse_iteratorIP4EdgeEC2B7v160006ES2_, symObjAddr: 0x3910, symBinAddr: 0x1000068E0, symSize: 0x30 }
  - { offsetInCU: 0x1490E, offset: 0x1490E, size: 0x8, addend: 0x0, symName: __ZNSt3__114__split_bufferI4EdgeRNS_9allocatorIS1_EEED2Ev, symObjAddr: 0x3940, symBinAddr: 0x100006910, symSize: 0x70 }
  - { offsetInCU: 0x1493A, offset: 0x1493A, size: 0x8, addend: 0x0, symName: __ZNSt3__114__split_bufferI4EdgeRNS_9allocatorIS1_EEE5clearB7v160006Ev, symObjAddr: 0x39B0, symBinAddr: 0x100006980, symSize: 0x20 }
  - { offsetInCU: 0x14960, offset: 0x14960, size: 0x8, addend: 0x0, symName: __ZNKSt3__114__split_bufferI4EdgeRNS_9allocatorIS1_EEE8capacityB7v160006Ev, symObjAddr: 0x39D0, symBinAddr: 0x1000069A0, symSize: 0x30 }
  - { offsetInCU: 0x14986, offset: 0x14986, size: 0x8, addend: 0x0, symName: __ZNSt3__114__split_bufferI4EdgeRNS_9allocatorIS1_EEE17__destruct_at_endB7v160006EPS1_, symObjAddr: 0x3A00, symBinAddr: 0x1000069D0, symSize: 0x30 }
  - { offsetInCU: 0x149BA, offset: 0x149BA, size: 0x8, addend: 0x0, symName: __ZNSt3__114__split_bufferI4EdgeRNS_9allocatorIS1_EEE17__destruct_at_endB7v160006EPS1_NS_17integral_constantIbLb0EEE, symObjAddr: 0x3A30, symBinAddr: 0x100006A00, symSize: 0x80 }
  - { offsetInCU: 0x149FA, offset: 0x149FA, size: 0x8, addend: 0x0, symName: __ZNKSt3__114__split_bufferI4EdgeRNS_9allocatorIS1_EEE9__end_capB7v160006Ev, symObjAddr: 0x3AB0, symBinAddr: 0x100006A80, symSize: 0x20 }
  - { offsetInCU: 0x14A20, offset: 0x14A20, size: 0x8, addend: 0x0, symName: __ZNKSt3__117__compressed_pairIP4EdgeRNS_9allocatorIS1_EEE5firstB7v160006Ev, symObjAddr: 0x3AD0, symBinAddr: 0x100006AA0, symSize: 0x20 }
  - { offsetInCU: 0x14A46, offset: 0x14A46, size: 0x8, addend: 0x0, symName: __ZNSt3__16vectorINS0_I4EdgeNS_9allocatorIS1_EEEENS2_IS4_EEED2B7v160006Ev, symObjAddr: 0x3AF0, symBinAddr: 0x100006AC0, symSize: 0x40 }
  - { offsetInCU: 0x14A70, offset: 0x14A70, size: 0x8, addend: 0x0, symName: __ZNSt3__16vectorIbNS_9allocatorIbEEEC2EmRKb, symObjAddr: 0x3B30, symBinAddr: 0x100006B00, symSize: 0x80 }
  - { offsetInCU: 0x14ABA, offset: 0x14ABA, size: 0x8, addend: 0x0, symName: __ZNSt3__117__compressed_pairImNS_9allocatorImEEEC1B7v160006IiNS_18__default_init_tagEEEOT_OT0_, symObjAddr: 0x3BB0, symBinAddr: 0x100006B80, symSize: 0x30 }
  - { offsetInCU: 0x14B12, offset: 0x14B12, size: 0x8, addend: 0x0, symName: __ZNSt3__16vectorIbNS_9allocatorIbEEE11__vallocateB7v160006Em, symObjAddr: 0x3BE0, symBinAddr: 0x100006BB0, symSize: 0xA0 }
  - { offsetInCU: 0x14B56, offset: 0x14B56, size: 0x8, addend: 0x0, symName: __ZNSt3__16vectorIbNS_9allocatorIbEEE18__construct_at_endB7v160006Emb, symObjAddr: 0x3C80, symBinAddr: 0x100006C50, symSize: 0xE0 }
  - { offsetInCU: 0x14BAB, offset: 0x14BAB, size: 0x8, addend: 0x0, symName: __ZNSt3__117__compressed_pairImNS_9allocatorImEEEC2B7v160006IiNS_18__default_init_tagEEEOT_OT0_, symObjAddr: 0x3D60, symBinAddr: 0x100006D30, symSize: 0x40 }
  - { offsetInCU: 0x14C03, offset: 0x14C03, size: 0x8, addend: 0x0, symName: __ZNSt3__122__compressed_pair_elemImLi0ELb0EEC2B7v160006IivEEOT_, symObjAddr: 0x3DA0, symBinAddr: 0x100006D70, symSize: 0x20 }
  - { offsetInCU: 0x14C45, offset: 0x14C45, size: 0x8, addend: 0x0, symName: __ZNSt3__122__compressed_pair_elemINS_9allocatorImEELi1ELb1EEC2B7v160006ENS_18__default_init_tagE, symObjAddr: 0x3DC0, symBinAddr: 0x100006D90, symSize: 0x20 }
  - { offsetInCU: 0x14C79, offset: 0x14C79, size: 0x8, addend: 0x0, symName: __ZNSt3__19allocatorImEC2B7v160006Ev, symObjAddr: 0x3DE0, symBinAddr: 0x100006DB0, symSize: 0x20 }
  - { offsetInCU: 0x14CA3, offset: 0x14CA3, size: 0x8, addend: 0x0, symName: __ZNSt3__116__non_trivial_ifILb1ENS_9allocatorImEEEC2B7v160006Ev, symObjAddr: 0x3E00, symBinAddr: 0x100006DD0, symSize: 0x10 }
  - { offsetInCU: 0x14CCD, offset: 0x14CCD, size: 0x8, addend: 0x0, symName: __ZNKSt3__16vectorIbNS_9allocatorIbEEE8max_sizeEv, symObjAddr: 0x3E10, symBinAddr: 0x100006DE0, symSize: 0x70 }
  - { offsetInCU: 0x14D13, offset: 0x14D13, size: 0x8, addend: 0x0, symName: __ZNKSt3__16vectorIbNS_9allocatorIbEEE20__throw_length_errorB7v160006Ev, symObjAddr: 0x3E80, symBinAddr: 0x100006E50, symSize: 0x20 }
  - { offsetInCU: 0x14D39, offset: 0x14D39, size: 0x8, addend: 0x0, symName: __ZNSt3__16vectorIbNS_9allocatorIbEEE7__allocB7v160006Ev, symObjAddr: 0x3EE0, symBinAddr: 0x100006EB0, symSize: 0x20 }
  - { offsetInCU: 0x14D5F, offset: 0x14D5F, size: 0x8, addend: 0x0, symName: __ZNSt3__16vectorIbNS_9allocatorIbEEE26__external_cap_to_internalB7v160006Em, symObjAddr: 0x3F00, symBinAddr: 0x100006ED0, symSize: 0x20 }
  - { offsetInCU: 0x14D83, offset: 0x14D83, size: 0x8, addend: 0x0, symName: __ZNSt3__16vectorIbNS_9allocatorIbEEE5__capB7v160006Ev, symObjAddr: 0x3F20, symBinAddr: 0x100006EF0, symSize: 0x20 }
  - { offsetInCU: 0x14DB4, offset: 0x14DB4, size: 0x8, addend: 0x0, symName: __ZNSt3__116allocator_traitsINS_9allocatorImEEE8max_sizeB7v160006IS2_vvEEmRKS2_, symObjAddr: 0x3F40, symBinAddr: 0x100006F10, symSize: 0x20 }
  - { offsetInCU: 0x14DDF, offset: 0x14DDF, size: 0x8, addend: 0x0, symName: __ZNKSt3__16vectorIbNS_9allocatorIbEEE7__allocB7v160006Ev, symObjAddr: 0x3F60, symBinAddr: 0x100006F30, symSize: 0x20 }
  - { offsetInCU: 0x14E05, offset: 0x14E05, size: 0x8, addend: 0x0, symName: __ZNSt3__16vectorIbNS_9allocatorIbEEE26__internal_cap_to_externalB7v160006Em, symObjAddr: 0x3F80, symBinAddr: 0x100006F50, symSize: 0x20 }
  - { offsetInCU: 0x14E29, offset: 0x14E29, size: 0x8, addend: 0x0, symName: __ZNKSt3__117__compressed_pairImNS_9allocatorImEEE6secondB7v160006Ev, symObjAddr: 0x3FA0, symBinAddr: 0x100006F70, symSize: 0x20 }
  - { offsetInCU: 0x14E4F, offset: 0x14E4F, size: 0x8, addend: 0x0, symName: __ZNKSt3__122__compressed_pair_elemINS_9allocatorImEELi1ELb1EE5__getB7v160006Ev, symObjAddr: 0x3FC0, symBinAddr: 0x100006F90, symSize: 0x10 }
  - { offsetInCU: 0x14E75, offset: 0x14E75, size: 0x8, addend: 0x0, symName: __ZNSt3__19allocatorImE17allocate_at_leastB7v160006Em, symObjAddr: 0x4010, symBinAddr: 0x100006FE0, symSize: 0x40 }
  - { offsetInCU: 0x14EA9, offset: 0x14EA9, size: 0x8, addend: 0x0, symName: __ZNSt3__19allocatorImE8allocateB7v160006Em, symObjAddr: 0x4050, symBinAddr: 0x100007020, symSize: 0x50 }
  - { offsetInCU: 0x14EDD, offset: 0x14EDD, size: 0x8, addend: 0x0, symName: __ZNSt3__117__compressed_pairImNS_9allocatorImEEE6secondB7v160006Ev, symObjAddr: 0x40A0, symBinAddr: 0x100007070, symSize: 0x20 }
  - { offsetInCU: 0x14F03, offset: 0x14F03, size: 0x8, addend: 0x0, symName: __ZNSt3__122__compressed_pair_elemINS_9allocatorImEELi1ELb1EE5__getB7v160006Ev, symObjAddr: 0x40C0, symBinAddr: 0x100007090, symSize: 0x10 }
  - { offsetInCU: 0x14F29, offset: 0x14F29, size: 0x8, addend: 0x0, symName: __ZNSt3__117__compressed_pairImNS_9allocatorImEEE5firstB7v160006Ev, symObjAddr: 0x40D0, symBinAddr: 0x1000070A0, symSize: 0x20 }
  - { offsetInCU: 0x14F4F, offset: 0x14F4F, size: 0x8, addend: 0x0, symName: __ZNSt3__122__compressed_pair_elemImLi0ELb0EE5__getB7v160006Ev, symObjAddr: 0x40F0, symBinAddr: 0x1000070C0, symSize: 0x10 }
  - { offsetInCU: 0x14F75, offset: 0x14F75, size: 0x8, addend: 0x0, symName: __ZNSt3__16vectorIbNS_9allocatorIbEEE11__make_iterB7v160006Em, symObjAddr: 0x4180, symBinAddr: 0x100007150, symSize: 0x50 }
  - { offsetInCU: 0x14FAA, offset: 0x14FAA, size: 0x8, addend: 0x0, symName: __ZNSt3__114__bit_iteratorINS_6vectorIbNS_9allocatorIbEEEELb0ELm0EEC1B7v160006ERKS5_, symObjAddr: 0x4310, symBinAddr: 0x1000072E0, symSize: 0x30 }
  - { offsetInCU: 0x14FE3, offset: 0x14FE3, size: 0x8, addend: 0x0, symName: __ZNSt3__114__bit_iteratorINS_6vectorIbNS_9allocatorIbEEEELb0ELm0EEC2B7v160006ERKS5_, symObjAddr: 0x4530, symBinAddr: 0x100007500, symSize: 0x30 }
  - { offsetInCU: 0x1501C, offset: 0x1501C, size: 0x8, addend: 0x0, symName: __ZNSt3__114__bit_iteratorINS_6vectorIbNS_9allocatorIbEEEELb0ELm0EEC1B7v160006EPmj, symObjAddr: 0x45F0, symBinAddr: 0x1000075C0, symSize: 0x30 }
  - { offsetInCU: 0x15064, offset: 0x15064, size: 0x8, addend: 0x0, symName: __ZNSt3__114__bit_iteratorINS_6vectorIbNS_9allocatorIbEEEELb0ELm0EEC2B7v160006EPmj, symObjAddr: 0x4620, symBinAddr: 0x1000075F0, symSize: 0x30 }
  - { offsetInCU: 0x150AC, offset: 0x150AC, size: 0x8, addend: 0x0, symName: __ZNSt3__16vectorIiNS_9allocatorIiEEEC2EmRKi, symObjAddr: 0x4650, symBinAddr: 0x100007620, symSize: 0xE0 }
  - { offsetInCU: 0x1510B, offset: 0x1510B, size: 0x8, addend: 0x0, symName: __ZNSt3__117__compressed_pairIPiNS_9allocatorIiEEEC1B7v160006IDnNS_18__default_init_tagEEEOT_OT0_, symObjAddr: 0x4730, symBinAddr: 0x100007700, symSize: 0x30 }
  - { offsetInCU: 0x15163, offset: 0x15163, size: 0x8, addend: 0x0, symName: __ZNSt3__16vectorIiNS_9allocatorIiEEE16__destroy_vectorC1ERS3_, symObjAddr: 0x47A0, symBinAddr: 0x100007770, symSize: 0x30 }
  - { offsetInCU: 0x1519C, offset: 0x1519C, size: 0x8, addend: 0x0, symName: __ZNSt3__16vectorIiNS_9allocatorIiEEE11__vallocateB7v160006Em, symObjAddr: 0x47E0, symBinAddr: 0x1000077B0, symSize: 0xA0 }
  - { offsetInCU: 0x151E0, offset: 0x151E0, size: 0x8, addend: 0x0, symName: __ZNSt3__16vectorIiNS_9allocatorIiEEE18__construct_at_endEmRKi, symObjAddr: 0x4880, symBinAddr: 0x100007850, symSize: 0xC0 }
  - { offsetInCU: 0x15261, offset: 0x15261, size: 0x8, addend: 0x0, symName: __ZNSt3__128__exception_guard_exceptionsINS_6vectorIiNS_9allocatorIiEEE16__destroy_vectorEE10__completeB7v160006Ev, symObjAddr: 0x4940, symBinAddr: 0x100007910, symSize: 0x20 }
  - { offsetInCU: 0x15287, offset: 0x15287, size: 0x8, addend: 0x0, symName: __ZNSt3__128__exception_guard_exceptionsINS_6vectorIiNS_9allocatorIiEEE16__destroy_vectorEED1B7v160006Ev, symObjAddr: 0x4960, symBinAddr: 0x100007930, symSize: 0x20 }
  - { offsetInCU: 0x152B1, offset: 0x152B1, size: 0x8, addend: 0x0, symName: __ZNSt3__117__compressed_pairIPiNS_9allocatorIiEEEC2B7v160006IDnNS_18__default_init_tagEEEOT_OT0_, symObjAddr: 0x4980, symBinAddr: 0x100007950, symSize: 0x40 }
  - { offsetInCU: 0x15309, offset: 0x15309, size: 0x8, addend: 0x0, symName: __ZNSt3__122__compressed_pair_elemIPiLi0ELb0EEC2B7v160006IDnvEEOT_, symObjAddr: 0x49C0, symBinAddr: 0x100007990, symSize: 0x20 }
  - { offsetInCU: 0x1534B, offset: 0x1534B, size: 0x8, addend: 0x0, symName: __ZNSt3__122__compressed_pair_elemINS_9allocatorIiEELi1ELb1EEC2B7v160006ENS_18__default_init_tagE, symObjAddr: 0x49E0, symBinAddr: 0x1000079B0, symSize: 0x20 }
  - { offsetInCU: 0x1537F, offset: 0x1537F, size: 0x8, addend: 0x0, symName: __ZNSt3__19allocatorIiEC2B7v160006Ev, symObjAddr: 0x4A00, symBinAddr: 0x1000079D0, symSize: 0x20 }
  - { offsetInCU: 0x153A9, offset: 0x153A9, size: 0x8, addend: 0x0, symName: __ZNSt3__116__non_trivial_ifILb1ENS_9allocatorIiEEEC2B7v160006Ev, symObjAddr: 0x4A20, symBinAddr: 0x1000079F0, symSize: 0x10 }
  - { offsetInCU: 0x153D3, offset: 0x153D3, size: 0x8, addend: 0x0, symName: __ZNSt3__128__exception_guard_exceptionsINS_6vectorIiNS_9allocatorIiEEE16__destroy_vectorEEC1B7v160006ES5_, symObjAddr: 0x4A30, symBinAddr: 0x100007A00, symSize: 0x30 }
  - { offsetInCU: 0x1540B, offset: 0x1540B, size: 0x8, addend: 0x0, symName: __ZNSt3__128__exception_guard_exceptionsINS_6vectorIiNS_9allocatorIiEEE16__destroy_vectorEEC2B7v160006ES5_, symObjAddr: 0x4A60, symBinAddr: 0x100007A30, symSize: 0x20 }
  - { offsetInCU: 0x15443, offset: 0x15443, size: 0x8, addend: 0x0, symName: __ZNSt3__16vectorIiNS_9allocatorIiEEE16__destroy_vectorC2ERS3_, symObjAddr: 0x4A80, symBinAddr: 0x100007A50, symSize: 0x20 }
  - { offsetInCU: 0x1547C, offset: 0x1547C, size: 0x8, addend: 0x0, symName: __ZNKSt3__16vectorIiNS_9allocatorIiEEE8max_sizeEv, symObjAddr: 0x4AA0, symBinAddr: 0x100007A70, symSize: 0x60 }
  - { offsetInCU: 0x154A4, offset: 0x154A4, size: 0x8, addend: 0x0, symName: __ZNKSt3__16vectorIiNS_9allocatorIiEEE20__throw_length_errorB7v160006Ev, symObjAddr: 0x4B00, symBinAddr: 0x100007AD0, symSize: 0x20 }
  - { offsetInCU: 0x154CA, offset: 0x154CA, size: 0x8, addend: 0x0, symName: __ZNSt3__16vectorIiNS_9allocatorIiEEE7__allocB7v160006Ev, symObjAddr: 0x4B60, symBinAddr: 0x100007B30, symSize: 0x20 }
  - { offsetInCU: 0x154F0, offset: 0x154F0, size: 0x8, addend: 0x0, symName: __ZNSt3__16vectorIiNS_9allocatorIiEEE9__end_capB7v160006Ev, symObjAddr: 0x4B80, symBinAddr: 0x100007B50, symSize: 0x20 }
  - { offsetInCU: 0x15516, offset: 0x15516, size: 0x8, addend: 0x0, symName: __ZNKSt3__16vectorIiNS_9allocatorIiEEE14__annotate_newB7v160006Em, symObjAddr: 0x4BA0, symBinAddr: 0x100007B70, symSize: 0xB0 }
  - { offsetInCU: 0x15556, offset: 0x15556, size: 0x8, addend: 0x0, symName: __ZNSt3__116allocator_traitsINS_9allocatorIiEEE8max_sizeB7v160006IS2_vvEEmRKS2_, symObjAddr: 0x4C50, symBinAddr: 0x100007C20, symSize: 0x20 }
  - { offsetInCU: 0x15581, offset: 0x15581, size: 0x8, addend: 0x0, symName: __ZNKSt3__16vectorIiNS_9allocatorIiEEE7__allocB7v160006Ev, symObjAddr: 0x4C70, symBinAddr: 0x100007C40, symSize: 0x20 }
  - { offsetInCU: 0x155A7, offset: 0x155A7, size: 0x8, addend: 0x0, symName: __ZNKSt3__117__compressed_pairIPiNS_9allocatorIiEEE6secondB7v160006Ev, symObjAddr: 0x4C90, symBinAddr: 0x100007C60, symSize: 0x20 }
  - { offsetInCU: 0x155CD, offset: 0x155CD, size: 0x8, addend: 0x0, symName: __ZNKSt3__122__compressed_pair_elemINS_9allocatorIiEELi1ELb1EE5__getB7v160006Ev, symObjAddr: 0x4CB0, symBinAddr: 0x100007C80, symSize: 0x10 }
  - { offsetInCU: 0x155F3, offset: 0x155F3, size: 0x8, addend: 0x0, symName: __ZNSt3__19allocatorIiE17allocate_at_leastB7v160006Em, symObjAddr: 0x4D00, symBinAddr: 0x100007CD0, symSize: 0x40 }
  - { offsetInCU: 0x15627, offset: 0x15627, size: 0x8, addend: 0x0, symName: __ZNSt3__19allocatorIiE8allocateB7v160006Em, symObjAddr: 0x4D40, symBinAddr: 0x100007D10, symSize: 0x50 }
  - { offsetInCU: 0x1565B, offset: 0x1565B, size: 0x8, addend: 0x0, symName: __ZNSt3__117__compressed_pairIPiNS_9allocatorIiEEE6secondB7v160006Ev, symObjAddr: 0x4D90, symBinAddr: 0x100007D60, symSize: 0x20 }
  - { offsetInCU: 0x15681, offset: 0x15681, size: 0x8, addend: 0x0, symName: __ZNSt3__122__compressed_pair_elemINS_9allocatorIiEELi1ELb1EE5__getB7v160006Ev, symObjAddr: 0x4DB0, symBinAddr: 0x100007D80, symSize: 0x10 }
  - { offsetInCU: 0x156A7, offset: 0x156A7, size: 0x8, addend: 0x0, symName: __ZNSt3__117__compressed_pairIPiNS_9allocatorIiEEE5firstB7v160006Ev, symObjAddr: 0x4DC0, symBinAddr: 0x100007D90, symSize: 0x20 }
  - { offsetInCU: 0x156CD, offset: 0x156CD, size: 0x8, addend: 0x0, symName: __ZNSt3__122__compressed_pair_elemIPiLi0ELb0EE5__getB7v160006Ev, symObjAddr: 0x4DE0, symBinAddr: 0x100007DB0, symSize: 0x10 }
  - { offsetInCU: 0x156F3, offset: 0x156F3, size: 0x8, addend: 0x0, symName: __ZNKSt3__16vectorIiNS_9allocatorIiEEE31__annotate_contiguous_containerB7v160006EPKvS5_S5_S5_, symObjAddr: 0x4DF0, symBinAddr: 0x100007DC0, symSize: 0x20 }
  - { offsetInCU: 0x15745, offset: 0x15745, size: 0x8, addend: 0x0, symName: __ZNKSt3__16vectorIiNS_9allocatorIiEEE4dataB7v160006Ev, symObjAddr: 0x4E10, symBinAddr: 0x100007DE0, symSize: 0x20 }
  - { offsetInCU: 0x1576B, offset: 0x1576B, size: 0x8, addend: 0x0, symName: __ZNKSt3__16vectorIiNS_9allocatorIiEEE8capacityB7v160006Ev, symObjAddr: 0x4E30, symBinAddr: 0x100007E00, symSize: 0x30 }
  - { offsetInCU: 0x15791, offset: 0x15791, size: 0x8, addend: 0x0, symName: __ZNKSt3__16vectorIiNS_9allocatorIiEEE9__end_capB7v160006Ev, symObjAddr: 0x4E70, symBinAddr: 0x100007E40, symSize: 0x20 }
  - { offsetInCU: 0x157B7, offset: 0x157B7, size: 0x8, addend: 0x0, symName: __ZNKSt3__117__compressed_pairIPiNS_9allocatorIiEEE5firstB7v160006Ev, symObjAddr: 0x4E90, symBinAddr: 0x100007E60, symSize: 0x20 }
  - { offsetInCU: 0x157DD, offset: 0x157DD, size: 0x8, addend: 0x0, symName: __ZNKSt3__122__compressed_pair_elemIPiLi0ELb0EE5__getB7v160006Ev, symObjAddr: 0x4EB0, symBinAddr: 0x100007E80, symSize: 0x10 }
  - { offsetInCU: 0x1581E, offset: 0x1581E, size: 0x8, addend: 0x0, symName: __ZNSt3__16vectorIiNS_9allocatorIiEEE21_ConstructTransactionC1B7v160006ERS3_m, symObjAddr: 0x4EC0, symBinAddr: 0x100007E90, symSize: 0x30 }
  - { offsetInCU: 0x15866, offset: 0x15866, size: 0x8, addend: 0x0, symName: __ZNSt3__116allocator_traitsINS_9allocatorIiEEE9constructB7v160006IiJRKiEvvEEvRS2_PT_DpOT0_, symObjAddr: 0x4EF0, symBinAddr: 0x100007EC0, symSize: 0x30 }
  - { offsetInCU: 0x158BA, offset: 0x158BA, size: 0x8, addend: 0x0, symName: __ZNSt3__16vectorIiNS_9allocatorIiEEE21_ConstructTransactionD1B7v160006Ev, symObjAddr: 0x4F20, symBinAddr: 0x100007EF0, symSize: 0x20 }
  - { offsetInCU: 0x158E4, offset: 0x158E4, size: 0x8, addend: 0x0, symName: __ZNSt3__16vectorIiNS_9allocatorIiEEE21_ConstructTransactionC2B7v160006ERS3_m, symObjAddr: 0x4F40, symBinAddr: 0x100007F10, symSize: 0x40 }
  - { offsetInCU: 0x1592C, offset: 0x1592C, size: 0x8, addend: 0x0, symName: __ZNSt3__16vectorIiNS_9allocatorIiEEE21_ConstructTransactionD2B7v160006Ev, symObjAddr: 0x4FB0, symBinAddr: 0x100007F80, symSize: 0x20 }
  - { offsetInCU: 0x15956, offset: 0x15956, size: 0x8, addend: 0x0, symName: __ZNSt3__128__exception_guard_exceptionsINS_6vectorIiNS_9allocatorIiEEE16__destroy_vectorEED2B7v160006Ev, symObjAddr: 0x4FD0, symBinAddr: 0x100007FA0, symSize: 0x40 }
  - { offsetInCU: 0x15980, offset: 0x15980, size: 0x8, addend: 0x0, symName: __ZNSt3__16vectorIiNS_9allocatorIiEEE16__destroy_vectorclB7v160006Ev, symObjAddr: 0x5010, symBinAddr: 0x100007FE0, symSize: 0x90 }
  - { offsetInCU: 0x159A6, offset: 0x159A6, size: 0x8, addend: 0x0, symName: __ZNKSt3__16vectorIiNS_9allocatorIiEEE17__annotate_deleteB7v160006Ev, symObjAddr: 0x50A0, symBinAddr: 0x100008070, symSize: 0xB0 }
  - { offsetInCU: 0x159CC, offset: 0x159CC, size: 0x8, addend: 0x0, symName: __ZNSt3__16vectorIiNS_9allocatorIiEEE7__clearB7v160006Ev, symObjAddr: 0x5160, symBinAddr: 0x100008130, symSize: 0x20 }
  - { offsetInCU: 0x159F2, offset: 0x159F2, size: 0x8, addend: 0x0, symName: __ZNSt3__116allocator_traitsINS_9allocatorIiEEE10deallocateB7v160006ERS2_Pim, symObjAddr: 0x5180, symBinAddr: 0x100008150, symSize: 0x30 }
  - { offsetInCU: 0x15A34, offset: 0x15A34, size: 0x8, addend: 0x0, symName: __ZNKSt3__16vectorIiNS_9allocatorIiEEE4sizeB7v160006Ev, symObjAddr: 0x51B0, symBinAddr: 0x100008180, symSize: 0x20 }
  - { offsetInCU: 0x15A5A, offset: 0x15A5A, size: 0x8, addend: 0x0, symName: __ZNSt3__16vectorIiNS_9allocatorIiEEE22__base_destruct_at_endB7v160006EPi, symObjAddr: 0x51D0, symBinAddr: 0x1000081A0, symSize: 0x80 }
  - { offsetInCU: 0x15A9E, offset: 0x15A9E, size: 0x8, addend: 0x0, symName: __ZNSt3__116allocator_traitsINS_9allocatorIiEEE7destroyB7v160006IivvEEvRS2_PT_, symObjAddr: 0x5250, symBinAddr: 0x100008220, symSize: 0x20 }
  - { offsetInCU: 0x15AD8, offset: 0x15AD8, size: 0x8, addend: 0x0, symName: __ZNSt3__19allocatorIiE10deallocateB7v160006EPim, symObjAddr: 0x52A0, symBinAddr: 0x100008270, symSize: 0x40 }
  - { offsetInCU: 0x15B1A, offset: 0x15B1A, size: 0x8, addend: 0x0, symName: __ZNSt3__14pairIiiEC2B7v160006IRiiLPv0EEEOT_OT0_, symObjAddr: 0x52E0, symBinAddr: 0x1000082B0, symSize: 0x30 }
  - { offsetInCU: 0x15B78, offset: 0x15B78, size: 0x8, addend: 0x0, symName: __ZNSt3__16vectorI4EdgeNS_9allocatorIS1_EEE11__make_iterB7v160006EPS1_, symObjAddr: 0x5310, symBinAddr: 0x1000082E0, symSize: 0x30 }
  - { offsetInCU: 0x15BAD, offset: 0x15BAD, size: 0x8, addend: 0x0, symName: __ZNSt3__111__wrap_iterIP4EdgeEC1B7v160006EPKvS2_, symObjAddr: 0x5340, symBinAddr: 0x100008310, symSize: 0x30 }
  - { offsetInCU: 0x15BF3, offset: 0x15BF3, size: 0x8, addend: 0x0, symName: __ZNSt3__111__wrap_iterIP4EdgeEC2B7v160006EPKvS2_, symObjAddr: 0x5370, symBinAddr: 0x100008340, symSize: 0x20 }
  - { offsetInCU: 0x15C39, offset: 0x15C39, size: 0x8, addend: 0x0, symName: __ZNKSt3__111__wrap_iterIP4EdgeE4baseB7v160006Ev, symObjAddr: 0x53D0, symBinAddr: 0x1000083A0, symSize: 0x20 }
  - { offsetInCU: 0x15C69, offset: 0x15C69, size: 0x8, addend: 0x0, symName: __ZNKSt3__16__lessIiiEclB7v160006ERKiS3_, symObjAddr: 0x5440, symBinAddr: 0x100008410, symSize: 0x30 }
  - { offsetInCU: 0x15CAB, offset: 0x15CAB, size: 0x8, addend: 0x0, symName: __ZNSt3__14pairIiiEC2B7v160006IRKiRiLPv0EEEOT_OT0_, symObjAddr: 0x5470, symBinAddr: 0x100008440, symSize: 0x30 }
  - { offsetInCU: 0x15D09, offset: 0x15D09, size: 0x8, addend: 0x0, symName: '__ZNSt3__114priority_queueINS_4pairIiiEENS_6vectorIS2_NS_9allocatorIS2_EEEEZ8DijkstraiRNS3_INS3_I4EdgeNS4_IS7_EEEENS4_IS9_EEEEE3$_0ED2Ev', symObjAddr: 0x54A0, symBinAddr: 0x100008470, symSize: 0x20 }
  - { offsetInCU: 0x15D36, offset: 0x15D36, size: 0x8, addend: 0x0, symName: __ZNSt3__16vectorINS_4pairIiiEENS_9allocatorIS2_EEED1B7v160006Ev, symObjAddr: 0x54C0, symBinAddr: 0x100008490, symSize: 0x20 }
  - { offsetInCU: 0x15D60, offset: 0x15D60, size: 0x8, addend: 0x0, symName: __ZNSt3__16vectorINS_4pairIiiEENS_9allocatorIS2_EEED2B7v160006Ev, symObjAddr: 0x54E0, symBinAddr: 0x1000084B0, symSize: 0x40 }
  - { offsetInCU: 0x15D8A, offset: 0x15D8A, size: 0x8, addend: 0x0, symName: __ZNSt3__16vectorINS_4pairIiiEENS_9allocatorIS2_EEE16__destroy_vectorC1ERS5_, symObjAddr: 0x5520, symBinAddr: 0x1000084F0, symSize: 0x30 }
  - { offsetInCU: 0x15DC3, offset: 0x15DC3, size: 0x8, addend: 0x0, symName: __ZNSt3__16vectorINS_4pairIiiEENS_9allocatorIS2_EEE16__destroy_vectorclB7v160006Ev, symObjAddr: 0x5550, symBinAddr: 0x100008520, symSize: 0x90 }
  - { offsetInCU: 0x15DE9, offset: 0x15DE9, size: 0x8, addend: 0x0, symName: __ZNSt3__16vectorINS_4pairIiiEENS_9allocatorIS2_EEE16__destroy_vectorC2ERS5_, symObjAddr: 0x55E0, symBinAddr: 0x1000085B0, symSize: 0x20 }
  - { offsetInCU: 0x15E22, offset: 0x15E22, size: 0x8, addend: 0x0, symName: __ZNKSt3__16vectorINS_4pairIiiEENS_9allocatorIS2_EEE17__annotate_deleteB7v160006Ev, symObjAddr: 0x5600, symBinAddr: 0x1000085D0, symSize: 0xB0 }
  - { offsetInCU: 0x15E48, offset: 0x15E48, size: 0x8, addend: 0x0, symName: __ZNSt3__16vectorINS_4pairIiiEENS_9allocatorIS2_EEE7__clearB7v160006Ev, symObjAddr: 0x56C0, symBinAddr: 0x100008690, symSize: 0x20 }
  - { offsetInCU: 0x15E6E, offset: 0x15E6E, size: 0x8, addend: 0x0, symName: __ZNSt3__116allocator_traitsINS_9allocatorINS_4pairIiiEEEEE10deallocateB7v160006ERS4_PS3_m, symObjAddr: 0x56E0, symBinAddr: 0x1000086B0, symSize: 0x30 }
  - { offsetInCU: 0x15EB0, offset: 0x15EB0, size: 0x8, addend: 0x0, symName: __ZNSt3__16vectorINS_4pairIiiEENS_9allocatorIS2_EEE7__allocB7v160006Ev, symObjAddr: 0x5710, symBinAddr: 0x1000086E0, symSize: 0x20 }
  - { offsetInCU: 0x15ED6, offset: 0x15ED6, size: 0x8, addend: 0x0, symName: __ZNKSt3__16vectorINS_4pairIiiEENS_9allocatorIS2_EEE8capacityB7v160006Ev, symObjAddr: 0x5730, symBinAddr: 0x100008700, symSize: 0x30 }
  - { offsetInCU: 0x15EFC, offset: 0x15EFC, size: 0x8, addend: 0x0, symName: __ZNKSt3__16vectorINS_4pairIiiEENS_9allocatorIS2_EEE31__annotate_contiguous_containerB7v160006EPKvS7_S7_S7_, symObjAddr: 0x5760, symBinAddr: 0x100008730, symSize: 0x20 }
  - { offsetInCU: 0x15F4E, offset: 0x15F4E, size: 0x8, addend: 0x0, symName: __ZNKSt3__16vectorINS_4pairIiiEENS_9allocatorIS2_EEE4dataB7v160006Ev, symObjAddr: 0x5780, symBinAddr: 0x100008750, symSize: 0x20 }
  - { offsetInCU: 0x15F74, offset: 0x15F74, size: 0x8, addend: 0x0, symName: __ZNKSt3__16vectorINS_4pairIiiEENS_9allocatorIS2_EEE4sizeB7v160006Ev, symObjAddr: 0x57A0, symBinAddr: 0x100008770, symSize: 0x20 }
  - { offsetInCU: 0x15F9A, offset: 0x15F9A, size: 0x8, addend: 0x0, symName: __ZNSt3__16vectorINS_4pairIiiEENS_9allocatorIS2_EEE22__base_destruct_at_endB7v160006EPS2_, symObjAddr: 0x57D0, symBinAddr: 0x1000087A0, symSize: 0x80 }
  - { offsetInCU: 0x15FDE, offset: 0x15FDE, size: 0x8, addend: 0x0, symName: __ZNSt3__116allocator_traitsINS_9allocatorINS_4pairIiiEEEEE7destroyB7v160006IS3_vvEEvRS4_PT_, symObjAddr: 0x5850, symBinAddr: 0x100008820, symSize: 0x20 }
  - { offsetInCU: 0x16018, offset: 0x16018, size: 0x8, addend: 0x0, symName: __ZNSt3__19allocatorINS_4pairIiiEEE10deallocateB7v160006EPS2_m, symObjAddr: 0x58A0, symBinAddr: 0x100008870, symSize: 0x40 }
  - { offsetInCU: 0x1605A, offset: 0x1605A, size: 0x8, addend: 0x0, symName: __ZNSt3__117__compressed_pairIPNS_4pairIiiEENS_9allocatorIS2_EEE6secondB7v160006Ev, symObjAddr: 0x58E0, symBinAddr: 0x1000088B0, symSize: 0x20 }
  - { offsetInCU: 0x16080, offset: 0x16080, size: 0x8, addend: 0x0, symName: __ZNSt3__122__compressed_pair_elemINS_9allocatorINS_4pairIiiEEEELi1ELb1EE5__getB7v160006Ev, symObjAddr: 0x5900, symBinAddr: 0x1000088D0, symSize: 0x10 }
  - { offsetInCU: 0x160A6, offset: 0x160A6, size: 0x8, addend: 0x0, symName: __ZNKSt3__16vectorINS_4pairIiiEENS_9allocatorIS2_EEE9__end_capB7v160006Ev, symObjAddr: 0x5910, symBinAddr: 0x1000088E0, symSize: 0x20 }
  - { offsetInCU: 0x160CC, offset: 0x160CC, size: 0x8, addend: 0x0, symName: __ZNKSt3__117__compressed_pairIPNS_4pairIiiEENS_9allocatorIS2_EEE5firstB7v160006Ev, symObjAddr: 0x5930, symBinAddr: 0x100008900, symSize: 0x20 }
  - { offsetInCU: 0x160F2, offset: 0x160F2, size: 0x8, addend: 0x0, symName: __ZNKSt3__122__compressed_pair_elemIPNS_4pairIiiEELi0ELb0EE5__getB7v160006Ev, symObjAddr: 0x5950, symBinAddr: 0x100008920, symSize: 0x10 }
  - { offsetInCU: 0x16118, offset: 0x16118, size: 0x8, addend: 0x0, symName: __ZNSt3__16vectorIiNS_9allocatorIiEEED2B7v160006Ev, symObjAddr: 0x5960, symBinAddr: 0x100008930, symSize: 0x40 }
  - { offsetInCU: 0x16142, offset: 0x16142, size: 0x8, addend: 0x0, symName: __ZNSt3__16vectorIbNS_9allocatorIbEEED2B7v160006Ev, symObjAddr: 0x59A0, symBinAddr: 0x100008970, symSize: 0x40 }
  - { offsetInCU: 0x1616C, offset: 0x1616C, size: 0x8, addend: 0x0, symName: __ZNSt3__16vectorIbNS_9allocatorIbEEE16__destroy_vectorC1ERS3_, symObjAddr: 0x59E0, symBinAddr: 0x1000089B0, symSize: 0x30 }
  - { offsetInCU: 0x161A5, offset: 0x161A5, size: 0x8, addend: 0x0, symName: __ZNSt3__16vectorIbNS_9allocatorIbEEE16__destroy_vectorclB7v160006Ev, symObjAddr: 0x5A10, symBinAddr: 0x1000089E0, symSize: 0x70 }
  - { offsetInCU: 0x161CB, offset: 0x161CB, size: 0x8, addend: 0x0, symName: __ZNSt3__16vectorIbNS_9allocatorIbEEE16__destroy_vectorC2ERS3_, symObjAddr: 0x5A80, symBinAddr: 0x100008A50, symSize: 0x20 }
  - { offsetInCU: 0x16204, offset: 0x16204, size: 0x8, addend: 0x0, symName: __ZNSt3__116allocator_traitsINS_9allocatorImEEE10deallocateB7v160006ERS2_Pmm, symObjAddr: 0x5AA0, symBinAddr: 0x100008A70, symSize: 0x30 }
  - { offsetInCU: 0x16246, offset: 0x16246, size: 0x8, addend: 0x0, symName: __ZNSt3__19allocatorImE10deallocateB7v160006EPmm, symObjAddr: 0x5AE0, symBinAddr: 0x100008AB0, symSize: 0x40 }
  - { offsetInCU: 0x16288, offset: 0x16288, size: 0x8, addend: 0x0, symName: __ZNSt3__111char_traitsIcE6lengthEPKc, symObjAddr: 0x5D10, symBinAddr: 0x100008CE0, symSize: 0x30 }
  - { offsetInCU: 0x162CC, offset: 0x162CC, size: 0x8, addend: 0x0, symName: __ZNKSt3__113basic_ostreamIcNS_11char_traitsIcEEE6sentrycvbB7v160006Ev, symObjAddr: 0x5D40, symBinAddr: 0x100008D10, symSize: 0x20 }
  - { offsetInCU: 0x162F2, offset: 0x162F2, size: 0x8, addend: 0x0, symName: __ZNSt3__119ostreambuf_iteratorIcNS_11char_traitsIcEEEC1B7v160006ERNS_13basic_ostreamIcS2_EE, symObjAddr: 0x5F80, symBinAddr: 0x100008F50, symSize: 0x30 }
  - { offsetInCU: 0x1632A, offset: 0x1632A, size: 0x8, addend: 0x0, symName: __ZNKSt3__18ios_base5flagsB7v160006Ev, symObjAddr: 0x5FB0, symBinAddr: 0x100008F80, symSize: 0x20 }
  - { offsetInCU: 0x16352, offset: 0x16352, size: 0x8, addend: 0x0, symName: __ZNKSt3__19basic_iosIcNS_11char_traitsIcEEE4fillB7v160006Ev, symObjAddr: 0x5FD0, symBinAddr: 0x100008FA0, symSize: 0x70 }
  - { offsetInCU: 0x1637A, offset: 0x1637A, size: 0x8, addend: 0x0, symName: __ZNKSt3__119ostreambuf_iteratorIcNS_11char_traitsIcEEE6failedB7v160006Ev, symObjAddr: 0x6040, symBinAddr: 0x100009010, symSize: 0x20 }
  - { offsetInCU: 0x163A0, offset: 0x163A0, size: 0x8, addend: 0x0, symName: __ZNSt3__19basic_iosIcNS_11char_traitsIcEEE8setstateB7v160006Ej, symObjAddr: 0x6060, symBinAddr: 0x100009030, symSize: 0x30 }
  - { offsetInCU: 0x163D5, offset: 0x163D5, size: 0x8, addend: 0x0, symName: __ZNKSt3__18ios_base5widthB7v160006Ev, symObjAddr: 0x6090, symBinAddr: 0x100009060, symSize: 0x20 }
  - { offsetInCU: 0x163FD, offset: 0x163FD, size: 0x8, addend: 0x0, symName: __ZNSt3__115basic_streambufIcNS_11char_traitsIcEEE5sputnB7v160006EPKcl, symObjAddr: 0x60B0, symBinAddr: 0x100009080, symSize: 0x30 }
  - { offsetInCU: 0x1643F, offset: 0x1643F, size: 0x8, addend: 0x0, symName: __ZNSt3__112basic_stringIcNS_11char_traitsIcEENS_9allocatorIcEEEC1B7v160006Emc, symObjAddr: 0x60E0, symBinAddr: 0x1000090B0, symSize: 0x30 }
  - { offsetInCU: 0x16487, offset: 0x16487, size: 0x8, addend: 0x0, symName: __ZNSt3__112basic_stringIcNS_11char_traitsIcEENS_9allocatorIcEEE4dataB7v160006Ev, symObjAddr: 0x6110, symBinAddr: 0x1000090E0, symSize: 0x30 }
  - { offsetInCU: 0x164AD, offset: 0x164AD, size: 0x8, addend: 0x0, symName: __ZNSt3__18ios_base5widthB7v160006El, symObjAddr: 0x6140, symBinAddr: 0x100009110, symSize: 0x30 }
  - { offsetInCU: 0x164F3, offset: 0x164F3, size: 0x8, addend: 0x0, symName: __ZNSt3__112basic_stringIcNS_11char_traitsIcEENS_9allocatorIcEEEC2B7v160006Emc, symObjAddr: 0x6170, symBinAddr: 0x100009140, symSize: 0x50 }
  - { offsetInCU: 0x1653B, offset: 0x1653B, size: 0x8, addend: 0x0, symName: __ZNSt3__117__compressed_pairINS_12basic_stringIcNS_11char_traitsIcEENS_9allocatorIcEEE5__repES5_EC1B7v160006INS_18__default_init_tagESA_EEOT_OT0_, symObjAddr: 0x61C0, symBinAddr: 0x100009190, symSize: 0x30 }
  - { offsetInCU: 0x16593, offset: 0x16593, size: 0x8, addend: 0x0, symName: __ZNSt3__117__compressed_pairINS_12basic_stringIcNS_11char_traitsIcEENS_9allocatorIcEEE5__repES5_EC2B7v160006INS_18__default_init_tagESA_EEOT_OT0_, symObjAddr: 0x6200, symBinAddr: 0x1000091D0, symSize: 0x30 }
  - { offsetInCU: 0x165EB, offset: 0x165EB, size: 0x8, addend: 0x0, symName: __ZNSt3__122__compressed_pair_elemINS_12basic_stringIcNS_11char_traitsIcEENS_9allocatorIcEEE5__repELi0ELb0EEC2B7v160006ENS_18__default_init_tagE, symObjAddr: 0x6230, symBinAddr: 0x100009200, symSize: 0x10 }
  - { offsetInCU: 0x1661F, offset: 0x1661F, size: 0x8, addend: 0x0, symName: __ZNSt3__122__compressed_pair_elemINS_9allocatorIcEELi1ELb1EEC2B7v160006ENS_18__default_init_tagE, symObjAddr: 0x6240, symBinAddr: 0x100009210, symSize: 0x20 }
  - { offsetInCU: 0x16653, offset: 0x16653, size: 0x8, addend: 0x0, symName: __ZNSt3__19allocatorIcEC2B7v160006Ev, symObjAddr: 0x6260, symBinAddr: 0x100009230, symSize: 0x20 }
  - { offsetInCU: 0x1667D, offset: 0x1667D, size: 0x8, addend: 0x0, symName: __ZNSt3__116__non_trivial_ifILb1ENS_9allocatorIcEEEC2B7v160006Ev, symObjAddr: 0x6280, symBinAddr: 0x100009250, symSize: 0x10 }
  - { offsetInCU: 0x166A7, offset: 0x166A7, size: 0x8, addend: 0x0, symName: __ZNSt3__112basic_stringIcNS_11char_traitsIcEENS_9allocatorIcEEE13__get_pointerB7v160006Ev, symObjAddr: 0x62A0, symBinAddr: 0x100009270, symSize: 0x50 }
  - { offsetInCU: 0x166CD, offset: 0x166CD, size: 0x8, addend: 0x0, symName: __ZNKSt3__112basic_stringIcNS_11char_traitsIcEENS_9allocatorIcEEE9__is_longB7v160006Ev, symObjAddr: 0x62F0, symBinAddr: 0x1000092C0, symSize: 0x30 }
  - { offsetInCU: 0x166F3, offset: 0x166F3, size: 0x8, addend: 0x0, symName: __ZNSt3__112basic_stringIcNS_11char_traitsIcEENS_9allocatorIcEEE18__get_long_pointerB7v160006Ev, symObjAddr: 0x6320, symBinAddr: 0x1000092F0, symSize: 0x20 }
  - { offsetInCU: 0x16719, offset: 0x16719, size: 0x8, addend: 0x0, symName: __ZNSt3__112basic_stringIcNS_11char_traitsIcEENS_9allocatorIcEEE19__get_short_pointerB7v160006Ev, symObjAddr: 0x6340, symBinAddr: 0x100009310, symSize: 0x30 }
  - { offsetInCU: 0x1673F, offset: 0x1673F, size: 0x8, addend: 0x0, symName: __ZNKSt3__117__compressed_pairINS_12basic_stringIcNS_11char_traitsIcEENS_9allocatorIcEEE5__repES5_E5firstB7v160006Ev, symObjAddr: 0x6370, symBinAddr: 0x100009340, symSize: 0x20 }
  - { offsetInCU: 0x16765, offset: 0x16765, size: 0x8, addend: 0x0, symName: __ZNKSt3__122__compressed_pair_elemINS_12basic_stringIcNS_11char_traitsIcEENS_9allocatorIcEEE5__repELi0ELb0EE5__getB7v160006Ev, symObjAddr: 0x6390, symBinAddr: 0x100009360, symSize: 0x10 }
  - { offsetInCU: 0x1678B, offset: 0x1678B, size: 0x8, addend: 0x0, symName: __ZNSt3__117__compressed_pairINS_12basic_stringIcNS_11char_traitsIcEENS_9allocatorIcEEE5__repES5_E5firstB7v160006Ev, symObjAddr: 0x63A0, symBinAddr: 0x100009370, symSize: 0x20 }
  - { offsetInCU: 0x167B1, offset: 0x167B1, size: 0x8, addend: 0x0, symName: __ZNSt3__122__compressed_pair_elemINS_12basic_stringIcNS_11char_traitsIcEENS_9allocatorIcEEE5__repELi0ELb0EE5__getB7v160006Ev, symObjAddr: 0x63C0, symBinAddr: 0x100009390, symSize: 0x10 }
  - { offsetInCU: 0x167D7, offset: 0x167D7, size: 0x8, addend: 0x0, symName: __ZNSt3__114pointer_traitsIPcE10pointer_toB7v160006ERc, symObjAddr: 0x63D0, symBinAddr: 0x1000093A0, symSize: 0x10 }
  - { offsetInCU: 0x167FA, offset: 0x167FA, size: 0x8, addend: 0x0, symName: __ZNSt3__119ostreambuf_iteratorIcNS_11char_traitsIcEEEC2B7v160006ERNS_13basic_ostreamIcS2_EE, symObjAddr: 0x63E0, symBinAddr: 0x1000093B0, symSize: 0x50 }
  - { offsetInCU: 0x16832, offset: 0x16832, size: 0x8, addend: 0x0, symName: __ZNKSt3__19basic_iosIcNS_11char_traitsIcEEE5rdbufB7v160006Ev, symObjAddr: 0x6430, symBinAddr: 0x100009400, symSize: 0x20 }
  - { offsetInCU: 0x1685A, offset: 0x1685A, size: 0x8, addend: 0x0, symName: __ZNKSt3__18ios_base5rdbufB7v160006Ev, symObjAddr: 0x6450, symBinAddr: 0x100009420, symSize: 0x20 }
  - { offsetInCU: 0x16880, offset: 0x16880, size: 0x8, addend: 0x0, symName: __ZNSt3__111char_traitsIcE11eq_int_typeEii, symObjAddr: 0x6470, symBinAddr: 0x100009440, symSize: 0x20 }
  - { offsetInCU: 0x168B1, offset: 0x168B1, size: 0x8, addend: 0x0, symName: __ZNSt3__111char_traitsIcE3eofEv, symObjAddr: 0x6490, symBinAddr: 0x100009460, symSize: 0x10 }
  - { offsetInCU: 0x168C5, offset: 0x168C5, size: 0x8, addend: 0x0, symName: __ZNKSt3__19basic_iosIcNS_11char_traitsIcEEE5widenB7v160006Ec, symObjAddr: 0x64A0, symBinAddr: 0x100009470, symSize: 0x80 }
  - { offsetInCU: 0x16933, offset: 0x16933, size: 0x8, addend: 0x0, symName: __ZNKSt3__15ctypeIcE5widenB7v160006Ec, symObjAddr: 0x6550, symBinAddr: 0x100009520, symSize: 0x30 }
  - { offsetInCU: 0x16968, offset: 0x16968, size: 0x8, addend: 0x0, symName: __ZNSt3__18ios_base8setstateB7v160006Ej, symObjAddr: 0x6580, symBinAddr: 0x100009550, symSize: 0x30 }
  - { offsetInCU: 0x1699F, offset: 0x1699F, size: 0x8, addend: 0x0, symName: '__ZNSt3__114priority_queueINS_4pairIiiEENS_6vectorIS2_NS_9allocatorIS2_EEEEZ8DijkstraiRNS3_INS3_I4EdgeNS4_IS7_EEEENS4_IS9_EEEEE3$_0EC2B7v160006Ev', symObjAddr: 0x65D0, symBinAddr: 0x1000095A0, symSize: 0x20 }
  - { offsetInCU: 0x169C9, offset: 0x169C9, size: 0x8, addend: 0x0, symName: __ZNSt3__16vectorINS_4pairIiiEENS_9allocatorIS2_EEEC1B7v160006Ev, symObjAddr: 0x65F0, symBinAddr: 0x1000095C0, symSize: 0x20 }
  - { offsetInCU: 0x169F3, offset: 0x169F3, size: 0x8, addend: 0x0, symName: __ZNSt3__16vectorINS_4pairIiiEENS_9allocatorIS2_EEEC2B7v160006Ev, symObjAddr: 0x6610, symBinAddr: 0x1000095E0, symSize: 0x60 }
  - { offsetInCU: 0x16A1D, offset: 0x16A1D, size: 0x8, addend: 0x0, symName: __ZNSt3__117__compressed_pairIPNS_4pairIiiEENS_9allocatorIS2_EEEC1B7v160006IDnNS_18__default_init_tagEEEOT_OT0_, symObjAddr: 0x6670, symBinAddr: 0x100009640, symSize: 0x30 }
  - { offsetInCU: 0x16A75, offset: 0x16A75, size: 0x8, addend: 0x0, symName: __ZNSt3__117__compressed_pairIPNS_4pairIiiEENS_9allocatorIS2_EEEC2B7v160006IDnNS_18__default_init_tagEEEOT_OT0_, symObjAddr: 0x66B0, symBinAddr: 0x100009680, symSize: 0x40 }
  - { offsetInCU: 0x16ACD, offset: 0x16ACD, size: 0x8, addend: 0x0, symName: __ZNSt3__122__compressed_pair_elemIPNS_4pairIiiEELi0ELb0EEC2B7v160006IDnvEEOT_, symObjAddr: 0x66F0, symBinAddr: 0x1000096C0, symSize: 0x20 }
  - { offsetInCU: 0x16B0F, offset: 0x16B0F, size: 0x8, addend: 0x0, symName: __ZNSt3__122__compressed_pair_elemINS_9allocatorINS_4pairIiiEEEELi1ELb1EEC2B7v160006ENS_18__default_init_tagE, symObjAddr: 0x6710, symBinAddr: 0x1000096E0, symSize: 0x20 }
  - { offsetInCU: 0x16B43, offset: 0x16B43, size: 0x8, addend: 0x0, symName: __ZNSt3__19allocatorINS_4pairIiiEEEC2B7v160006Ev, symObjAddr: 0x6730, symBinAddr: 0x100009700, symSize: 0x20 }
  - { offsetInCU: 0x16B6D, offset: 0x16B6D, size: 0x8, addend: 0x0, symName: __ZNSt3__116__non_trivial_ifILb1ENS_9allocatorINS_4pairIiiEEEEEC2B7v160006Ev, symObjAddr: 0x6750, symBinAddr: 0x100009720, symSize: 0x10 }
  - { offsetInCU: 0x16B97, offset: 0x16B97, size: 0x8, addend: 0x0, symName: __ZNSt3__16vectorINS_4pairIiiEENS_9allocatorIS2_EEE9push_backB7v160006EOS2_, symObjAddr: 0x6760, symBinAddr: 0x100009730, symSize: 0x60 }
  - { offsetInCU: 0x16BCE, offset: 0x16BCE, size: 0x8, addend: 0x0, symName: __ZNSt3__16vectorINS_4pairIiiEENS_9allocatorIS2_EEE5beginB7v160006Ev, symObjAddr: 0x6800, symBinAddr: 0x1000097D0, symSize: 0x30 }
  - { offsetInCU: 0x16BF6, offset: 0x16BF6, size: 0x8, addend: 0x0, symName: __ZNSt3__16vectorINS_4pairIiiEENS_9allocatorIS2_EEE3endB7v160006Ev, symObjAddr: 0x6830, symBinAddr: 0x100009800, symSize: 0x30 }
  - { offsetInCU: 0x16C1E, offset: 0x16C1E, size: 0x8, addend: 0x0, symName: __ZNSt3__16vectorINS_4pairIiiEENS_9allocatorIS2_EEE9__end_capB7v160006Ev, symObjAddr: 0x6860, symBinAddr: 0x100009830, symSize: 0x20 }
  - { offsetInCU: 0x16C44, offset: 0x16C44, size: 0x8, addend: 0x0, symName: __ZNSt3__16vectorINS_4pairIiiEENS_9allocatorIS2_EEE22__construct_one_at_endB7v160006IJS2_EEEvDpOT_, symObjAddr: 0x6880, symBinAddr: 0x100009850, symSize: 0x90 }
  - { offsetInCU: 0x16C93, offset: 0x16C93, size: 0x8, addend: 0x0, symName: __ZNSt3__16vectorINS_4pairIiiEENS_9allocatorIS2_EEE21__push_back_slow_pathIS2_EEvOT_, symObjAddr: 0x6910, symBinAddr: 0x1000098E0, symSize: 0xD0 }
  - { offsetInCU: 0x16CF1, offset: 0x16CF1, size: 0x8, addend: 0x0, symName: __ZNSt3__117__compressed_pairIPNS_4pairIiiEENS_9allocatorIS2_EEE5firstB7v160006Ev, symObjAddr: 0x69E0, symBinAddr: 0x1000099B0, symSize: 0x20 }
  - { offsetInCU: 0x16D17, offset: 0x16D17, size: 0x8, addend: 0x0, symName: __ZNSt3__122__compressed_pair_elemIPNS_4pairIiiEELi0ELb0EE5__getB7v160006Ev, symObjAddr: 0x6A00, symBinAddr: 0x1000099D0, symSize: 0x10 }
  - { offsetInCU: 0x16D58, offset: 0x16D58, size: 0x8, addend: 0x0, symName: __ZNSt3__16vectorINS_4pairIiiEENS_9allocatorIS2_EEE21_ConstructTransactionC1B7v160006ERS5_m, symObjAddr: 0x6A10, symBinAddr: 0x1000099E0, symSize: 0x30 }
  - { offsetInCU: 0x16DA0, offset: 0x16DA0, size: 0x8, addend: 0x0, symName: __ZNSt3__116allocator_traitsINS_9allocatorINS_4pairIiiEEEEE9constructB7v160006IS3_JS3_EvvEEvRS4_PT_DpOT0_, symObjAddr: 0x6A40, symBinAddr: 0x100009A10, symSize: 0x30 }
  - { offsetInCU: 0x16DF4, offset: 0x16DF4, size: 0x8, addend: 0x0, symName: __ZNSt3__16vectorINS_4pairIiiEENS_9allocatorIS2_EEE21_ConstructTransactionD1B7v160006Ev, symObjAddr: 0x6A70, symBinAddr: 0x100009A40, symSize: 0x20 }
  - { offsetInCU: 0x16E1E, offset: 0x16E1E, size: 0x8, addend: 0x0, symName: __ZNSt3__16vectorINS_4pairIiiEENS_9allocatorIS2_EEE21_ConstructTransactionC2B7v160006ERS5_m, symObjAddr: 0x6A90, symBinAddr: 0x100009A60, symSize: 0x40 }
  - { offsetInCU: 0x16E66, offset: 0x16E66, size: 0x8, addend: 0x0, symName: __ZNSt3__16vectorINS_4pairIiiEENS_9allocatorIS2_EEE21_ConstructTransactionD2B7v160006Ev, symObjAddr: 0x6B00, symBinAddr: 0x100009AD0, symSize: 0x20 }
  - { offsetInCU: 0x16E90, offset: 0x16E90, size: 0x8, addend: 0x0, symName: __ZNKSt3__16vectorINS_4pairIiiEENS_9allocatorIS2_EEE11__recommendB7v160006Em, symObjAddr: 0x6B20, symBinAddr: 0x100009AF0, symSize: 0xA0 }
  - { offsetInCU: 0x16EE5, offset: 0x16EE5, size: 0x8, addend: 0x0, symName: __ZNSt3__114__split_bufferINS_4pairIiiEERNS_9allocatorIS2_EEEC1EmmS5_, symObjAddr: 0x6BC0, symBinAddr: 0x100009B90, symSize: 0x40 }
  - { offsetInCU: 0x16F3B, offset: 0x16F3B, size: 0x8, addend: 0x0, symName: __ZNSt3__114__split_bufferINS_4pairIiiEERNS_9allocatorIS2_EEED1Ev, symObjAddr: 0x6D30, symBinAddr: 0x100009D00, symSize: 0x20 }
  - { offsetInCU: 0x16F67, offset: 0x16F67, size: 0x8, addend: 0x0, symName: __ZNKSt3__16vectorINS_4pairIiiEENS_9allocatorIS2_EEE8max_sizeEv, symObjAddr: 0x6D50, symBinAddr: 0x100009D20, symSize: 0x60 }
  - { offsetInCU: 0x16F8F, offset: 0x16F8F, size: 0x8, addend: 0x0, symName: __ZNKSt3__16vectorINS_4pairIiiEENS_9allocatorIS2_EEE20__throw_length_errorB7v160006Ev, symObjAddr: 0x6DB0, symBinAddr: 0x100009D80, symSize: 0x20 }
  - { offsetInCU: 0x16FC0, offset: 0x16FC0, size: 0x8, addend: 0x0, symName: __ZNSt3__116allocator_traitsINS_9allocatorINS_4pairIiiEEEEE8max_sizeB7v160006IS4_vvEEmRKS4_, symObjAddr: 0x6DD0, symBinAddr: 0x100009DA0, symSize: 0x20 }
  - { offsetInCU: 0x16FEB, offset: 0x16FEB, size: 0x8, addend: 0x0, symName: __ZNKSt3__16vectorINS_4pairIiiEENS_9allocatorIS2_EEE7__allocB7v160006Ev, symObjAddr: 0x6DF0, symBinAddr: 0x100009DC0, symSize: 0x20 }
  - { offsetInCU: 0x17011, offset: 0x17011, size: 0x8, addend: 0x0, symName: __ZNKSt3__117__compressed_pairIPNS_4pairIiiEENS_9allocatorIS2_EEE6secondB7v160006Ev, symObjAddr: 0x6E10, symBinAddr: 0x100009DE0, symSize: 0x20 }
  - { offsetInCU: 0x17037, offset: 0x17037, size: 0x8, addend: 0x0, symName: __ZNKSt3__122__compressed_pair_elemINS_9allocatorINS_4pairIiiEEEELi1ELb1EE5__getB7v160006Ev, symObjAddr: 0x6E30, symBinAddr: 0x100009E00, symSize: 0x10 }
  - { offsetInCU: 0x1705D, offset: 0x1705D, size: 0x8, addend: 0x0, symName: __ZNSt3__114__split_bufferINS_4pairIiiEERNS_9allocatorIS2_EEEC2EmmS5_, symObjAddr: 0x6E40, symBinAddr: 0x100009E10, symSize: 0xD0 }
  - { offsetInCU: 0x170D0, offset: 0x170D0, size: 0x8, addend: 0x0, symName: __ZNSt3__117__compressed_pairIPNS_4pairIiiEERNS_9allocatorIS2_EEEC1B7v160006IDnS6_EEOT_OT0_, symObjAddr: 0x6F10, symBinAddr: 0x100009EE0, symSize: 0x30 }
  - { offsetInCU: 0x17128, offset: 0x17128, size: 0x8, addend: 0x0, symName: __ZNSt3__114__split_bufferINS_4pairIiiEERNS_9allocatorIS2_EEE7__allocB7v160006Ev, symObjAddr: 0x6F80, symBinAddr: 0x100009F50, symSize: 0x20 }
  - { offsetInCU: 0x1714E, offset: 0x1714E, size: 0x8, addend: 0x0, symName: __ZNSt3__114__split_bufferINS_4pairIiiEERNS_9allocatorIS2_EEE9__end_capB7v160006Ev, symObjAddr: 0x6FA0, symBinAddr: 0x100009F70, symSize: 0x20 }
  - { offsetInCU: 0x17174, offset: 0x17174, size: 0x8, addend: 0x0, symName: __ZNSt3__117__compressed_pairIPNS_4pairIiiEERNS_9allocatorIS2_EEEC2B7v160006IDnS6_EEOT_OT0_, symObjAddr: 0x6FC0, symBinAddr: 0x100009F90, symSize: 0x40 }
  - { offsetInCU: 0x171CC, offset: 0x171CC, size: 0x8, addend: 0x0, symName: __ZNSt3__122__compressed_pair_elemIRNS_9allocatorINS_4pairIiiEEEELi1ELb0EEC2B7v160006IS5_vEEOT_, symObjAddr: 0x7000, symBinAddr: 0x100009FD0, symSize: 0x20 }
  - { offsetInCU: 0x1720E, offset: 0x1720E, size: 0x8, addend: 0x0, symName: __ZNSt3__19allocatorINS_4pairIiiEEE17allocate_at_leastB7v160006Em, symObjAddr: 0x7060, symBinAddr: 0x10000A030, symSize: 0x40 }
  - { offsetInCU: 0x17242, offset: 0x17242, size: 0x8, addend: 0x0, symName: __ZNSt3__19allocatorINS_4pairIiiEEE8allocateB7v160006Em, symObjAddr: 0x70A0, symBinAddr: 0x10000A070, symSize: 0x50 }
  - { offsetInCU: 0x17276, offset: 0x17276, size: 0x8, addend: 0x0, symName: __ZNSt3__117__compressed_pairIPNS_4pairIiiEERNS_9allocatorIS2_EEE6secondB7v160006Ev, symObjAddr: 0x70F0, symBinAddr: 0x10000A0C0, symSize: 0x20 }
  - { offsetInCU: 0x1729C, offset: 0x1729C, size: 0x8, addend: 0x0, symName: __ZNSt3__122__compressed_pair_elemIRNS_9allocatorINS_4pairIiiEEEELi1ELb0EE5__getB7v160006Ev, symObjAddr: 0x7110, symBinAddr: 0x10000A0E0, symSize: 0x20 }
  - { offsetInCU: 0x172C2, offset: 0x172C2, size: 0x8, addend: 0x0, symName: __ZNSt3__117__compressed_pairIPNS_4pairIiiEERNS_9allocatorIS2_EEE5firstB7v160006Ev, symObjAddr: 0x7130, symBinAddr: 0x10000A100, symSize: 0x20 }
  - { offsetInCU: 0x172E8, offset: 0x172E8, size: 0x8, addend: 0x0, symName: __ZNSt3__116reverse_iteratorIPNS_4pairIiiEEEC1B7v160006ES3_, symObjAddr: 0x72D0, symBinAddr: 0x10000A2A0, symSize: 0x30 }
  - { offsetInCU: 0x17320, offset: 0x17320, size: 0x8, addend: 0x0, symName: __ZNKSt3__116reverse_iteratorIPNS_4pairIiiEEE4baseB7v160006Ev, symObjAddr: 0x7300, symBinAddr: 0x10000A2D0, symSize: 0x20 }
  - { offsetInCU: 0x17346, offset: 0x17346, size: 0x8, addend: 0x0, symName: __ZNKSt3__16vectorINS_4pairIiiEENS_9allocatorIS2_EEE14__annotate_newB7v160006Em, symObjAddr: 0x7360, symBinAddr: 0x10000A330, symSize: 0xB0 }
  - { offsetInCU: 0x1737B, offset: 0x1737B, size: 0x8, addend: 0x0, symName: __ZNSt3__129_AllocatorDestroyRangeReverseINS_9allocatorINS_4pairIiiEEEENS_16reverse_iteratorIPS3_EEEC1B7v160006ERS4_RS7_SA_, symObjAddr: 0x7480, symBinAddr: 0x10000A450, symSize: 0x40 }
  - { offsetInCU: 0x173D2, offset: 0x173D2, size: 0x8, addend: 0x0, symName: __ZNKSt3__116reverse_iteratorIPNS_4pairIiiEEEdeB7v160006Ev, symObjAddr: 0x7520, symBinAddr: 0x10000A4F0, symSize: 0x30 }
  - { offsetInCU: 0x17406, offset: 0x17406, size: 0x8, addend: 0x0, symName: __ZNSt3__116reverse_iteratorIPNS_4pairIiiEEEppB7v160006Ev, symObjAddr: 0x7550, symBinAddr: 0x10000A520, symSize: 0x20 }
  - { offsetInCU: 0x1742C, offset: 0x1742C, size: 0x8, addend: 0x0, symName: __ZNSt3__128__exception_guard_exceptionsINS_29_AllocatorDestroyRangeReverseINS_9allocatorINS_4pairIiiEEEENS_16reverse_iteratorIPS4_EEEEE10__completeB7v160006Ev, symObjAddr: 0x7570, symBinAddr: 0x10000A540, symSize: 0x20 }
  - { offsetInCU: 0x17452, offset: 0x17452, size: 0x8, addend: 0x0, symName: __ZNSt3__128__exception_guard_exceptionsINS_29_AllocatorDestroyRangeReverseINS_9allocatorINS_4pairIiiEEEENS_16reverse_iteratorIPS4_EEEEED1B7v160006Ev, symObjAddr: 0x7590, symBinAddr: 0x10000A560, symSize: 0x20 }
  - { offsetInCU: 0x1747C, offset: 0x1747C, size: 0x8, addend: 0x0, symName: __ZNSt3__128__exception_guard_exceptionsINS_29_AllocatorDestroyRangeReverseINS_9allocatorINS_4pairIiiEEEENS_16reverse_iteratorIPS4_EEEEEC1B7v160006ES9_, symObjAddr: 0x75B0, symBinAddr: 0x10000A580, symSize: 0x40 }
  - { offsetInCU: 0x174B4, offset: 0x174B4, size: 0x8, addend: 0x0, symName: __ZNSt3__128__exception_guard_exceptionsINS_29_AllocatorDestroyRangeReverseINS_9allocatorINS_4pairIiiEEEENS_16reverse_iteratorIPS4_EEEEEC2B7v160006ES9_, symObjAddr: 0x75F0, symBinAddr: 0x10000A5C0, symSize: 0x30 }
  - { offsetInCU: 0x174EC, offset: 0x174EC, size: 0x8, addend: 0x0, symName: __ZNSt3__129_AllocatorDestroyRangeReverseINS_9allocatorINS_4pairIiiEEEENS_16reverse_iteratorIPS3_EEEC2B7v160006ERS4_RS7_SA_, symObjAddr: 0x7620, symBinAddr: 0x10000A5F0, symSize: 0x40 }
  - { offsetInCU: 0x17549, offset: 0x17549, size: 0x8, addend: 0x0, symName: __ZNSt3__119__to_address_helperINS_16reverse_iteratorIPNS_4pairIiiEEEEvE6__callB7v160006ERKS5_, symObjAddr: 0x7660, symBinAddr: 0x10000A630, symSize: 0x40 }
  - { offsetInCU: 0x1756C, offset: 0x1756C, size: 0x8, addend: 0x0, symName: __ZNKSt3__116reverse_iteratorIPNS_4pairIiiEEEptB7v160006Ev, symObjAddr: 0x76A0, symBinAddr: 0x10000A670, symSize: 0x30 }
  - { offsetInCU: 0x17592, offset: 0x17592, size: 0x8, addend: 0x0, symName: __ZNSt3__128__exception_guard_exceptionsINS_29_AllocatorDestroyRangeReverseINS_9allocatorINS_4pairIiiEEEENS_16reverse_iteratorIPS4_EEEEED2B7v160006Ev, symObjAddr: 0x77A0, symBinAddr: 0x10000A770, symSize: 0x40 }
  - { offsetInCU: 0x175BC, offset: 0x175BC, size: 0x8, addend: 0x0, symName: __ZNKSt3__129_AllocatorDestroyRangeReverseINS_9allocatorINS_4pairIiiEEEENS_16reverse_iteratorIPS3_EEEclB7v160006Ev, symObjAddr: 0x77E0, symBinAddr: 0x10000A7B0, symSize: 0xF0 }
  - { offsetInCU: 0x175E3, offset: 0x175E3, size: 0x8, addend: 0x0, symName: __ZNSt3__116reverse_iteratorINS0_IPNS_4pairIiiEEEEEC1B7v160006ES4_, symObjAddr: 0x7940, symBinAddr: 0x10000A910, symSize: 0x30 }
  - { offsetInCU: 0x1761B, offset: 0x1761B, size: 0x8, addend: 0x0, symName: __ZNSt3__116reverse_iteratorINS0_IPNS_4pairIiiEEEEEppB7v160006Ev, symObjAddr: 0x79E0, symBinAddr: 0x10000A9B0, symSize: 0x30 }
  - { offsetInCU: 0x17641, offset: 0x17641, size: 0x8, addend: 0x0, symName: __ZNKSt3__116reverse_iteratorINS0_IPNS_4pairIiiEEEEE4baseB7v160006Ev, symObjAddr: 0x7A10, symBinAddr: 0x10000A9E0, symSize: 0x20 }
  - { offsetInCU: 0x1766D, offset: 0x1766D, size: 0x8, addend: 0x0, symName: __ZNSt3__119__to_address_helperINS_16reverse_iteratorINS1_IPNS_4pairIiiEEEEEEvE6__callB7v160006ERKS6_, symObjAddr: 0x7A30, symBinAddr: 0x10000AA00, symSize: 0x40 }
  - { offsetInCU: 0x17690, offset: 0x17690, size: 0x8, addend: 0x0, symName: __ZNKSt3__116reverse_iteratorINS0_IPNS_4pairIiiEEEEEptB7v160006Ev, symObjAddr: 0x7A70, symBinAddr: 0x10000AA40, symSize: 0x50 }
  - { offsetInCU: 0x176B6, offset: 0x176B6, size: 0x8, addend: 0x0, symName: __ZNSt3__116reverse_iteratorIPNS_4pairIiiEEEpLB7v160006El, symObjAddr: 0x7BA0, symBinAddr: 0x10000AB70, symSize: 0x30 }
  - { offsetInCU: 0x176EA, offset: 0x176EA, size: 0x8, addend: 0x0, symName: __ZNSt3__116reverse_iteratorIPNS_4pairIiiEEEmmB7v160006Ev, symObjAddr: 0x7BD0, symBinAddr: 0x10000ABA0, symSize: 0x20 }
  - { offsetInCU: 0x17710, offset: 0x17710, size: 0x8, addend: 0x0, symName: __ZNSt3__116reverse_iteratorINS0_IPNS_4pairIiiEEEEEC2B7v160006ES4_, symObjAddr: 0x7BF0, symBinAddr: 0x10000ABC0, symSize: 0x40 }
  - { offsetInCU: 0x17748, offset: 0x17748, size: 0x8, addend: 0x0, symName: __ZNSt3__116reverse_iteratorIPNS_4pairIiiEEEC2B7v160006ES3_, symObjAddr: 0x7C30, symBinAddr: 0x10000AC00, symSize: 0x30 }
  - { offsetInCU: 0x17780, offset: 0x17780, size: 0x8, addend: 0x0, symName: __ZNSt3__114__split_bufferINS_4pairIiiEERNS_9allocatorIS2_EEED2Ev, symObjAddr: 0x7C60, symBinAddr: 0x10000AC30, symSize: 0x70 }
  - { offsetInCU: 0x177AC, offset: 0x177AC, size: 0x8, addend: 0x0, symName: __ZNSt3__114__split_bufferINS_4pairIiiEERNS_9allocatorIS2_EEE5clearB7v160006Ev, symObjAddr: 0x7CD0, symBinAddr: 0x10000ACA0, symSize: 0x20 }
  - { offsetInCU: 0x177D2, offset: 0x177D2, size: 0x8, addend: 0x0, symName: __ZNKSt3__114__split_bufferINS_4pairIiiEERNS_9allocatorIS2_EEE8capacityB7v160006Ev, symObjAddr: 0x7CF0, symBinAddr: 0x10000ACC0, symSize: 0x30 }
  - { offsetInCU: 0x177F8, offset: 0x177F8, size: 0x8, addend: 0x0, symName: __ZNSt3__114__split_bufferINS_4pairIiiEERNS_9allocatorIS2_EEE17__destruct_at_endB7v160006EPS2_, symObjAddr: 0x7D20, symBinAddr: 0x10000ACF0, symSize: 0x30 }
  - { offsetInCU: 0x1782C, offset: 0x1782C, size: 0x8, addend: 0x0, symName: __ZNSt3__114__split_bufferINS_4pairIiiEERNS_9allocatorIS2_EEE17__destruct_at_endB7v160006EPS2_NS_17integral_constantIbLb0EEE, symObjAddr: 0x7D50, symBinAddr: 0x10000AD20, symSize: 0x80 }
  - { offsetInCU: 0x1786C, offset: 0x1786C, size: 0x8, addend: 0x0, symName: __ZNKSt3__114__split_bufferINS_4pairIiiEERNS_9allocatorIS2_EEE9__end_capB7v160006Ev, symObjAddr: 0x7DD0, symBinAddr: 0x10000ADA0, symSize: 0x20 }
  - { offsetInCU: 0x17892, offset: 0x17892, size: 0x8, addend: 0x0, symName: __ZNKSt3__117__compressed_pairIPNS_4pairIiiEERNS_9allocatorIS2_EEE5firstB7v160006Ev, symObjAddr: 0x7DF0, symBinAddr: 0x10000ADC0, symSize: 0x20 }
  - { offsetInCU: 0x178B8, offset: 0x178B8, size: 0x8, addend: 0x0, symName: __ZNKSt3__111__wrap_iterIPNS_4pairIiiEEE4baseB7v160006Ev, symObjAddr: 0x7FF0, symBinAddr: 0x10000AFC0, symSize: 0x20 }
  - { offsetInCU: 0x178DE, offset: 0x178DE, size: 0x8, addend: 0x0, symName: __ZNKSt3__111__wrap_iterIPNS_4pairIiiEEEplB7v160006El, symObjAddr: 0x8010, symBinAddr: 0x10000AFE0, symSize: 0x40 }
  - { offsetInCU: 0x1792A, offset: 0x1792A, size: 0x8, addend: 0x0, symName: '__ZZ8DijkstraiRNSt3__16vectorINS0_I4EdgeNS_9allocatorIS1_EEEENS2_IS4_EEEEENK3$_0clINS_4pairIiiEESB_EEDaRKT_RKT0_', symObjAddr: 0x8050, symBinAddr: 0x10000B020, symSize: 0x30 }
  - { offsetInCU: 0x17982, offset: 0x17982, size: 0x8, addend: 0x0, symName: __ZNKSt3__111__wrap_iterIPNS_4pairIiiEEEdeB7v160006Ev, symObjAddr: 0x8080, symBinAddr: 0x10000B050, symSize: 0x20 }
  - { offsetInCU: 0x179A8, offset: 0x179A8, size: 0x8, addend: 0x0, symName: __ZNSt3__111__wrap_iterIPNS_4pairIiiEEEmmB7v160006Ev, symObjAddr: 0x80A0, symBinAddr: 0x10000B070, symSize: 0x20 }
  - { offsetInCU: 0x179CE, offset: 0x179CE, size: 0x8, addend: 0x0, symName: __ZNSt3__18_IterOpsINS_17_ClassicAlgPolicyEE11__iter_moveB7v160006IRNS_11__wrap_iterIPNS_4pairIiiEEEEEENS_9enable_ifIXsr12is_referenceIDTdeclsr3stdE7declvalIRT_EEEEE5valueEDTclsr3stdE4movedeclsr3stdE7declvalISC_EEEEE4typeEOSB_, symObjAddr: 0x80C0, symBinAddr: 0x10000B090, symSize: 0x20 }
  - { offsetInCU: 0x179FA, offset: 0x179FA, size: 0x8, addend: 0x0, symName: __ZNSt3__14pairIiiEaSB7v160006EOS1_, symObjAddr: 0x80E0, symBinAddr: 0x10000B0B0, symSize: 0x30 }
  - { offsetInCU: 0x17A2F, offset: 0x17A2F, size: 0x8, addend: 0x0, symName: __ZNSt3__111__wrap_iterIPNS_4pairIiiEEEpLB7v160006El, symObjAddr: 0x8110, symBinAddr: 0x10000B0E0, symSize: 0x20 }
  - { offsetInCU: 0x17A63, offset: 0x17A63, size: 0x8, addend: 0x0, symName: __ZNSt3__18_IterOpsINS_17_ClassicAlgPolicyEE25__validate_iter_referenceB7v160006IRNS_11__wrap_iterIPNS_4pairIiiEEEEEEvv, symObjAddr: 0x8130, symBinAddr: 0x10000B100, symSize: 0x10 }
  - { offsetInCU: 0x17A81, offset: 0x17A81, size: 0x8, addend: 0x0, symName: __ZNSt3__16vectorINS_4pairIiiEENS_9allocatorIS2_EEE11__make_iterB7v160006EPS2_, symObjAddr: 0x8140, symBinAddr: 0x10000B110, symSize: 0x30 }
  - { offsetInCU: 0x17AB6, offset: 0x17AB6, size: 0x8, addend: 0x0, symName: __ZNSt3__111__wrap_iterIPNS_4pairIiiEEEC1B7v160006EPKvS3_, symObjAddr: 0x8170, symBinAddr: 0x10000B140, symSize: 0x30 }
  - { offsetInCU: 0x17AFC, offset: 0x17AFC, size: 0x8, addend: 0x0, symName: __ZNSt3__111__wrap_iterIPNS_4pairIiiEEEC2B7v160006EPKvS3_, symObjAddr: 0x81A0, symBinAddr: 0x10000B170, symSize: 0x20 }
  - { offsetInCU: 0x17B42, offset: 0x17B42, size: 0x8, addend: 0x0, symName: __ZNKSt3__16vectorINS_4pairIiiEENS_9allocatorIS2_EEE5emptyB7v160006Ev, symObjAddr: 0x81C0, symBinAddr: 0x10000B190, symSize: 0x20 }
  - { offsetInCU: 0x17B68, offset: 0x17B68, size: 0x8, addend: 0x0, symName: __ZNSt3__16vectorIbNS_9allocatorIbEEEixB7v160006Em, symObjAddr: 0x81E0, symBinAddr: 0x10000B1B0, symSize: 0x40 }
  - { offsetInCU: 0x17B9D, offset: 0x17B9D, size: 0x8, addend: 0x0, symName: '__ZNKSt3__114priority_queueINS_4pairIiiEENS_6vectorIS2_NS_9allocatorIS2_EEEEZ8DijkstraiRNS3_INS3_I4EdgeNS4_IS7_EEEENS4_IS9_EEEEE3$_0E3topB7v160006Ev', symObjAddr: 0x8220, symBinAddr: 0x10000B1F0, symSize: 0x20 }
  - { offsetInCU: 0x17BC3, offset: 0x17BC3, size: 0x8, addend: 0x0, symName: __ZNKSt3__115__bit_referenceINS_6vectorIbNS_9allocatorIbEEEELb1EEcvbB7v160006Ev, symObjAddr: 0x8240, symBinAddr: 0x10000B210, symSize: 0x30 }
  - { offsetInCU: 0x17BE9, offset: 0x17BE9, size: 0x8, addend: 0x0, symName: '__ZNSt3__114priority_queueINS_4pairIiiEENS_6vectorIS2_NS_9allocatorIS2_EEEEZ8DijkstraiRNS3_INS3_I4EdgeNS4_IS7_EEEENS4_IS9_EEEEE3$_0E3popEv', symObjAddr: 0x8270, symBinAddr: 0x10000B240, symSize: 0x50 }
  - { offsetInCU: 0x17C11, offset: 0x17C11, size: 0x8, addend: 0x0, symName: __ZNSt3__115__bit_referenceINS_6vectorIbNS_9allocatorIbEEEELb1EEaSB7v160006Eb, symObjAddr: 0x82C0, symBinAddr: 0x10000B290, symSize: 0x60 }
  - { offsetInCU: 0x17C45, offset: 0x17C45, size: 0x8, addend: 0x0, symName: __ZNSt3__16vectorIbNS_9allocatorIbEEE10__make_refB7v160006Em, symObjAddr: 0x8320, symBinAddr: 0x10000B2F0, symSize: 0x50 }
  - { offsetInCU: 0x17C7A, offset: 0x17C7A, size: 0x8, addend: 0x0, symName: __ZNSt3__115__bit_referenceINS_6vectorIbNS_9allocatorIbEEEELb1EEC1B7v160006EPmm, symObjAddr: 0x8370, symBinAddr: 0x10000B340, symSize: 0x30 }
  - { offsetInCU: 0x17CC0, offset: 0x17CC0, size: 0x8, addend: 0x0, symName: __ZNSt3__115__bit_referenceINS_6vectorIbNS_9allocatorIbEEEELb1EEC2B7v160006EPmm, symObjAddr: 0x83A0, symBinAddr: 0x10000B370, symSize: 0x30 }
  - { offsetInCU: 0x17D06, offset: 0x17D06, size: 0x8, addend: 0x0, symName: __ZNKSt3__16vectorINS_4pairIiiEENS_9allocatorIS2_EEE5frontB7v160006Ev, symObjAddr: 0x83D0, symBinAddr: 0x10000B3A0, symSize: 0x20 }
  - { offsetInCU: 0x17D2C, offset: 0x17D2C, size: 0x8, addend: 0x0, symName: __ZNSt3__16vectorINS_4pairIiiEENS_9allocatorIS2_EEE8pop_backEv, symObjAddr: 0x8440, symBinAddr: 0x10000B410, symSize: 0x30 }
  - { offsetInCU: 0x17D54, offset: 0x17D54, size: 0x8, addend: 0x0, symName: __ZNSt3__111__wrap_iterIPNS_4pairIiiEEEppB7v160006Ev, symObjAddr: 0x8700, symBinAddr: 0x10000B6D0, symSize: 0x20 }
  - { offsetInCU: 0x17D7A, offset: 0x17D7A, size: 0x8, addend: 0x0, symName: __ZNSt3__16vectorINS_4pairIiiEENS_9allocatorIS2_EEE17__destruct_at_endB7v160006EPS2_, symObjAddr: 0x8720, symBinAddr: 0x10000B6F0, symSize: 0x60 }
  - { offsetInCU: 0x17DBE, offset: 0x17DBE, size: 0x8, addend: 0x0, symName: __ZNSt3__16vectorINS_4pairIiiEENS_9allocatorIS2_EEE27__invalidate_iterators_pastB7v160006EPS2_, symObjAddr: 0x8780, symBinAddr: 0x10000B750, symSize: 0x10 }
  - { offsetInCU: 0x17DF5, offset: 0x17DF5, size: 0x8, addend: 0x0, symName: __ZNKSt3__16vectorINS_4pairIiiEENS_9allocatorIS2_EEE17__annotate_shrinkB7v160006Em, symObjAddr: 0x8790, symBinAddr: 0x10000B760, symSize: 0x9D }
...
