---
triple:          'x86_64-apple-darwin'
binary-path:     '/Users/dmitrii/Documents/cpp-experiments/Algorhitms/6th_Sprint/Binaries/RailWays'
relocations:
  - { offsetInCU: 0x66, offset: 0x66, size: 0x8, addend: 0x0, symName: __ZNSt3__16ranges5__cpo9iter_moveE, symObjAddr: 0xAA42, symBinAddr: 0x10000BB72, symSize: 0x0 }
  - { offsetInCU: 0x5777, offset: 0x5777, size: 0x8, addend: 0x0, symName: __ZNSt3__17advanceB7v160006IP7WayTypellvEEvRT_T0_, symObjAddr: 0x31C0, symBinAddr: 0x100004180, symSize: 0x50 }
  - { offsetInCU: 0x996E, offset: 0x996E, size: 0x8, addend: 0x0, symName: __ZNSt3__124__put_character_sequenceB7v160006IcNS_11char_traitsIcEEEERNS_13basic_ostreamIT_T0_EES7_PKS4_m, symObjAddr: 0x9D80, symBinAddr: 0x10000AD40, symSize: 0x1F0 }
  - { offsetInCU: 0xBFC0, offset: 0xBFC0, size: 0x8, addend: 0x0, symName: __ZNSt3__1rsB7v160006IcNS_11char_traitsIcEENS_9allocatorIcEEEERNS_13basic_istreamIT_T0_EES9_RNS_12basic_stringIS6_S7_T1_EE, symObjAddr: 0x2F0, symBinAddr: 0x1000012B0, symSize: 0x2F0 }
  - { offsetInCU: 0xC256, offset: 0xC256, size: 0x8, addend: 0x0, symName: __ZNSt3__1neB7v160006IPmEEbRKNS_11__wrap_iterIT_EES6_, symObjAddr: 0xC70, symBinAddr: 0x100001C30, symSize: 0x30 }
  - { offsetInCU: 0xC299, offset: 0xC299, size: 0x8, addend: 0x0, symName: __ZNSt3__1lsB7v160006INS_11char_traitsIcEEEERNS_13basic_ostreamIcT_EES6_c, symObjAddr: 0xF80, symBinAddr: 0x100001F40, symSize: 0x30 }
  - { offsetInCU: 0xC2DF, offset: 0xC2DF, size: 0x8, addend: 0x0, symName: __ZNSt3__1lsB7v160006INS_11char_traitsIcEEEERNS_13basic_ostreamIcT_EES6_PKc, symObjAddr: 0xFB0, symBinAddr: 0x100001F70, symSize: 0x40 }
  - { offsetInCU: 0xC325, offset: 0xC325, size: 0x8, addend: 0x0, symName: __ZNSt3__122__make_exception_guardB7v160006INS_6vectorI7WayTypeNS_9allocatorIS2_EEE16__destroy_vectorEEENS_28__exception_guard_exceptionsIT_EES8_, symObjAddr: 0x1100, symBinAddr: 0x1000020C0, symSize: 0x40 }
  - { offsetInCU: 0xC35A, offset: 0xC35A, size: 0x8, addend: 0x0, symName: __ZNSt3__119__debug_db_insert_cB7v160006INS_6vectorI7WayTypeNS_9allocatorIS2_EEEEEEvPT_, symObjAddr: 0x1170, symBinAddr: 0x100002130, symSize: 0x10 }
  - { offsetInCU: 0xC38B, offset: 0xC38B, size: 0x8, addend: 0x0, symName: __ZNSt3__119__allocate_at_leastB7v160006INS_9allocatorI7WayTypeEEEEDaRT_m, symObjAddr: 0x14C0, symBinAddr: 0x100002480, symSize: 0x40 }
  - { offsetInCU: 0xC3CE, offset: 0xC3CE, size: 0x8, addend: 0x0, symName: __ZNSt3__13minB7v160006ImEERKT_S3_S3_, symObjAddr: 0x15E0, symBinAddr: 0x1000025A0, symSize: 0x30 }
  - { offsetInCU: 0xC5FB, offset: 0xC5FB, size: 0x8, addend: 0x0, symName: __ZNSt3__13minB7v160006ImNS_6__lessImmEEEERKT_S5_S5_T0_, symObjAddr: 0x1670, symBinAddr: 0x100002630, symSize: 0x50 }
  - { offsetInCU: 0xC87A, offset: 0xC87A, size: 0x8, addend: 0x0, symName: __ZNSt3__120__throw_length_errorB7v160006EPKc, symObjAddr: 0x1750, symBinAddr: 0x100002710, symSize: 0x70 }
  - { offsetInCU: 0xC8A2, offset: 0xC8A2, size: 0x8, addend: 0x0, symName: __ZNSt3__117allocate_at_leastB7v160006INS_9allocatorI7WayTypeEEEENS_17allocation_resultINS_16allocator_traitsIT_E7pointerEEERS6_m, symObjAddr: 0x1830, symBinAddr: 0x1000027F0, symSize: 0x40 }
  - { offsetInCU: 0xC8E5, offset: 0xC8E5, size: 0x8, addend: 0x0, symName: __ZNSt3__117__libcpp_allocateB7v160006Emm, symObjAddr: 0x1940, symBinAddr: 0x100002900, symSize: 0x60 }
  - { offsetInCU: 0xC93F, offset: 0xC93F, size: 0x8, addend: 0x0, symName: __ZNSt3__124__is_overaligned_for_newB7v160006Em, symObjAddr: 0x19A0, symBinAddr: 0x100002960, symSize: 0x20 }
  - { offsetInCU: 0xC96D, offset: 0xC96D, size: 0x8, addend: 0x0, symName: __ZNSt3__121__libcpp_operator_newB7v160006IJmSt11align_val_tEEEPvDpT_, symObjAddr: 0x19C0, symBinAddr: 0x100002980, symSize: 0x30 }
  - { offsetInCU: 0xC9BA, offset: 0xC9BA, size: 0x8, addend: 0x0, symName: __ZNSt3__121__libcpp_operator_newB7v160006IJmEEEPvDpT_, symObjAddr: 0x19F0, symBinAddr: 0x1000029B0, symSize: 0x20 }
  - { offsetInCU: 0xC9F3, offset: 0xC9F3, size: 0x8, addend: 0x0, symName: __ZNSt3__112__to_addressB7v160006I7WayTypeEEPT_S3_, symObjAddr: 0x1AE0, symBinAddr: 0x100002AA0, symSize: 0x10 }
  - { offsetInCU: 0xCA4D, offset: 0xCA4D, size: 0x8, addend: 0x0, symName: __ZNSt3__112construct_atB7v160006I7WayTypeJRKS1_EPS1_EEPT_S6_DpOT0_, symObjAddr: 0x1C00, symBinAddr: 0x100002BC0, symSize: 0x30 }
  - { offsetInCU: 0xCABD, offset: 0xCABD, size: 0x8, addend: 0x0, symName: __ZNSt3__118__debug_db_erase_cB7v160006INS_6vectorI7WayTypeNS_9allocatorIS2_EEEEEEvPT_, symObjAddr: 0x1DC0, symBinAddr: 0x100002D80, symSize: 0x10 }
  - { offsetInCU: 0xCAEE, offset: 0xCAEE, size: 0x8, addend: 0x0, symName: __ZNSt3__110destroy_atB7v160006I7WayTypeLi0EEEvPT_, symObjAddr: 0x1EE0, symBinAddr: 0x100002EA0, symSize: 0x20 }
  - { offsetInCU: 0xCB25, offset: 0xCB25, size: 0x8, addend: 0x0, symName: __ZNSt3__112__destroy_atB7v160006I7WayTypeLi0EEEvPT_, symObjAddr: 0x1F00, symBinAddr: 0x100002EC0, symSize: 0x10 }
  - { offsetInCU: 0xCB5C, offset: 0xCB5C, size: 0x8, addend: 0x0, symName: __ZNSt3__119__libcpp_deallocateB7v160006EPvmm, symObjAddr: 0x1F50, symBinAddr: 0x100002F10, symSize: 0x60 }
  - { offsetInCU: 0xCBC1, offset: 0xCBC1, size: 0x8, addend: 0x0, symName: __ZNSt3__127__do_deallocate_handle_sizeB7v160006IJSt11align_val_tEEEvPvmDpT_, symObjAddr: 0x1FB0, symBinAddr: 0x100002F70, symSize: 0x30 }
  - { offsetInCU: 0xCC14, offset: 0xCC14, size: 0x8, addend: 0x0, symName: __ZNSt3__127__do_deallocate_handle_sizeB7v160006IJEEEvPvmDpT_, symObjAddr: 0x1FE0, symBinAddr: 0x100002FA0, symSize: 0x20 }
  - { offsetInCU: 0xCC52, offset: 0xCC52, size: 0x8, addend: 0x0, symName: __ZNSt3__124__libcpp_operator_deleteB7v160006IJPvSt11align_val_tEEEvDpT_, symObjAddr: 0x2000, symBinAddr: 0x100002FC0, symSize: 0x30 }
  - { offsetInCU: 0xCC9B, offset: 0xCC9B, size: 0x8, addend: 0x0, symName: __ZNSt3__124__libcpp_operator_deleteB7v160006IJPvEEEvDpT_, symObjAddr: 0x2030, symBinAddr: 0x100002FF0, symSize: 0x20 }
  - { offsetInCU: 0xCCD0, offset: 0xCCD0, size: 0x8, addend: 0x0, symName: __ZNSt3__122__make_exception_guardB7v160006INS_6vectorINS1_I7WayTypeNS_9allocatorIS2_EEEENS3_IS5_EEE16__destroy_vectorEEENS_28__exception_guard_exceptionsIT_EESA_, symObjAddr: 0x2160, symBinAddr: 0x100003120, symSize: 0x40 }
  - { offsetInCU: 0xCD05, offset: 0xCD05, size: 0x8, addend: 0x0, symName: __ZNSt3__119__debug_db_insert_cB7v160006INS_6vectorINS1_I7WayTypeNS_9allocatorIS2_EEEENS3_IS5_EEEEEEvPT_, symObjAddr: 0x21D0, symBinAddr: 0x100003190, symSize: 0x10 }
  - { offsetInCU: 0xCD36, offset: 0xCD36, size: 0x8, addend: 0x0, symName: __ZNSt3__119__allocate_at_leastB7v160006INS_9allocatorINS_6vectorI7WayTypeNS1_IS3_EEEEEEEEDaRT_m, symObjAddr: 0x2520, symBinAddr: 0x1000034E0, symSize: 0x40 }
  - { offsetInCU: 0xCD79, offset: 0xCD79, size: 0x8, addend: 0x0, symName: __ZNSt3__117allocate_at_leastB7v160006INS_9allocatorINS_6vectorI7WayTypeNS1_IS3_EEEEEEEENS_17allocation_resultINS_16allocator_traitsIT_E7pointerEEERS9_m, symObjAddr: 0x26C0, symBinAddr: 0x100003680, symSize: 0x40 }
  - { offsetInCU: 0xCDBC, offset: 0xCDBC, size: 0x8, addend: 0x0, symName: __ZNSt3__112__to_addressB7v160006INS_6vectorI7WayTypeNS_9allocatorIS2_EEEEEEPT_S7_, symObjAddr: 0x2870, symBinAddr: 0x100003830, symSize: 0x10 }
  - { offsetInCU: 0xCE16, offset: 0xCE16, size: 0x8, addend: 0x0, symName: __ZNSt3__112construct_atB7v160006INS_6vectorI7WayTypeNS_9allocatorIS2_EEEEJRKS5_EPS5_EEPT_SA_DpOT0_, symObjAddr: 0x2990, symBinAddr: 0x100003950, symSize: 0x40 }
  - { offsetInCU: 0xCE86, offset: 0xCE86, size: 0x8, addend: 0x0, symName: __ZNSt3__130__uninitialized_allocator_copyB7v160006INS_9allocatorI7WayTypeEEPS2_S4_S4_EET2_RT_T0_T1_S5_, symObjAddr: 0x2C30, symBinAddr: 0x100003BF0, symSize: 0x100 }
  - { offsetInCU: 0xCF24, offset: 0xCF24, size: 0x8, addend: 0x0, symName: __ZNSt3__122__make_exception_guardB7v160006INS_29_AllocatorDestroyRangeReverseINS_9allocatorI7WayTypeEEPS3_EEEENS_28__exception_guard_exceptionsIT_EES8_, symObjAddr: 0x2D30, symBinAddr: 0x100003CF0, symSize: 0x60 }
  - { offsetInCU: 0xCF59, offset: 0xCF59, size: 0x8, addend: 0x0, symName: __ZNSt3__112construct_atB7v160006I7WayTypeJRS1_EPS1_EEPT_S5_DpOT0_, symObjAddr: 0x2EF0, symBinAddr: 0x100003EB0, symSize: 0x30 }
  - { offsetInCU: 0xCFC9, offset: 0xCFC9, size: 0x8, addend: 0x0, symName: __ZNSt3__119__allocator_destroyB7v160006INS_9allocatorI7WayTypeEENS_16reverse_iteratorIPS2_EES6_EEvRT_T0_T1_, symObjAddr: 0x2FC0, symBinAddr: 0x100003F80, symSize: 0x70 }
  - { offsetInCU: 0xD02C, offset: 0xD02C, size: 0x8, addend: 0x0, symName: __ZNSt3__1neB7v160006IP7WayTypeS2_EEbRKNS_16reverse_iteratorIT_EERKNS3_IT0_EE, symObjAddr: 0x3060, symBinAddr: 0x100004020, symSize: 0x40 }
  - { offsetInCU: 0xD078, offset: 0xD078, size: 0x8, addend: 0x0, symName: __ZNSt3__112__to_addressB7v160006INS_16reverse_iteratorIP7WayTypeEEvEENS_5decayIDTclsr19__to_address_helperIT_EE6__callclsr3stdE7declvalIRKS6_EEEEE4typeES8_, symObjAddr: 0x30A0, symBinAddr: 0x100004060, symSize: 0x20 }
  - { offsetInCU: 0xD0D7, offset: 0xD0D7, size: 0x8, addend: 0x0, symName: __ZNSt3__14prevB7v160006IP7WayTypeEENS_9enable_ifIXsr25__is_cpp17_input_iteratorIT_EE5valueES4_E4typeES4_NS_15iterator_traitsIS4_E15difference_typeE, symObjAddr: 0x3170, symBinAddr: 0x100004130, symSize: 0x50 }
  - { offsetInCU: 0xD11A, offset: 0xD11A, size: 0x8, addend: 0x0, symName: __ZNSt3__121__convert_to_integralB7v160006El, symObjAddr: 0x3210, symBinAddr: 0x1000041D0, symSize: 0x10 }
  - { offsetInCU: 0xD146, offset: 0xD146, size: 0x8, addend: 0x0, symName: __ZNSt3__19__advanceB7v160006IP7WayTypeEEvRT_NS_15iterator_traitsIS3_E15difference_typeENS_26random_access_iterator_tagE, symObjAddr: 0x3220, symBinAddr: 0x1000041E0, symSize: 0x20 }
  - { offsetInCU: 0xD18F, offset: 0xD18F, size: 0x8, addend: 0x0, symName: __ZNSt3__118__debug_db_erase_cB7v160006INS_6vectorINS1_I7WayTypeNS_9allocatorIS2_EEEENS3_IS5_EEEEEEvPT_, symObjAddr: 0x3410, symBinAddr: 0x1000043D0, symSize: 0x10 }
  - { offsetInCU: 0xD1C0, offset: 0xD1C0, size: 0x8, addend: 0x0, symName: __ZNSt3__110destroy_atB7v160006INS_6vectorI7WayTypeNS_9allocatorIS2_EEEELi0EEEvPT_, symObjAddr: 0x3510, symBinAddr: 0x1000044D0, symSize: 0x20 }
  - { offsetInCU: 0xD1F7, offset: 0xD1F7, size: 0x8, addend: 0x0, symName: __ZNSt3__112__destroy_atB7v160006INS_6vectorI7WayTypeNS_9allocatorIS2_EEEELi0EEEvPT_, symObjAddr: 0x3530, symBinAddr: 0x1000044F0, symSize: 0x20 }
  - { offsetInCU: 0xD22E, offset: 0xD22E, size: 0x8, addend: 0x0, symName: __ZNSt3__119__debug_db_insert_cB7v160006INS_12basic_stringIcNS_11char_traitsIcEENS_9allocatorIcEEEEEEvPT_, symObjAddr: 0x3660, symBinAddr: 0x100004620, symSize: 0x10 }
  - { offsetInCU: 0xD25F, offset: 0xD25F, size: 0x8, addend: 0x0, symName: __ZNSt3__120__throw_out_of_rangeB7v160006EPKc, symObjAddr: 0x37A0, symBinAddr: 0x100004760, symSize: 0x70 }
  - { offsetInCU: 0xD289, offset: 0xD289, size: 0x8, addend: 0x0, symName: __ZNSt3__119__debug_db_insert_cB7v160006INS_6vectorImNS_9allocatorImEEEEEEvPT_, symObjAddr: 0x3970, symBinAddr: 0x100004930, symSize: 0x10 }
  - { offsetInCU: 0xD2BA, offset: 0xD2BA, size: 0x8, addend: 0x0, symName: __ZNSt3__112__to_addressB7v160006ImEEPT_S2_, symObjAddr: 0x3C60, symBinAddr: 0x100004C20, symSize: 0x10 }
  - { offsetInCU: 0xD314, offset: 0xD314, size: 0x8, addend: 0x0, symName: __ZNSt3__112construct_atB7v160006ImJRKmEPmEEPT_S5_DpOT0_, symObjAddr: 0x3CD0, symBinAddr: 0x100004C90, symSize: 0x30 }
  - { offsetInCU: 0xD384, offset: 0xD384, size: 0x8, addend: 0x0, symName: __ZNSt3__13maxB7v160006ImEERKT_S3_S3_, symObjAddr: 0x4050, symBinAddr: 0x100005010, symSize: 0x30 }
  - { offsetInCU: 0xD3C7, offset: 0xD3C7, size: 0x8, addend: 0x0, symName: __ZNSt3__13maxB7v160006ImNS_6__lessImmEEEERKT_S5_S5_T0_, symObjAddr: 0x4140, symBinAddr: 0x100005100, symSize: 0x50 }
  - { offsetInCU: 0xD421, offset: 0xD421, size: 0x8, addend: 0x0, symName: __ZNSt3__119__allocate_at_leastB7v160006INS_9allocatorImEEEEDaRT_m, symObjAddr: 0x4290, symBinAddr: 0x100005250, symSize: 0x40 }
  - { offsetInCU: 0xD464, offset: 0xD464, size: 0x8, addend: 0x0, symName: __ZNSt3__117allocate_at_leastB7v160006INS_9allocatorImEEEENS_17allocation_resultINS_16allocator_traitsIT_E7pointerEEERS5_m, symObjAddr: 0x4370, symBinAddr: 0x100005330, symSize: 0x40 }
  - { offsetInCU: 0xD4A7, offset: 0xD4A7, size: 0x8, addend: 0x0, symName: __ZNSt3__142__uninitialized_allocator_move_if_noexceptB7v160006INS_9allocatorImEENS_16reverse_iteratorIPmEES5_mvEET1_RT_T0_S9_S6_, symObjAddr: 0x4550, symBinAddr: 0x100005510, symSize: 0x70 }
  - { offsetInCU: 0xD523, offset: 0xD523, size: 0x8, addend: 0x0, symName: __ZNSt3__14swapB7v160006IPmEENS_9enable_ifIXaasr21is_move_constructibleIT_EE5valuesr18is_move_assignableIS3_EE5valueEvE4typeERS3_S6_, symObjAddr: 0x4610, symBinAddr: 0x1000055D0, symSize: 0x40 }
  - { offsetInCU: 0xD574, offset: 0xD574, size: 0x8, addend: 0x0, symName: __ZNSt3__125__debug_db_invalidate_allB7v160006INS_6vectorImNS_9allocatorImEEEEEEvPT_, symObjAddr: 0x4700, symBinAddr: 0x1000056C0, symSize: 0x10 }
  - { offsetInCU: 0xD5A5, offset: 0xD5A5, size: 0x8, addend: 0x0, symName: __ZNSt3__14moveB7v160006INS_16reverse_iteratorIPmEES3_EET0_T_S5_S4_, symObjAddr: 0x4750, symBinAddr: 0x100005710, symSize: 0x80 }
  - { offsetInCU: 0xD5FF, offset: 0xD5FF, size: 0x8, addend: 0x0, symName: __ZNSt3__16__moveB7v160006INS_17_ClassicAlgPolicyENS_16reverse_iteratorIPmEES4_S4_EENS_4pairIT0_T2_EES6_T1_S7_, symObjAddr: 0x47D0, symBinAddr: 0x100005790, symSize: 0x90 }
  - { offsetInCU: 0xD66B, offset: 0xD66B, size: 0x8, addend: 0x0, symName: __ZNSt3__123__dispatch_copy_or_moveB7v160006INS_17_ClassicAlgPolicyENS_11__move_loopIS1_EENS_14__move_trivialENS_16reverse_iteratorIPmEES7_S7_EENS_4pairIT2_T4_EES9_T3_SA_, symObjAddr: 0x4860, symBinAddr: 0x100005820, symSize: 0x90 }
  - { offsetInCU: 0xD6E9, offset: 0xD6E9, size: 0x8, addend: 0x0, symName: __ZNSt3__121__unwrap_and_dispatchB7v160006INS_10__overloadINS_11__move_loopINS_17_ClassicAlgPolicyEEENS_14__move_trivialEEENS_16reverse_iteratorIPmEES9_S9_Li0EEENS_4pairIT0_T2_EESB_T1_SC_, symObjAddr: 0x48F0, symBinAddr: 0x1000058B0, symSize: 0x210 }
  - { offsetInCU: 0xD778, offset: 0xD778, size: 0x8, addend: 0x0, symName: __ZNSt3__114__unwrap_rangeB7v160006INS_16reverse_iteratorIPmEES3_EEDaT_T0_, symObjAddr: 0x4B00, symBinAddr: 0x100005AC0, symSize: 0x60 }
  - { offsetInCU: 0xD940, offset: 0xD940, size: 0x8, addend: 0x0, symName: __ZNSt3__113__unwrap_iterB7v160006INS_16reverse_iteratorIPmEENS_18__unwrap_iter_implIS3_Lb0EEELi0EEEDTclsrT0_8__unwrapclsr3stdE7declvalIT_EEEES7_, symObjAddr: 0x4C00, symBinAddr: 0x100005BC0, symSize: 0x40 }
  - { offsetInCU: 0xD984, offset: 0xD984, size: 0x8, addend: 0x0, symName: __ZNSt3__19make_pairB7v160006INS_16reverse_iteratorIPmEES3_EENS_4pairINS_18__unwrap_ref_decayIT_E4typeENS5_IT0_E4typeEEEOS6_OS9_, symObjAddr: 0x4C40, symBinAddr: 0x100005C00, symSize: 0x30 }
  - { offsetInCU: 0xD9D3, offset: 0xD9D3, size: 0x8, addend: 0x0, symName: __ZNSt3__114__rewrap_rangeB7v160006INS_16reverse_iteratorIPmEES3_S3_EET0_S4_T1_, symObjAddr: 0x4C70, symBinAddr: 0x100005C30, symSize: 0x60 }
  - { offsetInCU: 0xDA28, offset: 0xDA28, size: 0x8, addend: 0x0, symName: __ZNSt3__113__rewrap_iterB7v160006INS_16reverse_iteratorIPmEES3_NS_18__unwrap_iter_implIS3_Lb0EEEEET_S6_T0_, symObjAddr: 0x4CD0, symBinAddr: 0x100005C90, symSize: 0x70 }
  - { offsetInCU: 0xDACD, offset: 0xDACD, size: 0x8, addend: 0x0, symName: __ZNSt3__1neB7v160006IPmS1_EEbRKNS_16reverse_iteratorIT_EERKNS2_IT0_EE, symObjAddr: 0x4E40, symBinAddr: 0x100005E00, symSize: 0x40 }
  - { offsetInCU: 0xDBCB, offset: 0xDBCB, size: 0x8, addend: 0x0, symName: __ZNSt3__110destroy_atB7v160006ImLi0EEEvPT_, symObjAddr: 0x51A0, symBinAddr: 0x100006160, symSize: 0x20 }
  - { offsetInCU: 0xDC02, offset: 0xDC02, size: 0x8, addend: 0x0, symName: __ZNSt3__112__destroy_atB7v160006ImLi0EEEvPT_, symObjAddr: 0x51C0, symBinAddr: 0x100006180, symSize: 0x10 }
  - { offsetInCU: 0xDC39, offset: 0xDC39, size: 0x8, addend: 0x0, symName: __ZNSt3__1eqB7v160006IPmEEbRKNS_11__wrap_iterIT_EES6_, symObjAddr: 0x52D0, symBinAddr: 0x100006290, symSize: 0x40 }
  - { offsetInCU: 0xDC7C, offset: 0xDC7C, size: 0x8, addend: 0x0, symName: __ZNSt3__118__debug_db_erase_cB7v160006INS_6vectorImNS_9allocatorImEEEEEEvPT_, symObjAddr: 0x5450, symBinAddr: 0x100006410, symSize: 0x10 }
  - { offsetInCU: 0xDCAD, offset: 0xDCAD, size: 0x8, addend: 0x0, symName: __ZNSt3__1neB7v160006ERKNS_16__deque_iteratorImPmRmPS1_lLl512EEES6_, symObjAddr: 0x5920, symBinAddr: 0x1000068E0, symSize: 0x30 }
  - { offsetInCU: 0xDCEA, offset: 0xDCEA, size: 0x8, addend: 0x0, symName: __ZNSt3__1eqB7v160006ERKNS_16__deque_iteratorImPmRmPS1_lLl512EEES6_, symObjAddr: 0x5B50, symBinAddr: 0x100006B10, symSize: 0x30 }
  - { offsetInCU: 0xDD27, offset: 0xDD27, size: 0x8, addend: 0x0, symName: __ZNSt3__112__to_addressB7v160006IPmEEPT_S3_, symObjAddr: 0x5E00, symBinAddr: 0x100006DC0, symSize: 0x10 }
  - { offsetInCU: 0xDD5C, offset: 0xDD5C, size: 0x8, addend: 0x0, symName: __ZNSt3__110destroy_atB7v160006IPmLi0EEEvPT_, symObjAddr: 0x5E10, symBinAddr: 0x100006DD0, symSize: 0x20 }
  - { offsetInCU: 0xDD93, offset: 0xDD93, size: 0x8, addend: 0x0, symName: __ZNSt3__112__destroy_atB7v160006IPmLi0EEEvPT_, symObjAddr: 0x5E30, symBinAddr: 0x100006DF0, symSize: 0x10 }
  - { offsetInCU: 0xDDCA, offset: 0xDDCA, size: 0x8, addend: 0x0, symName: __ZNSt3__122__make_exception_guardB7v160006INS_6vectorI5ColorNS_9allocatorIS2_EEE16__destroy_vectorEEENS_28__exception_guard_exceptionsIT_EES8_, symObjAddr: 0x6010, symBinAddr: 0x100006FD0, symSize: 0x40 }
  - { offsetInCU: 0xDDFF, offset: 0xDDFF, size: 0x8, addend: 0x0, symName: __ZNSt3__119__debug_db_insert_cB7v160006INS_6vectorI5ColorNS_9allocatorIS2_EEEEEEvPT_, symObjAddr: 0x6080, symBinAddr: 0x100007040, symSize: 0x10 }
  - { offsetInCU: 0xDE30, offset: 0xDE30, size: 0x8, addend: 0x0, symName: __ZNSt3__119__allocate_at_leastB7v160006INS_9allocatorI5ColorEEEEDaRT_m, symObjAddr: 0x63D0, symBinAddr: 0x100007390, symSize: 0x40 }
  - { offsetInCU: 0xDE73, offset: 0xDE73, size: 0x8, addend: 0x0, symName: __ZNSt3__117allocate_at_leastB7v160006INS_9allocatorI5ColorEEEENS_17allocation_resultINS_16allocator_traitsIT_E7pointerEEERS6_m, symObjAddr: 0x6560, symBinAddr: 0x100007520, symSize: 0x40 }
  - { offsetInCU: 0xDEB6, offset: 0xDEB6, size: 0x8, addend: 0x0, symName: __ZNSt3__112__to_addressB7v160006I5ColorEEPT_S3_, symObjAddr: 0x6700, symBinAddr: 0x1000076C0, symSize: 0x10 }
  - { offsetInCU: 0xDF10, offset: 0xDF10, size: 0x8, addend: 0x0, symName: __ZNSt3__112construct_atB7v160006I5ColorJRKS1_EPS1_EEPT_S6_DpOT0_, symObjAddr: 0x6820, symBinAddr: 0x1000077E0, symSize: 0x30 }
  - { offsetInCU: 0xDF80, offset: 0xDF80, size: 0x8, addend: 0x0, symName: __ZNSt3__118__debug_db_erase_cB7v160006INS_6vectorI5ColorNS_9allocatorIS2_EEEEEEvPT_, symObjAddr: 0x69E0, symBinAddr: 0x1000079A0, symSize: 0x10 }
  - { offsetInCU: 0xDFB1, offset: 0xDFB1, size: 0x8, addend: 0x0, symName: __ZNSt3__110destroy_atB7v160006I5ColorLi0EEEvPT_, symObjAddr: 0x6B00, symBinAddr: 0x100007AC0, symSize: 0x20 }
  - { offsetInCU: 0xDFE8, offset: 0xDFE8, size: 0x8, addend: 0x0, symName: __ZNSt3__112__destroy_atB7v160006I5ColorLi0EEEvPT_, symObjAddr: 0x6B20, symBinAddr: 0x100007AE0, symSize: 0x10 }
  - { offsetInCU: 0xE5B4, offset: 0xE5B4, size: 0x8, addend: 0x0, symName: __ZNSt3__19use_facetB7v160006INS_5ctypeIcEEEERKT_RKNS_6localeE, symObjAddr: 0x6D30, symBinAddr: 0x100007CF0, symSize: 0x30 }
  - { offsetInCU: 0xE994, offset: 0xE994, size: 0x8, addend: 0x0, symName: __ZNSt3__125__debug_db_invalidate_allB7v160006INS_12basic_stringIcNS_11char_traitsIcEENS_9allocatorIcEEEEEEvPT_, symObjAddr: 0x6FB0, symBinAddr: 0x100007F70, symSize: 0x10 }
  - { offsetInCU: 0xED6A, offset: 0xED6A, size: 0x8, addend: 0x0, symName: __ZNSt3__14swapB7v160006IPPmEENS_9enable_ifIXaasr21is_move_constructibleIT_EE5valuesr18is_move_assignableIS4_EE5valueEvE4typeERS4_S7_, symObjAddr: 0x8780, symBinAddr: 0x100009740, symSize: 0x40 }
  - { offsetInCU: 0xEDBB, offset: 0xEDBB, size: 0x8, addend: 0x0, symName: __ZNSt3__14moveB7v160006IPPmS2_EET0_T_S4_S3_, symObjAddr: 0x8840, symBinAddr: 0x100009800, symSize: 0x40 }
  - { offsetInCU: 0xEE31, offset: 0xEE31, size: 0x8, addend: 0x0, symName: __ZNSt3__16__moveB7v160006INS_17_ClassicAlgPolicyEPPmS3_S3_EENS_4pairIT0_T2_EES5_T1_S6_, symObjAddr: 0x89E0, symBinAddr: 0x1000099A0, symSize: 0x40 }
  - { offsetInCU: 0xEE9D, offset: 0xEE9D, size: 0x8, addend: 0x0, symName: __ZNSt3__123__dispatch_copy_or_moveB7v160006INS_17_ClassicAlgPolicyENS_11__move_loopIS1_EENS_14__move_trivialEPPmS6_S6_EENS_4pairIT2_T4_EES8_T3_S9_, symObjAddr: 0x8A20, symBinAddr: 0x1000099E0, symSize: 0x40 }
  - { offsetInCU: 0xEF1B, offset: 0xEF1B, size: 0x8, addend: 0x0, symName: __ZNSt3__121__unwrap_and_dispatchB7v160006INS_10__overloadINS_11__move_loopINS_17_ClassicAlgPolicyEEENS_14__move_trivialEEEPPmS8_S8_Li0EEENS_4pairIT0_T2_EESA_T1_SB_, symObjAddr: 0x8A60, symBinAddr: 0x100009A20, symSize: 0xB0 }
  - { offsetInCU: 0xEFAA, offset: 0xEFAA, size: 0x8, addend: 0x0, symName: __ZNSt3__114__unwrap_rangeB7v160006IPPmS2_EEDaT_T0_, symObjAddr: 0x8B10, symBinAddr: 0x100009AD0, symSize: 0x40 }
  - { offsetInCU: 0xF1BB, offset: 0xF1BB, size: 0x8, addend: 0x0, symName: __ZNSt3__113__unwrap_iterB7v160006IPPmNS_18__unwrap_iter_implIS2_Lb1EEELi0EEEDTclsrT0_8__unwrapclsr3stdE7declvalIT_EEEES6_, symObjAddr: 0x8B90, symBinAddr: 0x100009B50, symSize: 0x20 }
  - { offsetInCU: 0xF1FF, offset: 0xF1FF, size: 0x8, addend: 0x0, symName: __ZNSt3__19make_pairB7v160006IPPmS2_EENS_4pairINS_18__unwrap_ref_decayIT_E4typeENS4_IT0_E4typeEEEOS5_OS8_, symObjAddr: 0x8BB0, symBinAddr: 0x100009B70, symSize: 0x30 }
  - { offsetInCU: 0xF24E, offset: 0xF24E, size: 0x8, addend: 0x0, symName: __ZNSt3__114__rewrap_rangeB7v160006IPPmS2_S2_EET0_S3_T1_, symObjAddr: 0x8BE0, symBinAddr: 0x100009BA0, symSize: 0x30 }
  - { offsetInCU: 0xF2A3, offset: 0xF2A3, size: 0x8, addend: 0x0, symName: __ZNSt3__113__rewrap_iterB7v160006IPPmS2_NS_18__unwrap_iter_implIS2_Lb1EEEEET_S5_T0_, symObjAddr: 0x8C10, symBinAddr: 0x100009BD0, symSize: 0x40 }
  - { offsetInCU: 0xF348, offset: 0xF348, size: 0x8, addend: 0x0, symName: __ZNSt3__119__copy_trivial_implB7v160006IPmS1_EENS_4pairIPT_PT0_EES4_S4_S6_, symObjAddr: 0x8D00, symBinAddr: 0x100009CC0, symSize: 0x70 }
  - { offsetInCU: 0xF3B0, offset: 0xF3B0, size: 0x8, addend: 0x0, symName: __ZNSt3__19make_pairB7v160006IRPPmS2_EENS_4pairINS_18__unwrap_ref_decayIT_E4typeENS5_IT0_E4typeEEEOS6_OS9_, symObjAddr: 0x8D70, symBinAddr: 0x100009D30, symSize: 0x30 }
  - { offsetInCU: 0xF452, offset: 0xF452, size: 0x8, addend: 0x0, symName: __ZNSt3__18distanceB7v160006INS_13move_iteratorIPPmEEEENS_15iterator_traitsIT_E15difference_typeES6_S6_, symObjAddr: 0x8EA0, symBinAddr: 0x100009E60, symSize: 0x40 }
  - { offsetInCU: 0xF495, offset: 0xF495, size: 0x8, addend: 0x0, symName: __ZNSt3__110__distanceB7v160006INS_13move_iteratorIPPmEEEENS_15iterator_traitsIT_E15difference_typeES6_S6_NS_26random_access_iterator_tagE, symObjAddr: 0x8FD0, symBinAddr: 0x100009F90, symSize: 0x30 }
  - { offsetInCU: 0xF4E2, offset: 0xF4E2, size: 0x8, addend: 0x0, symName: __ZNSt3__1miB7v160006IPPmS2_EEDTmicldtfp_4baseEcldtfp0_4baseEERKNS_13move_iteratorIT_EERKNS4_IT0_EE, symObjAddr: 0x9000, symBinAddr: 0x100009FC0, symSize: 0x40 }
  - { offsetInCU: 0xF556, offset: 0xF556, size: 0x8, addend: 0x0, symName: __ZNSt3__112construct_atB7v160006IPmJS1_EPS1_EEPT_S4_DpOT0_, symObjAddr: 0x9090, symBinAddr: 0x10000A050, symSize: 0x30 }
  - { offsetInCU: 0xF5C6, offset: 0xF5C6, size: 0x8, addend: 0x0, symName: __ZNSt3__112construct_atB7v160006IPmJRKS1_EPS1_EEPT_S6_DpOT0_, symObjAddr: 0x9160, symBinAddr: 0x10000A120, symSize: 0x30 }
  - { offsetInCU: 0xF636, offset: 0xF636, size: 0x8, addend: 0x0, symName: __ZNSt3__113move_backwardB7v160006IPPmS2_EET0_T_S4_S3_, symObjAddr: 0x9190, symBinAddr: 0x10000A150, symSize: 0x40 }
  - { offsetInCU: 0xF690, offset: 0xF690, size: 0x8, addend: 0x0, symName: __ZNSt3__115__move_backwardB7v160006INS_17_ClassicAlgPolicyEPPmS3_S3_EENS_4pairIT0_T2_EES5_T1_S6_, symObjAddr: 0x91D0, symBinAddr: 0x10000A190, symSize: 0x40 }
  - { offsetInCU: 0xF6FC, offset: 0xF6FC, size: 0x8, addend: 0x0, symName: __ZNSt3__123__dispatch_copy_or_moveB7v160006INS_17_ClassicAlgPolicyENS_20__move_backward_loopIS1_EENS_23__move_backward_trivialEPPmS6_S6_EENS_4pairIT2_T4_EES8_T3_S9_, symObjAddr: 0x9210, symBinAddr: 0x10000A1D0, symSize: 0x40 }
  - { offsetInCU: 0xF77A, offset: 0xF77A, size: 0x8, addend: 0x0, symName: __ZNSt3__121__unwrap_and_dispatchB7v160006INS_10__overloadINS_20__move_backward_loopINS_17_ClassicAlgPolicyEEENS_23__move_backward_trivialEEEPPmS8_S8_Li0EEENS_4pairIT0_T2_EESA_T1_SB_, symObjAddr: 0x9250, symBinAddr: 0x10000A210, symSize: 0xB0 }
  - { offsetInCU: 0xF84F, offset: 0xF84F, size: 0x8, addend: 0x0, symName: __ZNSt3__128__copy_backward_trivial_implB7v160006IPmS1_EENS_4pairIPT_PT0_EES4_S4_S6_, symObjAddr: 0x9340, symBinAddr: 0x10000A300, symSize: 0x80 }
  - { offsetInCU: 0xF8B7, offset: 0xF8B7, size: 0x8, addend: 0x0, symName: __ZNSt3__19make_pairB7v160006IRPPmS3_EENS_4pairINS_18__unwrap_ref_decayIT_E4typeENS5_IT0_E4typeEEEOS6_OS9_, symObjAddr: 0x93C0, symBinAddr: 0x10000A380, symSize: 0x30 }
  - { offsetInCU: 0xF906, offset: 0xF906, size: 0x8, addend: 0x0, symName: __ZNSt3__119__allocate_at_leastB7v160006INS_9allocatorIPmEEEEDaRT_m, symObjAddr: 0x9550, symBinAddr: 0x10000A510, symSize: 0x40 }
  - { offsetInCU: 0xF949, offset: 0xF949, size: 0x8, addend: 0x0, symName: __ZNSt3__117allocate_at_leastB7v160006INS_9allocatorIPmEEEENS_17allocation_resultINS_16allocator_traitsIT_E7pointerEEERS6_m, symObjAddr: 0x95F0, symBinAddr: 0x10000A5B0, symSize: 0x40 }
  - { offsetInCU: 0xF98C, offset: 0xF98C, size: 0x8, addend: 0x0, symName: __ZNSt3__116__pad_and_outputB7v160006IcNS_11char_traitsIcEEEENS_19ostreambuf_iteratorIT_T0_EES6_PKS4_S8_S8_RNS_8ios_baseES4_, symObjAddr: 0x9FC0, symBinAddr: 0x10000AF80, symSize: 0x220 }
  - { offsetInCU: 0xFA5C, offset: 0xFA5C, size: 0x8, addend: 0x0, symName: __ZNSt3__112__to_addressB7v160006IcEEPT_S2_, symObjAddr: 0xA3A0, symBinAddr: 0x10000B360, symSize: 0x10 }
  - { offsetInCU: 0xFA91, offset: 0xFA91, size: 0x8, addend: 0x0, symName: __ZNSt3__118__constexpr_strlenB7v160006EPKc, symObjAddr: 0xA500, symBinAddr: 0x10000B4C0, symSize: 0x1B }
  - { offsetInCU: 0x1003C, offset: 0x1003C, size: 0x8, addend: 0x0, symName: __ZSt28__throw_bad_array_new_lengthB7v160006v, symObjAddr: 0x1900, symBinAddr: 0x1000028C0, symSize: 0x40 }
  - { offsetInCU: 0x108B8, offset: 0x108B8, size: 0x8, addend: 0x0, symName: __ZNSt3__16vectorImNS_9allocatorImEEE26__swap_out_circular_bufferERNS_14__split_bufferImRS2_EE, symObjAddr: 0x3E50, symBinAddr: 0x100004E10, symSize: 0x130 }
  - { offsetInCU: 0x13024, offset: 0x13024, size: 0x8, addend: 0x0, symName: __Z13GetEdgeMatrixv, symObjAddr: 0x0, symBinAddr: 0x100000FC0, symSize: 0x250 }
  - { offsetInCU: 0x130A6, offset: 0x130A6, size: 0x8, addend: 0x0, symName: __ZNSt3__16vectorI7WayTypeNS_9allocatorIS1_EEEC1EmRKS1_, symObjAddr: 0x250, symBinAddr: 0x100001210, symSize: 0x30 }
  - { offsetInCU: 0x130F0, offset: 0x130F0, size: 0x8, addend: 0x0, symName: __ZNSt3__16vectorINS0_I7WayTypeNS_9allocatorIS1_EEEENS2_IS4_EEEC1EmRKS4_, symObjAddr: 0x280, symBinAddr: 0x100001240, symSize: 0x30 }
  - { offsetInCU: 0x1313A, offset: 0x1313A, size: 0x8, addend: 0x0, symName: __ZNSt3__16vectorI7WayTypeNS_9allocatorIS1_EEED1B7v160006Ev, symObjAddr: 0x2B0, symBinAddr: 0x100001270, symSize: 0x20 }
  - { offsetInCU: 0x13164, offset: 0x13164, size: 0x8, addend: 0x0, symName: __ZNSt3__112basic_stringIcNS_11char_traitsIcEENS_9allocatorIcEEEC1B7v160006Ev, symObjAddr: 0x2D0, symBinAddr: 0x100001290, symSize: 0x20 }
  - { offsetInCU: 0x1318E, offset: 0x1318E, size: 0x8, addend: 0x0, symName: __ZNSt3__16vectorINS0_I7WayTypeNS_9allocatorIS1_EEEENS2_IS4_EEE2atEm, symObjAddr: 0x5E0, symBinAddr: 0x1000015A0, symSize: 0x60 }
  - { offsetInCU: 0x131C5, offset: 0x131C5, size: 0x8, addend: 0x0, symName: __ZNSt3__16vectorI7WayTypeNS_9allocatorIS1_EEE2atEm, symObjAddr: 0x640, symBinAddr: 0x100001600, symSize: 0x50 }
  - { offsetInCU: 0x131FC, offset: 0x131FC, size: 0x8, addend: 0x0, symName: __ZNSt3__16vectorINS0_I7WayTypeNS_9allocatorIS1_EEEENS2_IS4_EEED1B7v160006Ev, symObjAddr: 0x690, symBinAddr: 0x100001650, symSize: 0x20 }
  - { offsetInCU: 0x13225, offset: 0x13225, size: 0x8, addend: 0x0, symName: __Z3DFSRKNSt3__16vectorINS0_I7WayTypeNS_9allocatorIS1_EEEENS2_IS4_EEEEmRNS0_I5ColorNS2_IS9_EEEES1_, symObjAddr: 0x6B0, symBinAddr: 0x100001670, symSize: 0x330 }
  - { offsetInCU: 0x13373, offset: 0x13373, size: 0x8, addend: 0x0, symName: __ZNSt3__15stackImNS_5dequeImNS_9allocatorImEEEEEC1B7v160006Ev, symObjAddr: 0x9E0, symBinAddr: 0x1000019A0, symSize: 0x20 }
  - { offsetInCU: 0x1339D, offset: 0x1339D, size: 0x8, addend: 0x0, symName: __ZNSt3__15stackImNS_5dequeImNS_9allocatorImEEEEE4pushB7v160006ERKm, symObjAddr: 0xA00, symBinAddr: 0x1000019C0, symSize: 0x30 }
  - { offsetInCU: 0x133D1, offset: 0x133D1, size: 0x8, addend: 0x0, symName: __ZNSt3__16vectorI5ColorNS_9allocatorIS1_EEEixB7v160006Em, symObjAddr: 0xA30, symBinAddr: 0x1000019F0, symSize: 0x20 }
  - { offsetInCU: 0x13408, offset: 0x13408, size: 0x8, addend: 0x0, symName: __ZNKSt3__15stackImNS_5dequeImNS_9allocatorImEEEEE5emptyB7v160006Ev, symObjAddr: 0xA50, symBinAddr: 0x100001A10, symSize: 0x20 }
  - { offsetInCU: 0x1342E, offset: 0x1342E, size: 0x8, addend: 0x0, symName: __ZNSt3__15stackImNS_5dequeImNS_9allocatorImEEEEE3topB7v160006Ev, symObjAddr: 0xA70, symBinAddr: 0x100001A30, symSize: 0x20 }
  - { offsetInCU: 0x13454, offset: 0x13454, size: 0x8, addend: 0x0, symName: __ZNSt3__16vectorImNS_9allocatorImEEEC1B7v160006Ev, symObjAddr: 0xA90, symBinAddr: 0x100001A50, symSize: 0x20 }
  - { offsetInCU: 0x1347E, offset: 0x1347E, size: 0x8, addend: 0x0, symName: __ZNKSt3__16vectorINS0_I7WayTypeNS_9allocatorIS1_EEEENS2_IS4_EEE4sizeB7v160006Ev, symObjAddr: 0xAB0, symBinAddr: 0x100001A70, symSize: 0x30 }
  - { offsetInCU: 0x134A4, offset: 0x134A4, size: 0x8, addend: 0x0, symName: __ZNKSt3__16vectorINS0_I7WayTypeNS_9allocatorIS1_EEEENS2_IS4_EEE2atEm, symObjAddr: 0xAE0, symBinAddr: 0x100001AA0, symSize: 0x60 }
  - { offsetInCU: 0x134DB, offset: 0x134DB, size: 0x8, addend: 0x0, symName: __ZNKSt3__16vectorI7WayTypeNS_9allocatorIS1_EEE2atEm, symObjAddr: 0xB40, symBinAddr: 0x100001B00, symSize: 0x50 }
  - { offsetInCU: 0x13512, offset: 0x13512, size: 0x8, addend: 0x0, symName: __ZNSt3__16vectorImNS_9allocatorImEEE9push_backB7v160006ERKm, symObjAddr: 0xB90, symBinAddr: 0x100001B50, symSize: 0x60 }
  - { offsetInCU: 0x13549, offset: 0x13549, size: 0x8, addend: 0x0, symName: __ZNSt3__15stackImNS_5dequeImNS_9allocatorImEEEEE3popB7v160006Ev, symObjAddr: 0xBF0, symBinAddr: 0x100001BB0, symSize: 0x20 }
  - { offsetInCU: 0x1356F, offset: 0x1356F, size: 0x8, addend: 0x0, symName: __ZNSt3__16vectorImNS_9allocatorImEEE5beginB7v160006Ev, symObjAddr: 0xC10, symBinAddr: 0x100001BD0, symSize: 0x30 }
  - { offsetInCU: 0x13597, offset: 0x13597, size: 0x8, addend: 0x0, symName: __ZNSt3__16vectorImNS_9allocatorImEEE3endB7v160006Ev, symObjAddr: 0xC40, symBinAddr: 0x100001C00, symSize: 0x30 }
  - { offsetInCU: 0x135BF, offset: 0x135BF, size: 0x8, addend: 0x0, symName: __ZNKSt3__111__wrap_iterIPmEdeB7v160006Ev, symObjAddr: 0xCA0, symBinAddr: 0x100001C60, symSize: 0x20 }
  - { offsetInCU: 0x135E5, offset: 0x135E5, size: 0x8, addend: 0x0, symName: __ZNSt3__111__wrap_iterIPmEppB7v160006Ev, symObjAddr: 0xCC0, symBinAddr: 0x100001C80, symSize: 0x20 }
  - { offsetInCU: 0x1360B, offset: 0x1360B, size: 0x8, addend: 0x0, symName: __ZNSt3__16vectorImNS_9allocatorImEEED1B7v160006Ev, symObjAddr: 0xCE0, symBinAddr: 0x100001CA0, symSize: 0x20 }
  - { offsetInCU: 0x13635, offset: 0x13635, size: 0x8, addend: 0x0, symName: __ZNSt3__15stackImNS_5dequeImNS_9allocatorImEEEEED1Ev, symObjAddr: 0xD00, symBinAddr: 0x100001CC0, symSize: 0x20 }
  - { offsetInCU: 0x13660, offset: 0x13660, size: 0x8, addend: 0x0, symName: __Z23CheckGraphOfDefinedTypeRKNSt3__16vectorINS0_I7WayTypeNS_9allocatorIS1_EEEENS2_IS4_EEEES1_, symObjAddr: 0xD20, symBinAddr: 0x100001CE0, symSize: 0x110 }
  - { offsetInCU: 0x136BD, offset: 0x136BD, size: 0x8, addend: 0x0, symName: __ZNSt3__16vectorI5ColorNS_9allocatorIS1_EEEC1EmRKS1_, symObjAddr: 0xE30, symBinAddr: 0x100001DF0, symSize: 0x30 }
  - { offsetInCU: 0x13707, offset: 0x13707, size: 0x8, addend: 0x0, symName: __ZNSt3__16vectorI5ColorNS_9allocatorIS1_EEED1B7v160006Ev, symObjAddr: 0xE60, symBinAddr: 0x100001E20, symSize: 0x20 }
  - { offsetInCU: 0x13730, offset: 0x13730, size: 0x8, addend: 0x0, symName: __Z19CheckIfMapIsOptimalRKNSt3__16vectorINS0_I7WayTypeNS_9allocatorIS1_EEEENS2_IS4_EEEE, symObjAddr: 0xE80, symBinAddr: 0x100001E40, symSize: 0x50 }
  - { offsetInCU: 0x1375D, offset: 0x1375D, size: 0x8, addend: 0x0, symName: _main, symObjAddr: 0xED0, symBinAddr: 0x100001E90, symSize: 0xB0 }
  - { offsetInCU: 0x13786, offset: 0x13786, size: 0x8, addend: 0x0, symName: __ZNSt3__16vectorI7WayTypeNS_9allocatorIS1_EEEC2EmRKS1_, symObjAddr: 0xFF0, symBinAddr: 0x100001FB0, symSize: 0xE0 }
  - { offsetInCU: 0x137F1, offset: 0x137F1, size: 0x8, addend: 0x0, symName: __ZNSt3__117__compressed_pairIP7WayTypeNS_9allocatorIS1_EEEC1B7v160006IDnNS_18__default_init_tagEEEOT_OT0_, symObjAddr: 0x10D0, symBinAddr: 0x100002090, symSize: 0x30 }
  - { offsetInCU: 0x13849, offset: 0x13849, size: 0x8, addend: 0x0, symName: __ZNSt3__16vectorI7WayTypeNS_9allocatorIS1_EEE16__destroy_vectorC1ERS4_, symObjAddr: 0x1140, symBinAddr: 0x100002100, symSize: 0x30 }
  - { offsetInCU: 0x13882, offset: 0x13882, size: 0x8, addend: 0x0, symName: __ZNSt3__16vectorI7WayTypeNS_9allocatorIS1_EEE11__vallocateB7v160006Em, symObjAddr: 0x1180, symBinAddr: 0x100002140, symSize: 0xA0 }
  - { offsetInCU: 0x138C6, offset: 0x138C6, size: 0x8, addend: 0x0, symName: __ZNSt3__16vectorI7WayTypeNS_9allocatorIS1_EEE18__construct_at_endEmRKS1_, symObjAddr: 0x1220, symBinAddr: 0x1000021E0, symSize: 0xC0 }
  - { offsetInCU: 0x13947, offset: 0x13947, size: 0x8, addend: 0x0, symName: __ZNSt3__128__exception_guard_exceptionsINS_6vectorI7WayTypeNS_9allocatorIS2_EEE16__destroy_vectorEE10__completeB7v160006Ev, symObjAddr: 0x12E0, symBinAddr: 0x1000022A0, symSize: 0x20 }
  - { offsetInCU: 0x1396D, offset: 0x1396D, size: 0x8, addend: 0x0, symName: __ZNSt3__128__exception_guard_exceptionsINS_6vectorI7WayTypeNS_9allocatorIS2_EEE16__destroy_vectorEED1B7v160006Ev, symObjAddr: 0x1300, symBinAddr: 0x1000022C0, symSize: 0x20 }
  - { offsetInCU: 0x13997, offset: 0x13997, size: 0x8, addend: 0x0, symName: __ZNSt3__117__compressed_pairIP7WayTypeNS_9allocatorIS1_EEEC2B7v160006IDnNS_18__default_init_tagEEEOT_OT0_, symObjAddr: 0x1320, symBinAddr: 0x1000022E0, symSize: 0x40 }
  - { offsetInCU: 0x139EF, offset: 0x139EF, size: 0x8, addend: 0x0, symName: __ZNSt3__122__compressed_pair_elemIP7WayTypeLi0ELb0EEC2B7v160006IDnvEEOT_, symObjAddr: 0x1360, symBinAddr: 0x100002320, symSize: 0x20 }
  - { offsetInCU: 0x13A31, offset: 0x13A31, size: 0x8, addend: 0x0, symName: __ZNSt3__122__compressed_pair_elemINS_9allocatorI7WayTypeEELi1ELb1EEC2B7v160006ENS_18__default_init_tagE, symObjAddr: 0x1380, symBinAddr: 0x100002340, symSize: 0x20 }
  - { offsetInCU: 0x13A65, offset: 0x13A65, size: 0x8, addend: 0x0, symName: __ZNSt3__19allocatorI7WayTypeEC2B7v160006Ev, symObjAddr: 0x13A0, symBinAddr: 0x100002360, symSize: 0x20 }
  - { offsetInCU: 0x13A8F, offset: 0x13A8F, size: 0x8, addend: 0x0, symName: __ZNSt3__116__non_trivial_ifILb1ENS_9allocatorI7WayTypeEEEC2B7v160006Ev, symObjAddr: 0x13C0, symBinAddr: 0x100002380, symSize: 0x10 }
  - { offsetInCU: 0x13AB9, offset: 0x13AB9, size: 0x8, addend: 0x0, symName: __ZNSt3__128__exception_guard_exceptionsINS_6vectorI7WayTypeNS_9allocatorIS2_EEE16__destroy_vectorEEC1B7v160006ES6_, symObjAddr: 0x13D0, symBinAddr: 0x100002390, symSize: 0x30 }
  - { offsetInCU: 0x13AF1, offset: 0x13AF1, size: 0x8, addend: 0x0, symName: __ZNSt3__128__exception_guard_exceptionsINS_6vectorI7WayTypeNS_9allocatorIS2_EEE16__destroy_vectorEEC2B7v160006ES6_, symObjAddr: 0x1400, symBinAddr: 0x1000023C0, symSize: 0x20 }
  - { offsetInCU: 0x13B29, offset: 0x13B29, size: 0x8, addend: 0x0, symName: __ZNSt3__16vectorI7WayTypeNS_9allocatorIS1_EEE16__destroy_vectorC2ERS4_, symObjAddr: 0x1420, symBinAddr: 0x1000023E0, symSize: 0x20 }
  - { offsetInCU: 0x13B62, offset: 0x13B62, size: 0x8, addend: 0x0, symName: __ZNKSt3__16vectorI7WayTypeNS_9allocatorIS1_EEE8max_sizeEv, symObjAddr: 0x1440, symBinAddr: 0x100002400, symSize: 0x60 }
  - { offsetInCU: 0x13B8A, offset: 0x13B8A, size: 0x8, addend: 0x0, symName: __ZNKSt3__16vectorI7WayTypeNS_9allocatorIS1_EEE20__throw_length_errorB7v160006Ev, symObjAddr: 0x14A0, symBinAddr: 0x100002460, symSize: 0x20 }
  - { offsetInCU: 0x13BB0, offset: 0x13BB0, size: 0x8, addend: 0x0, symName: __ZNSt3__16vectorI7WayTypeNS_9allocatorIS1_EEE7__allocB7v160006Ev, symObjAddr: 0x1500, symBinAddr: 0x1000024C0, symSize: 0x20 }
  - { offsetInCU: 0x13BD6, offset: 0x13BD6, size: 0x8, addend: 0x0, symName: __ZNSt3__16vectorI7WayTypeNS_9allocatorIS1_EEE9__end_capB7v160006Ev, symObjAddr: 0x1520, symBinAddr: 0x1000024E0, symSize: 0x20 }
  - { offsetInCU: 0x13BFC, offset: 0x13BFC, size: 0x8, addend: 0x0, symName: __ZNKSt3__16vectorI7WayTypeNS_9allocatorIS1_EEE14__annotate_newB7v160006Em, symObjAddr: 0x1540, symBinAddr: 0x100002500, symSize: 0xA0 }
  - { offsetInCU: 0x13C3C, offset: 0x13C3C, size: 0x8, addend: 0x0, symName: __ZNSt3__116allocator_traitsINS_9allocatorI7WayTypeEEE8max_sizeB7v160006IS3_vvEEmRKS3_, symObjAddr: 0x1610, symBinAddr: 0x1000025D0, symSize: 0x20 }
  - { offsetInCU: 0x13C67, offset: 0x13C67, size: 0x8, addend: 0x0, symName: __ZNKSt3__16vectorI7WayTypeNS_9allocatorIS1_EEE7__allocB7v160006Ev, symObjAddr: 0x1630, symBinAddr: 0x1000025F0, symSize: 0x20 }
  - { offsetInCU: 0x13C8D, offset: 0x13C8D, size: 0x8, addend: 0x0, symName: __ZNSt3__114numeric_limitsIlE3maxB7v160006Ev, symObjAddr: 0x1650, symBinAddr: 0x100002610, symSize: 0x10 }
  - { offsetInCU: 0x13CAC, offset: 0x13CAC, size: 0x8, addend: 0x0, symName: __ZNKSt3__16__lessImmEclB7v160006ERKmS3_, symObjAddr: 0x16C0, symBinAddr: 0x100002680, symSize: 0x30 }
  - { offsetInCU: 0x13CEE, offset: 0x13CEE, size: 0x8, addend: 0x0, symName: __ZNSt3__114numeric_limitsImE3maxB7v160006Ev, symObjAddr: 0x16F0, symBinAddr: 0x1000026B0, symSize: 0x10 }
  - { offsetInCU: 0x13D02, offset: 0x13D02, size: 0x8, addend: 0x0, symName: __ZNSt3__123__libcpp_numeric_limitsImLb1EE3maxB7v160006Ev, symObjAddr: 0x1700, symBinAddr: 0x1000026C0, symSize: 0x10 }
  - { offsetInCU: 0x13D16, offset: 0x13D16, size: 0x8, addend: 0x0, symName: __ZNKSt3__117__compressed_pairIP7WayTypeNS_9allocatorIS1_EEE6secondB7v160006Ev, symObjAddr: 0x1710, symBinAddr: 0x1000026D0, symSize: 0x20 }
  - { offsetInCU: 0x13D3C, offset: 0x13D3C, size: 0x8, addend: 0x0, symName: __ZNKSt3__122__compressed_pair_elemINS_9allocatorI7WayTypeEELi1ELb1EE5__getB7v160006Ev, symObjAddr: 0x1730, symBinAddr: 0x1000026F0, symSize: 0x10 }
  - { offsetInCU: 0x13D62, offset: 0x13D62, size: 0x8, addend: 0x0, symName: __ZNSt3__123__libcpp_numeric_limitsIlLb1EE3maxB7v160006Ev, symObjAddr: 0x1740, symBinAddr: 0x100002700, symSize: 0x10 }
  - { offsetInCU: 0x13D76, offset: 0x13D76, size: 0x8, addend: 0x0, symName: __ZNSt12length_errorC1B7v160006EPKc, symObjAddr: 0x17C0, symBinAddr: 0x100002780, symSize: 0x30 }
  - { offsetInCU: 0x13DAE, offset: 0x13DAE, size: 0x8, addend: 0x0, symName: __ZNSt12length_errorC2B7v160006EPKc, symObjAddr: 0x17F0, symBinAddr: 0x1000027B0, symSize: 0x40 }
  - { offsetInCU: 0x13DE6, offset: 0x13DE6, size: 0x8, addend: 0x0, symName: __ZNSt3__19allocatorI7WayTypeE17allocate_at_leastB7v160006Em, symObjAddr: 0x1870, symBinAddr: 0x100002830, symSize: 0x40 }
  - { offsetInCU: 0x13E1A, offset: 0x13E1A, size: 0x8, addend: 0x0, symName: __ZNSt3__19allocatorI7WayTypeE8allocateB7v160006Em, symObjAddr: 0x18B0, symBinAddr: 0x100002870, symSize: 0x50 }
  - { offsetInCU: 0x13E4E, offset: 0x13E4E, size: 0x8, addend: 0x0, symName: __ZNSt3__117__compressed_pairIP7WayTypeNS_9allocatorIS1_EEE6secondB7v160006Ev, symObjAddr: 0x1A10, symBinAddr: 0x1000029D0, symSize: 0x20 }
  - { offsetInCU: 0x13E74, offset: 0x13E74, size: 0x8, addend: 0x0, symName: __ZNSt3__122__compressed_pair_elemINS_9allocatorI7WayTypeEELi1ELb1EE5__getB7v160006Ev, symObjAddr: 0x1A30, symBinAddr: 0x1000029F0, symSize: 0x10 }
  - { offsetInCU: 0x13E9A, offset: 0x13E9A, size: 0x8, addend: 0x0, symName: __ZNSt3__117__compressed_pairIP7WayTypeNS_9allocatorIS1_EEE5firstB7v160006Ev, symObjAddr: 0x1A40, symBinAddr: 0x100002A00, symSize: 0x20 }
  - { offsetInCU: 0x13EC0, offset: 0x13EC0, size: 0x8, addend: 0x0, symName: __ZNSt3__122__compressed_pair_elemIP7WayTypeLi0ELb0EE5__getB7v160006Ev, symObjAddr: 0x1A60, symBinAddr: 0x100002A20, symSize: 0x10 }
  - { offsetInCU: 0x13EE6, offset: 0x13EE6, size: 0x8, addend: 0x0, symName: __ZNKSt3__16vectorI7WayTypeNS_9allocatorIS1_EEE31__annotate_contiguous_containerB7v160006EPKvS6_S6_S6_, symObjAddr: 0x1A70, symBinAddr: 0x100002A30, symSize: 0x20 }
  - { offsetInCU: 0x13F38, offset: 0x13F38, size: 0x8, addend: 0x0, symName: __ZNKSt3__16vectorI7WayTypeNS_9allocatorIS1_EEE4dataB7v160006Ev, symObjAddr: 0x1A90, symBinAddr: 0x100002A50, symSize: 0x20 }
  - { offsetInCU: 0x13F5E, offset: 0x13F5E, size: 0x8, addend: 0x0, symName: __ZNKSt3__16vectorI7WayTypeNS_9allocatorIS1_EEE8capacityB7v160006Ev, symObjAddr: 0x1AB0, symBinAddr: 0x100002A70, symSize: 0x30 }
  - { offsetInCU: 0x13F84, offset: 0x13F84, size: 0x8, addend: 0x0, symName: __ZNKSt3__16vectorI7WayTypeNS_9allocatorIS1_EEE9__end_capB7v160006Ev, symObjAddr: 0x1AF0, symBinAddr: 0x100002AB0, symSize: 0x20 }
  - { offsetInCU: 0x13FAA, offset: 0x13FAA, size: 0x8, addend: 0x0, symName: __ZNKSt3__117__compressed_pairIP7WayTypeNS_9allocatorIS1_EEE5firstB7v160006Ev, symObjAddr: 0x1B10, symBinAddr: 0x100002AD0, symSize: 0x20 }
  - { offsetInCU: 0x13FD0, offset: 0x13FD0, size: 0x8, addend: 0x0, symName: __ZNKSt3__122__compressed_pair_elemIP7WayTypeLi0ELb0EE5__getB7v160006Ev, symObjAddr: 0x1B30, symBinAddr: 0x100002AF0, symSize: 0x10 }
  - { offsetInCU: 0x14012, offset: 0x14012, size: 0x8, addend: 0x0, symName: __ZNSt3__16vectorI7WayTypeNS_9allocatorIS1_EEE21_ConstructTransactionC1B7v160006ERS4_m, symObjAddr: 0x1B40, symBinAddr: 0x100002B00, symSize: 0x30 }
  - { offsetInCU: 0x14060, offset: 0x14060, size: 0x8, addend: 0x0, symName: __ZNSt3__116allocator_traitsINS_9allocatorI7WayTypeEEE9constructB7v160006IS2_JRKS2_EvvEEvRS3_PT_DpOT0_, symObjAddr: 0x1B70, symBinAddr: 0x100002B30, symSize: 0x30 }
  - { offsetInCU: 0x140B4, offset: 0x140B4, size: 0x8, addend: 0x0, symName: __ZNSt3__16vectorI7WayTypeNS_9allocatorIS1_EEE21_ConstructTransactionD1B7v160006Ev, symObjAddr: 0x1BA0, symBinAddr: 0x100002B60, symSize: 0x20 }
  - { offsetInCU: 0x140DE, offset: 0x140DE, size: 0x8, addend: 0x0, symName: __ZNSt3__16vectorI7WayTypeNS_9allocatorIS1_EEE21_ConstructTransactionC2B7v160006ERS4_m, symObjAddr: 0x1BC0, symBinAddr: 0x100002B80, symSize: 0x40 }
  - { offsetInCU: 0x14126, offset: 0x14126, size: 0x8, addend: 0x0, symName: __ZNSt3__16vectorI7WayTypeNS_9allocatorIS1_EEE21_ConstructTransactionD2B7v160006Ev, symObjAddr: 0x1C30, symBinAddr: 0x100002BF0, symSize: 0x20 }
  - { offsetInCU: 0x14150, offset: 0x14150, size: 0x8, addend: 0x0, symName: __ZNSt3__128__exception_guard_exceptionsINS_6vectorI7WayTypeNS_9allocatorIS2_EEE16__destroy_vectorEED2B7v160006Ev, symObjAddr: 0x1C50, symBinAddr: 0x100002C10, symSize: 0x40 }
  - { offsetInCU: 0x1417A, offset: 0x1417A, size: 0x8, addend: 0x0, symName: __ZNSt3__16vectorI7WayTypeNS_9allocatorIS1_EEE16__destroy_vectorclB7v160006Ev, symObjAddr: 0x1C90, symBinAddr: 0x100002C50, symSize: 0x90 }
  - { offsetInCU: 0x141A0, offset: 0x141A0, size: 0x8, addend: 0x0, symName: __ZNKSt3__16vectorI7WayTypeNS_9allocatorIS1_EEE17__annotate_deleteB7v160006Ev, symObjAddr: 0x1D20, symBinAddr: 0x100002CE0, symSize: 0xA0 }
  - { offsetInCU: 0x141C6, offset: 0x141C6, size: 0x8, addend: 0x0, symName: __ZNSt3__16vectorI7WayTypeNS_9allocatorIS1_EEE7__clearB7v160006Ev, symObjAddr: 0x1DD0, symBinAddr: 0x100002D90, symSize: 0x20 }
  - { offsetInCU: 0x141EC, offset: 0x141EC, size: 0x8, addend: 0x0, symName: __ZNSt3__116allocator_traitsINS_9allocatorI7WayTypeEEE10deallocateB7v160006ERS3_PS2_m, symObjAddr: 0x1DF0, symBinAddr: 0x100002DB0, symSize: 0x30 }
  - { offsetInCU: 0x1422E, offset: 0x1422E, size: 0x8, addend: 0x0, symName: __ZNKSt3__16vectorI7WayTypeNS_9allocatorIS1_EEE4sizeB7v160006Ev, symObjAddr: 0x1E20, symBinAddr: 0x100002DE0, symSize: 0x20 }
  - { offsetInCU: 0x14254, offset: 0x14254, size: 0x8, addend: 0x0, symName: __ZNSt3__16vectorI7WayTypeNS_9allocatorIS1_EEE22__base_destruct_at_endB7v160006EPS1_, symObjAddr: 0x1E40, symBinAddr: 0x100002E00, symSize: 0x80 }
  - { offsetInCU: 0x14298, offset: 0x14298, size: 0x8, addend: 0x0, symName: __ZNSt3__116allocator_traitsINS_9allocatorI7WayTypeEEE7destroyB7v160006IS2_vvEEvRS3_PT_, symObjAddr: 0x1EC0, symBinAddr: 0x100002E80, symSize: 0x20 }
  - { offsetInCU: 0x142D2, offset: 0x142D2, size: 0x8, addend: 0x0, symName: __ZNSt3__19allocatorI7WayTypeE10deallocateB7v160006EPS1_m, symObjAddr: 0x1F10, symBinAddr: 0x100002ED0, symSize: 0x40 }
  - { offsetInCU: 0x14314, offset: 0x14314, size: 0x8, addend: 0x0, symName: __ZNSt3__16vectorINS0_I7WayTypeNS_9allocatorIS1_EEEENS2_IS4_EEEC2EmRKS4_, symObjAddr: 0x2050, symBinAddr: 0x100003010, symSize: 0xE0 }
  - { offsetInCU: 0x14373, offset: 0x14373, size: 0x8, addend: 0x0, symName: __ZNSt3__117__compressed_pairIPNS_6vectorI7WayTypeNS_9allocatorIS2_EEEENS3_IS5_EEEC1B7v160006IDnNS_18__default_init_tagEEEOT_OT0_, symObjAddr: 0x2130, symBinAddr: 0x1000030F0, symSize: 0x30 }
  - { offsetInCU: 0x143CB, offset: 0x143CB, size: 0x8, addend: 0x0, symName: __ZNSt3__16vectorINS0_I7WayTypeNS_9allocatorIS1_EEEENS2_IS4_EEE16__destroy_vectorC1ERS6_, symObjAddr: 0x21A0, symBinAddr: 0x100003160, symSize: 0x30 }
  - { offsetInCU: 0x14404, offset: 0x14404, size: 0x8, addend: 0x0, symName: __ZNSt3__16vectorINS0_I7WayTypeNS_9allocatorIS1_EEEENS2_IS4_EEE11__vallocateB7v160006Em, symObjAddr: 0x21E0, symBinAddr: 0x1000031A0, symSize: 0xA0 }
  - { offsetInCU: 0x14448, offset: 0x14448, size: 0x8, addend: 0x0, symName: __ZNSt3__16vectorINS0_I7WayTypeNS_9allocatorIS1_EEEENS2_IS4_EEE18__construct_at_endEmRKS4_, symObjAddr: 0x2280, symBinAddr: 0x100003240, symSize: 0xC0 }
  - { offsetInCU: 0x144C9, offset: 0x144C9, size: 0x8, addend: 0x0, symName: __ZNSt3__128__exception_guard_exceptionsINS_6vectorINS1_I7WayTypeNS_9allocatorIS2_EEEENS3_IS5_EEE16__destroy_vectorEE10__completeB7v160006Ev, symObjAddr: 0x2340, symBinAddr: 0x100003300, symSize: 0x20 }
  - { offsetInCU: 0x144EF, offset: 0x144EF, size: 0x8, addend: 0x0, symName: __ZNSt3__128__exception_guard_exceptionsINS_6vectorINS1_I7WayTypeNS_9allocatorIS2_EEEENS3_IS5_EEE16__destroy_vectorEED1B7v160006Ev, symObjAddr: 0x2360, symBinAddr: 0x100003320, symSize: 0x20 }
  - { offsetInCU: 0x14519, offset: 0x14519, size: 0x8, addend: 0x0, symName: __ZNSt3__117__compressed_pairIPNS_6vectorI7WayTypeNS_9allocatorIS2_EEEENS3_IS5_EEEC2B7v160006IDnNS_18__default_init_tagEEEOT_OT0_, symObjAddr: 0x2380, symBinAddr: 0x100003340, symSize: 0x40 }
  - { offsetInCU: 0x14571, offset: 0x14571, size: 0x8, addend: 0x0, symName: __ZNSt3__122__compressed_pair_elemIPNS_6vectorI7WayTypeNS_9allocatorIS2_EEEELi0ELb0EEC2B7v160006IDnvEEOT_, symObjAddr: 0x23C0, symBinAddr: 0x100003380, symSize: 0x20 }
  - { offsetInCU: 0x145B3, offset: 0x145B3, size: 0x8, addend: 0x0, symName: __ZNSt3__122__compressed_pair_elemINS_9allocatorINS_6vectorI7WayTypeNS1_IS3_EEEEEELi1ELb1EEC2B7v160006ENS_18__default_init_tagE, symObjAddr: 0x23E0, symBinAddr: 0x1000033A0, symSize: 0x20 }
  - { offsetInCU: 0x145E7, offset: 0x145E7, size: 0x8, addend: 0x0, symName: __ZNSt3__19allocatorINS_6vectorI7WayTypeNS0_IS2_EEEEEC2B7v160006Ev, symObjAddr: 0x2400, symBinAddr: 0x1000033C0, symSize: 0x20 }
  - { offsetInCU: 0x14611, offset: 0x14611, size: 0x8, addend: 0x0, symName: __ZNSt3__116__non_trivial_ifILb1ENS_9allocatorINS_6vectorI7WayTypeNS1_IS3_EEEEEEEC2B7v160006Ev, symObjAddr: 0x2420, symBinAddr: 0x1000033E0, symSize: 0x10 }
  - { offsetInCU: 0x1463B, offset: 0x1463B, size: 0x8, addend: 0x0, symName: __ZNSt3__128__exception_guard_exceptionsINS_6vectorINS1_I7WayTypeNS_9allocatorIS2_EEEENS3_IS5_EEE16__destroy_vectorEEC1B7v160006ES8_, symObjAddr: 0x2430, symBinAddr: 0x1000033F0, symSize: 0x30 }
  - { offsetInCU: 0x14673, offset: 0x14673, size: 0x8, addend: 0x0, symName: __ZNSt3__128__exception_guard_exceptionsINS_6vectorINS1_I7WayTypeNS_9allocatorIS2_EEEENS3_IS5_EEE16__destroy_vectorEEC2B7v160006ES8_, symObjAddr: 0x2460, symBinAddr: 0x100003420, symSize: 0x20 }
  - { offsetInCU: 0x146AB, offset: 0x146AB, size: 0x8, addend: 0x0, symName: __ZNSt3__16vectorINS0_I7WayTypeNS_9allocatorIS1_EEEENS2_IS4_EEE16__destroy_vectorC2ERS6_, symObjAddr: 0x2480, symBinAddr: 0x100003440, symSize: 0x20 }
  - { offsetInCU: 0x146E4, offset: 0x146E4, size: 0x8, addend: 0x0, symName: __ZNKSt3__16vectorINS0_I7WayTypeNS_9allocatorIS1_EEEENS2_IS4_EEE8max_sizeEv, symObjAddr: 0x24A0, symBinAddr: 0x100003460, symSize: 0x60 }
  - { offsetInCU: 0x1470C, offset: 0x1470C, size: 0x8, addend: 0x0, symName: __ZNKSt3__16vectorINS0_I7WayTypeNS_9allocatorIS1_EEEENS2_IS4_EEE20__throw_length_errorB7v160006Ev, symObjAddr: 0x2500, symBinAddr: 0x1000034C0, symSize: 0x20 }
  - { offsetInCU: 0x14732, offset: 0x14732, size: 0x8, addend: 0x0, symName: __ZNSt3__16vectorINS0_I7WayTypeNS_9allocatorIS1_EEEENS2_IS4_EEE7__allocB7v160006Ev, symObjAddr: 0x2560, symBinAddr: 0x100003520, symSize: 0x20 }
  - { offsetInCU: 0x14758, offset: 0x14758, size: 0x8, addend: 0x0, symName: __ZNSt3__16vectorINS0_I7WayTypeNS_9allocatorIS1_EEEENS2_IS4_EEE9__end_capB7v160006Ev, symObjAddr: 0x2580, symBinAddr: 0x100003540, symSize: 0x20 }
  - { offsetInCU: 0x1477E, offset: 0x1477E, size: 0x8, addend: 0x0, symName: __ZNKSt3__16vectorINS0_I7WayTypeNS_9allocatorIS1_EEEENS2_IS4_EEE14__annotate_newB7v160006Em, symObjAddr: 0x25A0, symBinAddr: 0x100003560, symSize: 0xA0 }
  - { offsetInCU: 0x147BE, offset: 0x147BE, size: 0x8, addend: 0x0, symName: __ZNSt3__116allocator_traitsINS_9allocatorINS_6vectorI7WayTypeNS1_IS3_EEEEEEE8max_sizeB7v160006IS6_vvEEmRKS6_, symObjAddr: 0x2640, symBinAddr: 0x100003600, symSize: 0x30 }
  - { offsetInCU: 0x147E9, offset: 0x147E9, size: 0x8, addend: 0x0, symName: __ZNKSt3__16vectorINS0_I7WayTypeNS_9allocatorIS1_EEEENS2_IS4_EEE7__allocB7v160006Ev, symObjAddr: 0x2670, symBinAddr: 0x100003630, symSize: 0x20 }
  - { offsetInCU: 0x1480F, offset: 0x1480F, size: 0x8, addend: 0x0, symName: __ZNKSt3__117__compressed_pairIPNS_6vectorI7WayTypeNS_9allocatorIS2_EEEENS3_IS5_EEE6secondB7v160006Ev, symObjAddr: 0x2690, symBinAddr: 0x100003650, symSize: 0x20 }
  - { offsetInCU: 0x14835, offset: 0x14835, size: 0x8, addend: 0x0, symName: __ZNKSt3__122__compressed_pair_elemINS_9allocatorINS_6vectorI7WayTypeNS1_IS3_EEEEEELi1ELb1EE5__getB7v160006Ev, symObjAddr: 0x26B0, symBinAddr: 0x100003670, symSize: 0x10 }
  - { offsetInCU: 0x1485B, offset: 0x1485B, size: 0x8, addend: 0x0, symName: __ZNSt3__19allocatorINS_6vectorI7WayTypeNS0_IS2_EEEEE17allocate_at_leastB7v160006Em, symObjAddr: 0x2700, symBinAddr: 0x1000036C0, symSize: 0x40 }
  - { offsetInCU: 0x1488F, offset: 0x1488F, size: 0x8, addend: 0x0, symName: __ZNSt3__19allocatorINS_6vectorI7WayTypeNS0_IS2_EEEEE8allocateB7v160006Em, symObjAddr: 0x2740, symBinAddr: 0x100003700, symSize: 0x50 }
  - { offsetInCU: 0x148C3, offset: 0x148C3, size: 0x8, addend: 0x0, symName: __ZNSt3__117__compressed_pairIPNS_6vectorI7WayTypeNS_9allocatorIS2_EEEENS3_IS5_EEE6secondB7v160006Ev, symObjAddr: 0x2790, symBinAddr: 0x100003750, symSize: 0x20 }
  - { offsetInCU: 0x148E9, offset: 0x148E9, size: 0x8, addend: 0x0, symName: __ZNSt3__122__compressed_pair_elemINS_9allocatorINS_6vectorI7WayTypeNS1_IS3_EEEEEELi1ELb1EE5__getB7v160006Ev, symObjAddr: 0x27B0, symBinAddr: 0x100003770, symSize: 0x10 }
  - { offsetInCU: 0x1490F, offset: 0x1490F, size: 0x8, addend: 0x0, symName: __ZNSt3__117__compressed_pairIPNS_6vectorI7WayTypeNS_9allocatorIS2_EEEENS3_IS5_EEE5firstB7v160006Ev, symObjAddr: 0x27C0, symBinAddr: 0x100003780, symSize: 0x20 }
  - { offsetInCU: 0x14935, offset: 0x14935, size: 0x8, addend: 0x0, symName: __ZNSt3__122__compressed_pair_elemIPNS_6vectorI7WayTypeNS_9allocatorIS2_EEEELi0ELb0EE5__getB7v160006Ev, symObjAddr: 0x27E0, symBinAddr: 0x1000037A0, symSize: 0x10 }
  - { offsetInCU: 0x1495B, offset: 0x1495B, size: 0x8, addend: 0x0, symName: __ZNKSt3__16vectorINS0_I7WayTypeNS_9allocatorIS1_EEEENS2_IS4_EEE31__annotate_contiguous_containerB7v160006EPKvS8_S8_S8_, symObjAddr: 0x27F0, symBinAddr: 0x1000037B0, symSize: 0x20 }
  - { offsetInCU: 0x149AD, offset: 0x149AD, size: 0x8, addend: 0x0, symName: __ZNKSt3__16vectorINS0_I7WayTypeNS_9allocatorIS1_EEEENS2_IS4_EEE4dataB7v160006Ev, symObjAddr: 0x2810, symBinAddr: 0x1000037D0, symSize: 0x20 }
  - { offsetInCU: 0x149D3, offset: 0x149D3, size: 0x8, addend: 0x0, symName: __ZNKSt3__16vectorINS0_I7WayTypeNS_9allocatorIS1_EEEENS2_IS4_EEE8capacityB7v160006Ev, symObjAddr: 0x2830, symBinAddr: 0x1000037F0, symSize: 0x40 }
  - { offsetInCU: 0x149F9, offset: 0x149F9, size: 0x8, addend: 0x0, symName: __ZNKSt3__16vectorINS0_I7WayTypeNS_9allocatorIS1_EEEENS2_IS4_EEE9__end_capB7v160006Ev, symObjAddr: 0x2880, symBinAddr: 0x100003840, symSize: 0x20 }
  - { offsetInCU: 0x14A1F, offset: 0x14A1F, size: 0x8, addend: 0x0, symName: __ZNKSt3__117__compressed_pairIPNS_6vectorI7WayTypeNS_9allocatorIS2_EEEENS3_IS5_EEE5firstB7v160006Ev, symObjAddr: 0x28A0, symBinAddr: 0x100003860, symSize: 0x20 }
  - { offsetInCU: 0x14A45, offset: 0x14A45, size: 0x8, addend: 0x0, symName: __ZNKSt3__122__compressed_pair_elemIPNS_6vectorI7WayTypeNS_9allocatorIS2_EEEELi0ELb0EE5__getB7v160006Ev, symObjAddr: 0x28C0, symBinAddr: 0x100003880, symSize: 0x10 }
  - { offsetInCU: 0x14A87, offset: 0x14A87, size: 0x8, addend: 0x0, symName: __ZNSt3__16vectorINS0_I7WayTypeNS_9allocatorIS1_EEEENS2_IS4_EEE21_ConstructTransactionC1B7v160006ERS6_m, symObjAddr: 0x28D0, symBinAddr: 0x100003890, symSize: 0x30 }
  - { offsetInCU: 0x14ACF, offset: 0x14ACF, size: 0x8, addend: 0x0, symName: __ZNSt3__116allocator_traitsINS_9allocatorINS_6vectorI7WayTypeNS1_IS3_EEEEEEE9constructB7v160006IS5_JRKS5_EvvEEvRS6_PT_DpOT0_, symObjAddr: 0x2900, symBinAddr: 0x1000038C0, symSize: 0x30 }
  - { offsetInCU: 0x14B23, offset: 0x14B23, size: 0x8, addend: 0x0, symName: __ZNSt3__16vectorINS0_I7WayTypeNS_9allocatorIS1_EEEENS2_IS4_EEE21_ConstructTransactionD1B7v160006Ev, symObjAddr: 0x2930, symBinAddr: 0x1000038F0, symSize: 0x20 }
  - { offsetInCU: 0x14B4D, offset: 0x14B4D, size: 0x8, addend: 0x0, symName: __ZNSt3__16vectorINS0_I7WayTypeNS_9allocatorIS1_EEEENS2_IS4_EEE21_ConstructTransactionC2B7v160006ERS6_m, symObjAddr: 0x2950, symBinAddr: 0x100003910, symSize: 0x40 }
  - { offsetInCU: 0x14B95, offset: 0x14B95, size: 0x8, addend: 0x0, symName: __ZNSt3__16vectorI7WayTypeNS_9allocatorIS1_EEEC1ERKS4_, symObjAddr: 0x29D0, symBinAddr: 0x100003990, symSize: 0x30 }
  - { offsetInCU: 0x14BD0, offset: 0x14BD0, size: 0x8, addend: 0x0, symName: __ZNSt3__16vectorI7WayTypeNS_9allocatorIS1_EEEC2ERKS4_, symObjAddr: 0x2A00, symBinAddr: 0x1000039C0, symSize: 0x110 }
  - { offsetInCU: 0x14C30, offset: 0x14C30, size: 0x8, addend: 0x0, symName: __ZNSt3__116allocator_traitsINS_9allocatorI7WayTypeEEE37select_on_container_copy_constructionB7v160006IS3_vvEES3_RKS3_, symObjAddr: 0x2B10, symBinAddr: 0x100003AD0, symSize: 0x10 }
  - { offsetInCU: 0x14C65, offset: 0x14C65, size: 0x8, addend: 0x0, symName: __ZNSt3__117__compressed_pairIP7WayTypeNS_9allocatorIS1_EEEC1B7v160006IDnS4_EEOT_OT0_, symObjAddr: 0x2B20, symBinAddr: 0x100003AE0, symSize: 0x30 }
  - { offsetInCU: 0x14CBD, offset: 0x14CBD, size: 0x8, addend: 0x0, symName: __ZNSt3__16vectorI7WayTypeNS_9allocatorIS1_EEE18__construct_at_endIPS1_Li0EEEvT_S7_m, symObjAddr: 0x2B50, symBinAddr: 0x100003B10, symSize: 0x90 }
  - { offsetInCU: 0x14D30, offset: 0x14D30, size: 0x8, addend: 0x0, symName: __ZNSt3__117__compressed_pairIP7WayTypeNS_9allocatorIS1_EEEC2B7v160006IDnS4_EEOT_OT0_, symObjAddr: 0x2BE0, symBinAddr: 0x100003BA0, symSize: 0x40 }
  - { offsetInCU: 0x14D88, offset: 0x14D88, size: 0x8, addend: 0x0, symName: __ZNSt3__122__compressed_pair_elemINS_9allocatorI7WayTypeEELi1ELb1EEC2B7v160006IS3_vEEOT_, symObjAddr: 0x2C20, symBinAddr: 0x100003BE0, symSize: 0x10 }
  - { offsetInCU: 0x14DCA, offset: 0x14DCA, size: 0x8, addend: 0x0, symName: __ZNSt3__129_AllocatorDestroyRangeReverseINS_9allocatorI7WayTypeEEPS2_EC1B7v160006ERS3_RS4_S7_, symObjAddr: 0x2D90, symBinAddr: 0x100003D50, symSize: 0x40 }
  - { offsetInCU: 0x14E21, offset: 0x14E21, size: 0x8, addend: 0x0, symName: __ZNSt3__116allocator_traitsINS_9allocatorI7WayTypeEEE9constructB7v160006IS2_JRS2_EvvEEvRS3_PT_DpOT0_, symObjAddr: 0x2DD0, symBinAddr: 0x100003D90, symSize: 0x30 }
  - { offsetInCU: 0x14E75, offset: 0x14E75, size: 0x8, addend: 0x0, symName: __ZNSt3__128__exception_guard_exceptionsINS_29_AllocatorDestroyRangeReverseINS_9allocatorI7WayTypeEEPS3_EEE10__completeB7v160006Ev, symObjAddr: 0x2E00, symBinAddr: 0x100003DC0, symSize: 0x20 }
  - { offsetInCU: 0x14E9B, offset: 0x14E9B, size: 0x8, addend: 0x0, symName: __ZNSt3__128__exception_guard_exceptionsINS_29_AllocatorDestroyRangeReverseINS_9allocatorI7WayTypeEEPS3_EEED1B7v160006Ev, symObjAddr: 0x2E20, symBinAddr: 0x100003DE0, symSize: 0x20 }
  - { offsetInCU: 0x14EC5, offset: 0x14EC5, size: 0x8, addend: 0x0, symName: __ZNSt3__128__exception_guard_exceptionsINS_29_AllocatorDestroyRangeReverseINS_9allocatorI7WayTypeEEPS3_EEEC1B7v160006ES6_, symObjAddr: 0x2E40, symBinAddr: 0x100003E00, symSize: 0x40 }
  - { offsetInCU: 0x14EFD, offset: 0x14EFD, size: 0x8, addend: 0x0, symName: __ZNSt3__128__exception_guard_exceptionsINS_29_AllocatorDestroyRangeReverseINS_9allocatorI7WayTypeEEPS3_EEEC2B7v160006ES6_, symObjAddr: 0x2E80, symBinAddr: 0x100003E40, symSize: 0x30 }
  - { offsetInCU: 0x14F35, offset: 0x14F35, size: 0x8, addend: 0x0, symName: __ZNSt3__129_AllocatorDestroyRangeReverseINS_9allocatorI7WayTypeEEPS2_EC2B7v160006ERS3_RS4_S7_, symObjAddr: 0x2EB0, symBinAddr: 0x100003E70, symSize: 0x40 }
  - { offsetInCU: 0x14F8C, offset: 0x14F8C, size: 0x8, addend: 0x0, symName: __ZNSt3__128__exception_guard_exceptionsINS_29_AllocatorDestroyRangeReverseINS_9allocatorI7WayTypeEEPS3_EEED2B7v160006Ev, symObjAddr: 0x2F20, symBinAddr: 0x100003EE0, symSize: 0x40 }
  - { offsetInCU: 0x14FB6, offset: 0x14FB6, size: 0x8, addend: 0x0, symName: __ZNKSt3__129_AllocatorDestroyRangeReverseINS_9allocatorI7WayTypeEEPS2_EclB7v160006Ev, symObjAddr: 0x2F60, symBinAddr: 0x100003F20, symSize: 0x60 }
  - { offsetInCU: 0x14FDC, offset: 0x14FDC, size: 0x8, addend: 0x0, symName: __ZNSt3__116reverse_iteratorIP7WayTypeEC1B7v160006ES2_, symObjAddr: 0x3030, symBinAddr: 0x100003FF0, symSize: 0x30 }
  - { offsetInCU: 0x15014, offset: 0x15014, size: 0x8, addend: 0x0, symName: __ZNSt3__116reverse_iteratorIP7WayTypeEppB7v160006Ev, symObjAddr: 0x30C0, symBinAddr: 0x100004080, symSize: 0x20 }
  - { offsetInCU: 0x1503A, offset: 0x1503A, size: 0x8, addend: 0x0, symName: __ZNKSt3__116reverse_iteratorIP7WayTypeE4baseB7v160006Ev, symObjAddr: 0x30E0, symBinAddr: 0x1000040A0, symSize: 0x20 }
  - { offsetInCU: 0x15066, offset: 0x15066, size: 0x8, addend: 0x0, symName: __ZNSt3__119__to_address_helperINS_16reverse_iteratorIP7WayTypeEEvE6__callB7v160006ERKS4_, symObjAddr: 0x3100, symBinAddr: 0x1000040C0, symSize: 0x40 }
  - { offsetInCU: 0x15089, offset: 0x15089, size: 0x8, addend: 0x0, symName: __ZNKSt3__116reverse_iteratorIP7WayTypeEptB7v160006Ev, symObjAddr: 0x3140, symBinAddr: 0x100004100, symSize: 0x30 }
  - { offsetInCU: 0x150AF, offset: 0x150AF, size: 0x8, addend: 0x0, symName: __ZNSt3__116reverse_iteratorIP7WayTypeEC2B7v160006ES2_, symObjAddr: 0x3240, symBinAddr: 0x100004200, symSize: 0x30 }
  - { offsetInCU: 0x150E7, offset: 0x150E7, size: 0x8, addend: 0x0, symName: __ZNSt3__16vectorINS0_I7WayTypeNS_9allocatorIS1_EEEENS2_IS4_EEE21_ConstructTransactionD2B7v160006Ev, symObjAddr: 0x3270, symBinAddr: 0x100004230, symSize: 0x20 }
  - { offsetInCU: 0x15111, offset: 0x15111, size: 0x8, addend: 0x0, symName: __ZNSt3__128__exception_guard_exceptionsINS_6vectorINS1_I7WayTypeNS_9allocatorIS2_EEEENS3_IS5_EEE16__destroy_vectorEED2B7v160006Ev, symObjAddr: 0x3290, symBinAddr: 0x100004250, symSize: 0x40 }
  - { offsetInCU: 0x1513B, offset: 0x1513B, size: 0x8, addend: 0x0, symName: __ZNSt3__16vectorINS0_I7WayTypeNS_9allocatorIS1_EEEENS2_IS4_EEE16__destroy_vectorclB7v160006Ev, symObjAddr: 0x32D0, symBinAddr: 0x100004290, symSize: 0x90 }
  - { offsetInCU: 0x15161, offset: 0x15161, size: 0x8, addend: 0x0, symName: __ZNKSt3__16vectorINS0_I7WayTypeNS_9allocatorIS1_EEEENS2_IS4_EEE17__annotate_deleteB7v160006Ev, symObjAddr: 0x3360, symBinAddr: 0x100004320, symSize: 0xB0 }
  - { offsetInCU: 0x15187, offset: 0x15187, size: 0x8, addend: 0x0, symName: __ZNSt3__16vectorINS0_I7WayTypeNS_9allocatorIS1_EEEENS2_IS4_EEE7__clearB7v160006Ev, symObjAddr: 0x3420, symBinAddr: 0x1000043E0, symSize: 0x20 }
  - { offsetInCU: 0x151AD, offset: 0x151AD, size: 0x8, addend: 0x0, symName: __ZNSt3__116allocator_traitsINS_9allocatorINS_6vectorI7WayTypeNS1_IS3_EEEEEEE10deallocateB7v160006ERS6_PS5_m, symObjAddr: 0x3440, symBinAddr: 0x100004400, symSize: 0x30 }
  - { offsetInCU: 0x151EF, offset: 0x151EF, size: 0x8, addend: 0x0, symName: __ZNSt3__16vectorINS0_I7WayTypeNS_9allocatorIS1_EEEENS2_IS4_EEE22__base_destruct_at_endB7v160006EPS4_, symObjAddr: 0x3470, symBinAddr: 0x100004430, symSize: 0x80 }
  - { offsetInCU: 0x15233, offset: 0x15233, size: 0x8, addend: 0x0, symName: __ZNSt3__116allocator_traitsINS_9allocatorINS_6vectorI7WayTypeNS1_IS3_EEEEEEE7destroyB7v160006IS5_vvEEvRS6_PT_, symObjAddr: 0x34F0, symBinAddr: 0x1000044B0, symSize: 0x20 }
  - { offsetInCU: 0x1526D, offset: 0x1526D, size: 0x8, addend: 0x0, symName: __ZNSt3__19allocatorINS_6vectorI7WayTypeNS0_IS2_EEEEE10deallocateB7v160006EPS4_m, symObjAddr: 0x3550, symBinAddr: 0x100004510, symSize: 0x50 }
  - { offsetInCU: 0x152AF, offset: 0x152AF, size: 0x8, addend: 0x0, symName: __ZNSt3__16vectorI7WayTypeNS_9allocatorIS1_EEED2B7v160006Ev, symObjAddr: 0x35A0, symBinAddr: 0x100004560, symSize: 0x40 }
  - { offsetInCU: 0x152D9, offset: 0x152D9, size: 0x8, addend: 0x0, symName: __ZNSt3__112basic_stringIcNS_11char_traitsIcEENS_9allocatorIcEEEC2B7v160006Ev, symObjAddr: 0x35E0, symBinAddr: 0x1000045A0, symSize: 0x50 }
  - { offsetInCU: 0x15303, offset: 0x15303, size: 0x8, addend: 0x0, symName: __ZNSt3__117__compressed_pairINS_12basic_stringIcNS_11char_traitsIcEENS_9allocatorIcEEE5__repES5_EC1B7v160006INS_18__default_init_tagESA_EEOT_OT0_, symObjAddr: 0x3630, symBinAddr: 0x1000045F0, symSize: 0x30 }
  - { offsetInCU: 0x1535B, offset: 0x1535B, size: 0x8, addend: 0x0, symName: __ZNSt3__112basic_stringIcNS_11char_traitsIcEENS_9allocatorIcEEE14__default_initB7v160006Ev, symObjAddr: 0x3670, symBinAddr: 0x100004630, symSize: 0x50 }
  - { offsetInCU: 0x15381, offset: 0x15381, size: 0x8, addend: 0x0, symName: __ZNSt3__117__compressed_pairINS_12basic_stringIcNS_11char_traitsIcEENS_9allocatorIcEEE5__repES5_EC2B7v160006INS_18__default_init_tagESA_EEOT_OT0_, symObjAddr: 0x36C0, symBinAddr: 0x100004680, symSize: 0x30 }
  - { offsetInCU: 0x153D9, offset: 0x153D9, size: 0x8, addend: 0x0, symName: __ZNSt3__122__compressed_pair_elemINS_12basic_stringIcNS_11char_traitsIcEENS_9allocatorIcEEE5__repELi0ELb0EEC2B7v160006ENS_18__default_init_tagE, symObjAddr: 0x36F0, symBinAddr: 0x1000046B0, symSize: 0x10 }
  - { offsetInCU: 0x1540D, offset: 0x1540D, size: 0x8, addend: 0x0, symName: __ZNSt3__122__compressed_pair_elemINS_9allocatorIcEELi1ELb1EEC2B7v160006ENS_18__default_init_tagE, symObjAddr: 0x3700, symBinAddr: 0x1000046C0, symSize: 0x20 }
  - { offsetInCU: 0x15441, offset: 0x15441, size: 0x8, addend: 0x0, symName: __ZNSt3__19allocatorIcEC2B7v160006Ev, symObjAddr: 0x3720, symBinAddr: 0x1000046E0, symSize: 0x20 }
  - { offsetInCU: 0x1546B, offset: 0x1546B, size: 0x8, addend: 0x0, symName: __ZNSt3__116__non_trivial_ifILb1ENS_9allocatorIcEEEC2B7v160006Ev, symObjAddr: 0x3740, symBinAddr: 0x100004700, symSize: 0x10 }
  - { offsetInCU: 0x15495, offset: 0x15495, size: 0x8, addend: 0x0, symName: __ZNSt3__117__compressed_pairINS_12basic_stringIcNS_11char_traitsIcEENS_9allocatorIcEEE5__repES5_E5firstB7v160006Ev, symObjAddr: 0x3750, symBinAddr: 0x100004710, symSize: 0x20 }
  - { offsetInCU: 0x154BB, offset: 0x154BB, size: 0x8, addend: 0x0, symName: __ZNSt3__122__compressed_pair_elemINS_12basic_stringIcNS_11char_traitsIcEENS_9allocatorIcEEE5__repELi0ELb0EE5__getB7v160006Ev, symObjAddr: 0x3770, symBinAddr: 0x100004730, symSize: 0x10 }
  - { offsetInCU: 0x154E1, offset: 0x154E1, size: 0x8, addend: 0x0, symName: __ZNKSt3__16vectorINS0_I7WayTypeNS_9allocatorIS1_EEEENS2_IS4_EEE20__throw_out_of_rangeB7v160006Ev, symObjAddr: 0x3780, symBinAddr: 0x100004740, symSize: 0x20 }
  - { offsetInCU: 0x15507, offset: 0x15507, size: 0x8, addend: 0x0, symName: __ZNSt12out_of_rangeC1B7v160006EPKc, symObjAddr: 0x3810, symBinAddr: 0x1000047D0, symSize: 0x30 }
  - { offsetInCU: 0x1553F, offset: 0x1553F, size: 0x8, addend: 0x0, symName: __ZNSt12out_of_rangeC2B7v160006EPKc, symObjAddr: 0x3840, symBinAddr: 0x100004800, symSize: 0x40 }
  - { offsetInCU: 0x15577, offset: 0x15577, size: 0x8, addend: 0x0, symName: __ZNKSt3__16vectorI7WayTypeNS_9allocatorIS1_EEE20__throw_out_of_rangeB7v160006Ev, symObjAddr: 0x3880, symBinAddr: 0x100004840, symSize: 0x20 }
  - { offsetInCU: 0x1559D, offset: 0x1559D, size: 0x8, addend: 0x0, symName: __ZNSt3__16vectorINS0_I7WayTypeNS_9allocatorIS1_EEEENS2_IS4_EEED2B7v160006Ev, symObjAddr: 0x38A0, symBinAddr: 0x100004860, symSize: 0x40 }
  - { offsetInCU: 0x155C7, offset: 0x155C7, size: 0x8, addend: 0x0, symName: __ZNSt3__16vectorImNS_9allocatorImEEEC2B7v160006Ev, symObjAddr: 0x38E0, symBinAddr: 0x1000048A0, symSize: 0x60 }
  - { offsetInCU: 0x155F1, offset: 0x155F1, size: 0x8, addend: 0x0, symName: __ZNSt3__117__compressed_pairIPmNS_9allocatorImEEEC1B7v160006IDnNS_18__default_init_tagEEEOT_OT0_, symObjAddr: 0x3940, symBinAddr: 0x100004900, symSize: 0x30 }
  - { offsetInCU: 0x15649, offset: 0x15649, size: 0x8, addend: 0x0, symName: __ZNSt3__117__compressed_pairIPmNS_9allocatorImEEEC2B7v160006IDnNS_18__default_init_tagEEEOT_OT0_, symObjAddr: 0x3980, symBinAddr: 0x100004940, symSize: 0x40 }
  - { offsetInCU: 0x156A1, offset: 0x156A1, size: 0x8, addend: 0x0, symName: __ZNSt3__122__compressed_pair_elemIPmLi0ELb0EEC2B7v160006IDnvEEOT_, symObjAddr: 0x39C0, symBinAddr: 0x100004980, symSize: 0x20 }
  - { offsetInCU: 0x156E3, offset: 0x156E3, size: 0x8, addend: 0x0, symName: __ZNSt3__122__compressed_pair_elemINS_9allocatorImEELi1ELb1EEC2B7v160006ENS_18__default_init_tagE, symObjAddr: 0x39E0, symBinAddr: 0x1000049A0, symSize: 0x20 }
  - { offsetInCU: 0x15717, offset: 0x15717, size: 0x8, addend: 0x0, symName: __ZNSt3__19allocatorImEC2B7v160006Ev, symObjAddr: 0x3A00, symBinAddr: 0x1000049C0, symSize: 0x20 }
  - { offsetInCU: 0x15741, offset: 0x15741, size: 0x8, addend: 0x0, symName: __ZNSt3__116__non_trivial_ifILb1ENS_9allocatorImEEEC2B7v160006Ev, symObjAddr: 0x3A20, symBinAddr: 0x1000049E0, symSize: 0x10 }
  - { offsetInCU: 0x1576B, offset: 0x1576B, size: 0x8, addend: 0x0, symName: __ZNSt3__16vectorImNS_9allocatorImEEE9__end_capB7v160006Ev, symObjAddr: 0x3A30, symBinAddr: 0x1000049F0, symSize: 0x20 }
  - { offsetInCU: 0x15791, offset: 0x15791, size: 0x8, addend: 0x0, symName: __ZNSt3__16vectorImNS_9allocatorImEEE22__construct_one_at_endB7v160006IJRKmEEEvDpOT_, symObjAddr: 0x3A50, symBinAddr: 0x100004A10, symSize: 0x90 }
  - { offsetInCU: 0x157E0, offset: 0x157E0, size: 0x8, addend: 0x0, symName: __ZNSt3__16vectorImNS_9allocatorImEEE21__push_back_slow_pathIRKmEEvOT_, symObjAddr: 0x3AE0, symBinAddr: 0x100004AA0, symSize: 0xD0 }
  - { offsetInCU: 0x1583E, offset: 0x1583E, size: 0x8, addend: 0x0, symName: __ZNSt3__117__compressed_pairIPmNS_9allocatorImEEE5firstB7v160006Ev, symObjAddr: 0x3BB0, symBinAddr: 0x100004B70, symSize: 0x20 }
  - { offsetInCU: 0x15864, offset: 0x15864, size: 0x8, addend: 0x0, symName: __ZNSt3__122__compressed_pair_elemIPmLi0ELb0EE5__getB7v160006Ev, symObjAddr: 0x3BD0, symBinAddr: 0x100004B90, symSize: 0x10 }
  - { offsetInCU: 0x158A6, offset: 0x158A6, size: 0x8, addend: 0x0, symName: __ZNSt3__16vectorImNS_9allocatorImEEE21_ConstructTransactionC1B7v160006ERS3_m, symObjAddr: 0x3BE0, symBinAddr: 0x100004BA0, symSize: 0x30 }
  - { offsetInCU: 0x158EE, offset: 0x158EE, size: 0x8, addend: 0x0, symName: __ZNSt3__116allocator_traitsINS_9allocatorImEEE9constructB7v160006ImJRKmEvvEEvRS2_PT_DpOT0_, symObjAddr: 0x3C10, symBinAddr: 0x100004BD0, symSize: 0x30 }
  - { offsetInCU: 0x15942, offset: 0x15942, size: 0x8, addend: 0x0, symName: __ZNSt3__16vectorImNS_9allocatorImEEE7__allocB7v160006Ev, symObjAddr: 0x3C40, symBinAddr: 0x100004C00, symSize: 0x20 }
  - { offsetInCU: 0x15968, offset: 0x15968, size: 0x8, addend: 0x0, symName: __ZNSt3__16vectorImNS_9allocatorImEEE21_ConstructTransactionD1B7v160006Ev, symObjAddr: 0x3C70, symBinAddr: 0x100004C30, symSize: 0x20 }
  - { offsetInCU: 0x15992, offset: 0x15992, size: 0x8, addend: 0x0, symName: __ZNSt3__16vectorImNS_9allocatorImEEE21_ConstructTransactionC2B7v160006ERS3_m, symObjAddr: 0x3C90, symBinAddr: 0x100004C50, symSize: 0x40 }
  - { offsetInCU: 0x159DA, offset: 0x159DA, size: 0x8, addend: 0x0, symName: __ZNSt3__117__compressed_pairIPmNS_9allocatorImEEE6secondB7v160006Ev, symObjAddr: 0x3D00, symBinAddr: 0x100004CC0, symSize: 0x20 }
  - { offsetInCU: 0x15A00, offset: 0x15A00, size: 0x8, addend: 0x0, symName: __ZNSt3__122__compressed_pair_elemINS_9allocatorImEELi1ELb1EE5__getB7v160006Ev, symObjAddr: 0x3D20, symBinAddr: 0x100004CE0, symSize: 0x10 }
  - { offsetInCU: 0x15A26, offset: 0x15A26, size: 0x8, addend: 0x0, symName: __ZNSt3__16vectorImNS_9allocatorImEEE21_ConstructTransactionD2B7v160006Ev, symObjAddr: 0x3D30, symBinAddr: 0x100004CF0, symSize: 0x20 }
  - { offsetInCU: 0x15A50, offset: 0x15A50, size: 0x8, addend: 0x0, symName: __ZNKSt3__16vectorImNS_9allocatorImEEE11__recommendB7v160006Em, symObjAddr: 0x3D50, symBinAddr: 0x100004D10, symSize: 0xA0 }
  - { offsetInCU: 0x15AA5, offset: 0x15AA5, size: 0x8, addend: 0x0, symName: __ZNKSt3__16vectorImNS_9allocatorImEEE4sizeB7v160006Ev, symObjAddr: 0x3DF0, symBinAddr: 0x100004DB0, symSize: 0x20 }
  - { offsetInCU: 0x15ACB, offset: 0x15ACB, size: 0x8, addend: 0x0, symName: __ZNSt3__114__split_bufferImRNS_9allocatorImEEEC1EmmS3_, symObjAddr: 0x3E10, symBinAddr: 0x100004DD0, symSize: 0x40 }
  - { offsetInCU: 0x15B21, offset: 0x15B21, size: 0x8, addend: 0x0, symName: __ZNSt3__114__split_bufferImRNS_9allocatorImEEED1Ev, symObjAddr: 0x3F80, symBinAddr: 0x100004F40, symSize: 0x20 }
  - { offsetInCU: 0x15B4D, offset: 0x15B4D, size: 0x8, addend: 0x0, symName: __ZNKSt3__16vectorImNS_9allocatorImEEE8max_sizeEv, symObjAddr: 0x3FA0, symBinAddr: 0x100004F60, symSize: 0x60 }
  - { offsetInCU: 0x15B75, offset: 0x15B75, size: 0x8, addend: 0x0, symName: __ZNKSt3__16vectorImNS_9allocatorImEEE20__throw_length_errorB7v160006Ev, symObjAddr: 0x4000, symBinAddr: 0x100004FC0, symSize: 0x20 }
  - { offsetInCU: 0x15B9B, offset: 0x15B9B, size: 0x8, addend: 0x0, symName: __ZNKSt3__16vectorImNS_9allocatorImEEE8capacityB7v160006Ev, symObjAddr: 0x4020, symBinAddr: 0x100004FE0, symSize: 0x30 }
  - { offsetInCU: 0x15BCC, offset: 0x15BCC, size: 0x8, addend: 0x0, symName: __ZNSt3__116allocator_traitsINS_9allocatorImEEE8max_sizeB7v160006IS2_vvEEmRKS2_, symObjAddr: 0x4080, symBinAddr: 0x100005040, symSize: 0x20 }
  - { offsetInCU: 0x15BF7, offset: 0x15BF7, size: 0x8, addend: 0x0, symName: __ZNKSt3__16vectorImNS_9allocatorImEEE7__allocB7v160006Ev, symObjAddr: 0x40A0, symBinAddr: 0x100005060, symSize: 0x20 }
  - { offsetInCU: 0x15C1D, offset: 0x15C1D, size: 0x8, addend: 0x0, symName: __ZNKSt3__117__compressed_pairIPmNS_9allocatorImEEE6secondB7v160006Ev, symObjAddr: 0x40C0, symBinAddr: 0x100005080, symSize: 0x20 }
  - { offsetInCU: 0x15C43, offset: 0x15C43, size: 0x8, addend: 0x0, symName: __ZNKSt3__122__compressed_pair_elemINS_9allocatorImEELi1ELb1EE5__getB7v160006Ev, symObjAddr: 0x40E0, symBinAddr: 0x1000050A0, symSize: 0x10 }
  - { offsetInCU: 0x15C69, offset: 0x15C69, size: 0x8, addend: 0x0, symName: __ZNKSt3__16vectorImNS_9allocatorImEEE9__end_capB7v160006Ev, symObjAddr: 0x40F0, symBinAddr: 0x1000050B0, symSize: 0x20 }
  - { offsetInCU: 0x15C8F, offset: 0x15C8F, size: 0x8, addend: 0x0, symName: __ZNKSt3__117__compressed_pairIPmNS_9allocatorImEEE5firstB7v160006Ev, symObjAddr: 0x4110, symBinAddr: 0x1000050D0, symSize: 0x20 }
  - { offsetInCU: 0x15CB5, offset: 0x15CB5, size: 0x8, addend: 0x0, symName: __ZNKSt3__122__compressed_pair_elemIPmLi0ELb0EE5__getB7v160006Ev, symObjAddr: 0x4130, symBinAddr: 0x1000050F0, symSize: 0x10 }
  - { offsetInCU: 0x15CDB, offset: 0x15CDB, size: 0x8, addend: 0x0, symName: __ZNSt3__114__split_bufferImRNS_9allocatorImEEEC2EmmS3_, symObjAddr: 0x4190, symBinAddr: 0x100005150, symSize: 0xD0 }
  - { offsetInCU: 0x15D4E, offset: 0x15D4E, size: 0x8, addend: 0x0, symName: __ZNSt3__117__compressed_pairIPmRNS_9allocatorImEEEC1B7v160006IDnS4_EEOT_OT0_, symObjAddr: 0x4260, symBinAddr: 0x100005220, symSize: 0x30 }
  - { offsetInCU: 0x15DA6, offset: 0x15DA6, size: 0x8, addend: 0x0, symName: __ZNSt3__114__split_bufferImRNS_9allocatorImEEE7__allocB7v160006Ev, symObjAddr: 0x42D0, symBinAddr: 0x100005290, symSize: 0x20 }
  - { offsetInCU: 0x15DCC, offset: 0x15DCC, size: 0x8, addend: 0x0, symName: __ZNSt3__114__split_bufferImRNS_9allocatorImEEE9__end_capB7v160006Ev, symObjAddr: 0x42F0, symBinAddr: 0x1000052B0, symSize: 0x20 }
  - { offsetInCU: 0x15DF2, offset: 0x15DF2, size: 0x8, addend: 0x0, symName: __ZNSt3__117__compressed_pairIPmRNS_9allocatorImEEEC2B7v160006IDnS4_EEOT_OT0_, symObjAddr: 0x4310, symBinAddr: 0x1000052D0, symSize: 0x40 }
  - { offsetInCU: 0x15E4A, offset: 0x15E4A, size: 0x8, addend: 0x0, symName: __ZNSt3__122__compressed_pair_elemIRNS_9allocatorImEELi1ELb0EEC2B7v160006IS3_vEEOT_, symObjAddr: 0x4350, symBinAddr: 0x100005310, symSize: 0x20 }
  - { offsetInCU: 0x15E8C, offset: 0x15E8C, size: 0x8, addend: 0x0, symName: __ZNSt3__19allocatorImE17allocate_at_leastB7v160006Em, symObjAddr: 0x43B0, symBinAddr: 0x100005370, symSize: 0x40 }
  - { offsetInCU: 0x15EC0, offset: 0x15EC0, size: 0x8, addend: 0x0, symName: __ZNSt3__19allocatorImE8allocateB7v160006Em, symObjAddr: 0x43F0, symBinAddr: 0x1000053B0, symSize: 0x50 }
  - { offsetInCU: 0x15EF4, offset: 0x15EF4, size: 0x8, addend: 0x0, symName: __ZNSt3__117__compressed_pairIPmRNS_9allocatorImEEE6secondB7v160006Ev, symObjAddr: 0x4440, symBinAddr: 0x100005400, symSize: 0x20 }
  - { offsetInCU: 0x15F1A, offset: 0x15F1A, size: 0x8, addend: 0x0, symName: __ZNSt3__122__compressed_pair_elemIRNS_9allocatorImEELi1ELb0EE5__getB7v160006Ev, symObjAddr: 0x4460, symBinAddr: 0x100005420, symSize: 0x20 }
  - { offsetInCU: 0x15F40, offset: 0x15F40, size: 0x8, addend: 0x0, symName: __ZNSt3__117__compressed_pairIPmRNS_9allocatorImEEE5firstB7v160006Ev, symObjAddr: 0x4480, symBinAddr: 0x100005440, symSize: 0x20 }
  - { offsetInCU: 0x15F66, offset: 0x15F66, size: 0x8, addend: 0x0, symName: __ZNKSt3__16vectorImNS_9allocatorImEEE17__annotate_deleteB7v160006Ev, symObjAddr: 0x44A0, symBinAddr: 0x100005460, symSize: 0xB0 }
  - { offsetInCU: 0x15F8C, offset: 0x15F8C, size: 0x8, addend: 0x0, symName: __ZNSt3__116reverse_iteratorIPmEC1B7v160006ES1_, symObjAddr: 0x45C0, symBinAddr: 0x100005580, symSize: 0x30 }
  - { offsetInCU: 0x15FC4, offset: 0x15FC4, size: 0x8, addend: 0x0, symName: __ZNKSt3__116reverse_iteratorIPmE4baseB7v160006Ev, symObjAddr: 0x45F0, symBinAddr: 0x1000055B0, symSize: 0x20 }
  - { offsetInCU: 0x15FEA, offset: 0x15FEA, size: 0x8, addend: 0x0, symName: __ZNKSt3__16vectorImNS_9allocatorImEEE14__annotate_newB7v160006Em, symObjAddr: 0x4650, symBinAddr: 0x100005610, symSize: 0xB0 }
  - { offsetInCU: 0x1601F, offset: 0x1601F, size: 0x8, addend: 0x0, symName: __ZNKSt3__16vectorImNS_9allocatorImEEE31__annotate_contiguous_containerB7v160006EPKvS5_S5_S5_, symObjAddr: 0x4710, symBinAddr: 0x1000056D0, symSize: 0x20 }
  - { offsetInCU: 0x16071, offset: 0x16071, size: 0x8, addend: 0x0, symName: __ZNKSt3__16vectorImNS_9allocatorImEEE4dataB7v160006Ev, symObjAddr: 0x4730, symBinAddr: 0x1000056F0, symSize: 0x20 }
  - { offsetInCU: 0x160C5, offset: 0x160C5, size: 0x8, addend: 0x0, symName: __ZNKSt3__111__move_loopINS_17_ClassicAlgPolicyEEclB7v160006INS_16reverse_iteratorIPmEES6_S6_EENS_4pairIT_T1_EES8_T0_S9_, symObjAddr: 0x4B60, symBinAddr: 0x100005B20, symSize: 0xA0 }
  - { offsetInCU: 0x16130, offset: 0x16130, size: 0x8, addend: 0x0, symName: __ZNSt3__119__unwrap_range_implINS_16reverse_iteratorIPmEES3_E8__unwrapB7v160006ES3_S3_, symObjAddr: 0x4D40, symBinAddr: 0x100005D00, symSize: 0x90 }
  - { offsetInCU: 0x16167, offset: 0x16167, size: 0x8, addend: 0x0, symName: __ZNSt3__14pairINS_16reverse_iteratorIPmEES3_EC1B7v160006IS3_S3_LPv0EEEOT_OT0_, symObjAddr: 0x4DD0, symBinAddr: 0x100005D90, symSize: 0x30 }
  - { offsetInCU: 0x161C5, offset: 0x161C5, size: 0x8, addend: 0x0, symName: __ZNSt3__14pairINS_16reverse_iteratorIPmEES3_EC2B7v160006IS3_S3_LPv0EEEOT_OT0_, symObjAddr: 0x4E00, symBinAddr: 0x100005DC0, symSize: 0x40 }
  - { offsetInCU: 0x16229, offset: 0x16229, size: 0x8, addend: 0x0, symName: __ZNSt3__18_IterOpsINS_17_ClassicAlgPolicyEE11__iter_moveB7v160006IRNS_16reverse_iteratorIPmEEEENS_9enable_ifIXsr12is_referenceIDTdeclsr3stdE7declvalIRT_EEEEE5valueEDTclsr3stdE4movedeclsr3stdE7declvalISA_EEEEE4typeEOS9_, symObjAddr: 0x4E80, symBinAddr: 0x100005E40, symSize: 0x20 }
  - { offsetInCU: 0x16255, offset: 0x16255, size: 0x8, addend: 0x0, symName: __ZNKSt3__116reverse_iteratorIPmEdeB7v160006Ev, symObjAddr: 0x4EA0, symBinAddr: 0x100005E60, symSize: 0x30 }
  - { offsetInCU: 0x16289, offset: 0x16289, size: 0x8, addend: 0x0, symName: __ZNSt3__116reverse_iteratorIPmEppB7v160006Ev, symObjAddr: 0x4ED0, symBinAddr: 0x100005E90, symSize: 0x20 }
  - { offsetInCU: 0x162AF, offset: 0x162AF, size: 0x8, addend: 0x0, symName: __ZNSt3__18_IterOpsINS_17_ClassicAlgPolicyEE25__validate_iter_referenceB7v160006IRNS_16reverse_iteratorIPmEEEEvv, symObjAddr: 0x4EF0, symBinAddr: 0x100005EB0, symSize: 0x10 }
  - { offsetInCU: 0x162CD, offset: 0x162CD, size: 0x8, addend: 0x0, symName: __ZNSt3__118__unwrap_iter_implINS_16reverse_iteratorIPmEELb0EE8__unwrapB7v160006ES3_, symObjAddr: 0x4F00, symBinAddr: 0x100005EC0, symSize: 0x20 }
  - { offsetInCU: 0x162F0, offset: 0x162F0, size: 0x8, addend: 0x0, symName: __ZNSt3__119__unwrap_range_implINS_16reverse_iteratorIPmEES3_E8__rewrapB7v160006ES3_S3_, symObjAddr: 0x4F20, symBinAddr: 0x100005EE0, symSize: 0x60 }
  - { offsetInCU: 0x16321, offset: 0x16321, size: 0x8, addend: 0x0, symName: __ZNSt3__118__unwrap_iter_implINS_16reverse_iteratorIPmEELb0EE8__rewrapB7v160006ES3_S3_, symObjAddr: 0x4F80, symBinAddr: 0x100005F40, symSize: 0x30 }
  - { offsetInCU: 0x1634E, offset: 0x1634E, size: 0x8, addend: 0x0, symName: __ZNSt3__116reverse_iteratorIPmEC2B7v160006ES1_, symObjAddr: 0x4FB0, symBinAddr: 0x100005F70, symSize: 0x30 }
  - { offsetInCU: 0x16386, offset: 0x16386, size: 0x8, addend: 0x0, symName: __ZNSt3__114__split_bufferImRNS_9allocatorImEEED2Ev, symObjAddr: 0x4FE0, symBinAddr: 0x100005FA0, symSize: 0x70 }
  - { offsetInCU: 0x163B2, offset: 0x163B2, size: 0x8, addend: 0x0, symName: __ZNSt3__114__split_bufferImRNS_9allocatorImEEE5clearB7v160006Ev, symObjAddr: 0x5050, symBinAddr: 0x100006010, symSize: 0x20 }
  - { offsetInCU: 0x163D8, offset: 0x163D8, size: 0x8, addend: 0x0, symName: __ZNSt3__116allocator_traitsINS_9allocatorImEEE10deallocateB7v160006ERS2_Pmm, symObjAddr: 0x5070, symBinAddr: 0x100006030, symSize: 0x30 }
  - { offsetInCU: 0x1641A, offset: 0x1641A, size: 0x8, addend: 0x0, symName: __ZNKSt3__114__split_bufferImRNS_9allocatorImEEE8capacityB7v160006Ev, symObjAddr: 0x50A0, symBinAddr: 0x100006060, symSize: 0x30 }
  - { offsetInCU: 0x16440, offset: 0x16440, size: 0x8, addend: 0x0, symName: __ZNSt3__114__split_bufferImRNS_9allocatorImEEE17__destruct_at_endB7v160006EPm, symObjAddr: 0x50D0, symBinAddr: 0x100006090, symSize: 0x30 }
  - { offsetInCU: 0x16474, offset: 0x16474, size: 0x8, addend: 0x0, symName: __ZNSt3__114__split_bufferImRNS_9allocatorImEEE17__destruct_at_endB7v160006EPmNS_17integral_constantIbLb0EEE, symObjAddr: 0x5100, symBinAddr: 0x1000060C0, symSize: 0x80 }
  - { offsetInCU: 0x164B4, offset: 0x164B4, size: 0x8, addend: 0x0, symName: __ZNSt3__116allocator_traitsINS_9allocatorImEEE7destroyB7v160006ImvvEEvRS2_PT_, symObjAddr: 0x5180, symBinAddr: 0x100006140, symSize: 0x20 }
  - { offsetInCU: 0x164EE, offset: 0x164EE, size: 0x8, addend: 0x0, symName: __ZNSt3__19allocatorImE10deallocateB7v160006EPmm, symObjAddr: 0x51D0, symBinAddr: 0x100006190, symSize: 0x40 }
  - { offsetInCU: 0x16530, offset: 0x16530, size: 0x8, addend: 0x0, symName: __ZNKSt3__114__split_bufferImRNS_9allocatorImEEE9__end_capB7v160006Ev, symObjAddr: 0x5210, symBinAddr: 0x1000061D0, symSize: 0x20 }
  - { offsetInCU: 0x16556, offset: 0x16556, size: 0x8, addend: 0x0, symName: __ZNKSt3__117__compressed_pairIPmRNS_9allocatorImEEE5firstB7v160006Ev, symObjAddr: 0x5230, symBinAddr: 0x1000061F0, symSize: 0x20 }
  - { offsetInCU: 0x1657C, offset: 0x1657C, size: 0x8, addend: 0x0, symName: __ZNSt3__16vectorImNS_9allocatorImEEE11__make_iterB7v160006EPm, symObjAddr: 0x5250, symBinAddr: 0x100006210, symSize: 0x30 }
  - { offsetInCU: 0x165B1, offset: 0x165B1, size: 0x8, addend: 0x0, symName: __ZNSt3__111__wrap_iterIPmEC1B7v160006EPKvS1_, symObjAddr: 0x5280, symBinAddr: 0x100006240, symSize: 0x30 }
  - { offsetInCU: 0x165F7, offset: 0x165F7, size: 0x8, addend: 0x0, symName: __ZNSt3__111__wrap_iterIPmEC2B7v160006EPKvS1_, symObjAddr: 0x52B0, symBinAddr: 0x100006270, symSize: 0x20 }
  - { offsetInCU: 0x1663D, offset: 0x1663D, size: 0x8, addend: 0x0, symName: __ZNKSt3__111__wrap_iterIPmE4baseB7v160006Ev, symObjAddr: 0x5310, symBinAddr: 0x1000062D0, symSize: 0x20 }
  - { offsetInCU: 0x16663, offset: 0x16663, size: 0x8, addend: 0x0, symName: __ZNSt3__16vectorImNS_9allocatorImEEED2B7v160006Ev, symObjAddr: 0x5330, symBinAddr: 0x1000062F0, symSize: 0x40 }
  - { offsetInCU: 0x1668D, offset: 0x1668D, size: 0x8, addend: 0x0, symName: __ZNSt3__16vectorImNS_9allocatorImEEE16__destroy_vectorC1ERS3_, symObjAddr: 0x5370, symBinAddr: 0x100006330, symSize: 0x30 }
  - { offsetInCU: 0x166C6, offset: 0x166C6, size: 0x8, addend: 0x0, symName: __ZNSt3__16vectorImNS_9allocatorImEEE16__destroy_vectorclB7v160006Ev, symObjAddr: 0x53A0, symBinAddr: 0x100006360, symSize: 0x90 }
  - { offsetInCU: 0x166EC, offset: 0x166EC, size: 0x8, addend: 0x0, symName: __ZNSt3__16vectorImNS_9allocatorImEEE16__destroy_vectorC2ERS3_, symObjAddr: 0x5430, symBinAddr: 0x1000063F0, symSize: 0x20 }
  - { offsetInCU: 0x16725, offset: 0x16725, size: 0x8, addend: 0x0, symName: __ZNSt3__16vectorImNS_9allocatorImEEE7__clearB7v160006Ev, symObjAddr: 0x5460, symBinAddr: 0x100006420, symSize: 0x20 }
  - { offsetInCU: 0x1674B, offset: 0x1674B, size: 0x8, addend: 0x0, symName: __ZNSt3__16vectorImNS_9allocatorImEEE22__base_destruct_at_endB7v160006EPm, symObjAddr: 0x5480, symBinAddr: 0x100006440, symSize: 0x80 }
  - { offsetInCU: 0x1678F, offset: 0x1678F, size: 0x8, addend: 0x0, symName: __ZNSt3__15stackImNS_5dequeImNS_9allocatorImEEEEED2Ev, symObjAddr: 0x5500, symBinAddr: 0x1000064C0, symSize: 0x20 }
  - { offsetInCU: 0x167BB, offset: 0x167BB, size: 0x8, addend: 0x0, symName: __ZNSt3__15dequeImNS_9allocatorImEEED1B7v160006Ev, symObjAddr: 0x5520, symBinAddr: 0x1000064E0, symSize: 0x20 }
  - { offsetInCU: 0x167E5, offset: 0x167E5, size: 0x8, addend: 0x0, symName: __ZNSt3__15dequeImNS_9allocatorImEEED2B7v160006Ev, symObjAddr: 0x5540, symBinAddr: 0x100006500, symSize: 0x80 }
  - { offsetInCU: 0x1683B, offset: 0x1683B, size: 0x8, addend: 0x0, symName: __ZNSt3__15dequeImNS_9allocatorImEEE5clearEv, symObjAddr: 0x55C0, symBinAddr: 0x100006580, symSize: 0x180 }
  - { offsetInCU: 0x16896, offset: 0x16896, size: 0x8, addend: 0x0, symName: __ZNSt3__114__split_bufferIPmNS_9allocatorIS1_EEE5beginB7v160006Ev, symObjAddr: 0x5740, symBinAddr: 0x100006700, symSize: 0x20 }
  - { offsetInCU: 0x168BC, offset: 0x168BC, size: 0x8, addend: 0x0, symName: __ZNSt3__114__split_bufferIPmNS_9allocatorIS1_EEE3endB7v160006Ev, symObjAddr: 0x5760, symBinAddr: 0x100006720, symSize: 0x20 }
  - { offsetInCU: 0x168E2, offset: 0x168E2, size: 0x8, addend: 0x0, symName: __ZNSt3__15dequeImNS_9allocatorImEEE7__allocB7v160006Ev, symObjAddr: 0x5780, symBinAddr: 0x100006740, symSize: 0x20 }
  - { offsetInCU: 0x16908, offset: 0x16908, size: 0x8, addend: 0x0, symName: __ZNSt3__114__split_bufferIPmNS_9allocatorIS1_EEED1Ev, symObjAddr: 0x57A0, symBinAddr: 0x100006760, symSize: 0x20 }
  - { offsetInCU: 0x16934, offset: 0x16934, size: 0x8, addend: 0x0, symName: __ZNSt3__15dequeImNS_9allocatorImEEE5beginB7v160006Ev, symObjAddr: 0x57C0, symBinAddr: 0x100006780, symSize: 0xB0 }
  - { offsetInCU: 0x16969, offset: 0x16969, size: 0x8, addend: 0x0, symName: __ZNSt3__15dequeImNS_9allocatorImEEE3endB7v160006Ev, symObjAddr: 0x5870, symBinAddr: 0x100006830, symSize: 0xB0 }
  - { offsetInCU: 0x169AD, offset: 0x169AD, size: 0x8, addend: 0x0, symName: __ZNKSt3__116__deque_iteratorImPmRmPS1_lLl512EEdeB7v160006Ev, symObjAddr: 0x5950, symBinAddr: 0x100006910, symSize: 0x20 }
  - { offsetInCU: 0x169D3, offset: 0x169D3, size: 0x8, addend: 0x0, symName: __ZNSt3__116__deque_iteratorImPmRmPS1_lLl512EEppB7v160006Ev, symObjAddr: 0x5970, symBinAddr: 0x100006930, symSize: 0x60 }
  - { offsetInCU: 0x169F9, offset: 0x169F9, size: 0x8, addend: 0x0, symName: __ZNSt3__15dequeImNS_9allocatorImEEE6__sizeB7v160006Ev, symObjAddr: 0x59D0, symBinAddr: 0x100006990, symSize: 0x20 }
  - { offsetInCU: 0x16A1F, offset: 0x16A1F, size: 0x8, addend: 0x0, symName: __ZNKSt3__114__split_bufferIPmNS_9allocatorIS1_EEE4sizeB7v160006Ev, symObjAddr: 0x59F0, symBinAddr: 0x1000069B0, symSize: 0x20 }
  - { offsetInCU: 0x16A45, offset: 0x16A45, size: 0x8, addend: 0x0, symName: __ZNSt3__114__split_bufferIPmNS_9allocatorIS1_EEE5frontB7v160006Ev, symObjAddr: 0x5A10, symBinAddr: 0x1000069D0, symSize: 0x20 }
  - { offsetInCU: 0x16A6B, offset: 0x16A6B, size: 0x8, addend: 0x0, symName: __ZNSt3__114__split_bufferIPmNS_9allocatorIS1_EEE9pop_frontB7v160006Ev, symObjAddr: 0x5A30, symBinAddr: 0x1000069F0, symSize: 0x30 }
  - { offsetInCU: 0x16A91, offset: 0x16A91, size: 0x8, addend: 0x0, symName: __ZNKSt3__114__split_bufferIPmNS_9allocatorIS1_EEE5emptyB7v160006Ev, symObjAddr: 0x5A60, symBinAddr: 0x100006A20, symSize: 0x20 }
  - { offsetInCU: 0x16AB7, offset: 0x16AB7, size: 0x8, addend: 0x0, symName: __ZNSt3__116__deque_iteratorImPmRmPS1_lLl512EEC1B7v160006ES3_S1_, symObjAddr: 0x5A80, symBinAddr: 0x100006A40, symSize: 0x30 }
  - { offsetInCU: 0x16AFF, offset: 0x16AFF, size: 0x8, addend: 0x0, symName: __ZNSt3__116__deque_iteratorImPmRmPS1_lLl512EEC2B7v160006ES3_S1_, symObjAddr: 0x5AB0, symBinAddr: 0x100006A70, symSize: 0x30 }
  - { offsetInCU: 0x16B47, offset: 0x16B47, size: 0x8, addend: 0x0, symName: __ZNKSt3__15dequeImNS_9allocatorImEEE4sizeB7v160006Ev, symObjAddr: 0x5AE0, symBinAddr: 0x100006AA0, symSize: 0x20 }
  - { offsetInCU: 0x16B6D, offset: 0x16B6D, size: 0x8, addend: 0x0, symName: __ZNKSt3__15dequeImNS_9allocatorImEEE6__sizeB7v160006Ev, symObjAddr: 0x5B00, symBinAddr: 0x100006AC0, symSize: 0x20 }
  - { offsetInCU: 0x16B93, offset: 0x16B93, size: 0x8, addend: 0x0, symName: __ZNKSt3__117__compressed_pairImNS_9allocatorImEEE5firstB7v160006Ev, symObjAddr: 0x5B20, symBinAddr: 0x100006AE0, symSize: 0x20 }
  - { offsetInCU: 0x16BB9, offset: 0x16BB9, size: 0x8, addend: 0x0, symName: __ZNKSt3__122__compressed_pair_elemImLi0ELb0EE5__getB7v160006Ev, symObjAddr: 0x5B40, symBinAddr: 0x100006B00, symSize: 0x10 }
  - { offsetInCU: 0x16BDF, offset: 0x16BDF, size: 0x8, addend: 0x0, symName: __ZNSt3__117__compressed_pairImNS_9allocatorImEEE5firstB7v160006Ev, symObjAddr: 0x5B80, symBinAddr: 0x100006B40, symSize: 0x20 }
  - { offsetInCU: 0x16C05, offset: 0x16C05, size: 0x8, addend: 0x0, symName: __ZNSt3__122__compressed_pair_elemImLi0ELb0EE5__getB7v160006Ev, symObjAddr: 0x5BA0, symBinAddr: 0x100006B60, symSize: 0x10 }
  - { offsetInCU: 0x16C2B, offset: 0x16C2B, size: 0x8, addend: 0x0, symName: __ZNSt3__114__split_bufferIPmNS_9allocatorIS1_EEE19__destruct_at_beginB7v160006EPS1_, symObjAddr: 0x5BB0, symBinAddr: 0x100006B70, symSize: 0x30 }
  - { offsetInCU: 0x16C5F, offset: 0x16C5F, size: 0x8, addend: 0x0, symName: __ZNSt3__114__split_bufferIPmNS_9allocatorIS1_EEE19__destruct_at_beginEPS1_NS_17integral_constantIbLb1EEE, symObjAddr: 0x5BE0, symBinAddr: 0x100006BA0, symSize: 0x20 }
  - { offsetInCU: 0x16C9F, offset: 0x16C9F, size: 0x8, addend: 0x0, symName: __ZNSt3__117__compressed_pairImNS_9allocatorImEEE6secondB7v160006Ev, symObjAddr: 0x5C00, symBinAddr: 0x100006BC0, symSize: 0x20 }
  - { offsetInCU: 0x16CC5, offset: 0x16CC5, size: 0x8, addend: 0x0, symName: __ZNSt3__114__split_bufferIPmNS_9allocatorIS1_EEED2Ev, symObjAddr: 0x5C20, symBinAddr: 0x100006BE0, symSize: 0x70 }
  - { offsetInCU: 0x16CF1, offset: 0x16CF1, size: 0x8, addend: 0x0, symName: __ZNSt3__114__split_bufferIPmNS_9allocatorIS1_EEE5clearB7v160006Ev, symObjAddr: 0x5C90, symBinAddr: 0x100006C50, symSize: 0x20 }
  - { offsetInCU: 0x16D17, offset: 0x16D17, size: 0x8, addend: 0x0, symName: __ZNSt3__116allocator_traitsINS_9allocatorIPmEEE10deallocateB7v160006ERS3_PS2_m, symObjAddr: 0x5CB0, symBinAddr: 0x100006C70, symSize: 0x30 }
  - { offsetInCU: 0x16D59, offset: 0x16D59, size: 0x8, addend: 0x0, symName: __ZNSt3__114__split_bufferIPmNS_9allocatorIS1_EEE7__allocB7v160006Ev, symObjAddr: 0x5CE0, symBinAddr: 0x100006CA0, symSize: 0x20 }
  - { offsetInCU: 0x16D7F, offset: 0x16D7F, size: 0x8, addend: 0x0, symName: __ZNKSt3__114__split_bufferIPmNS_9allocatorIS1_EEE8capacityB7v160006Ev, symObjAddr: 0x5D00, symBinAddr: 0x100006CC0, symSize: 0x30 }
  - { offsetInCU: 0x16DA5, offset: 0x16DA5, size: 0x8, addend: 0x0, symName: __ZNSt3__114__split_bufferIPmNS_9allocatorIS1_EEE17__destruct_at_endB7v160006EPS1_, symObjAddr: 0x5D30, symBinAddr: 0x100006CF0, symSize: 0x30 }
  - { offsetInCU: 0x16DD9, offset: 0x16DD9, size: 0x8, addend: 0x0, symName: __ZNSt3__114__split_bufferIPmNS_9allocatorIS1_EEE17__destruct_at_endB7v160006EPS1_NS_17integral_constantIbLb0EEE, symObjAddr: 0x5D60, symBinAddr: 0x100006D20, symSize: 0x80 }
  - { offsetInCU: 0x16E19, offset: 0x16E19, size: 0x8, addend: 0x0, symName: __ZNSt3__116allocator_traitsINS_9allocatorIPmEEE7destroyB7v160006IS2_vvEEvRS3_PT_, symObjAddr: 0x5DE0, symBinAddr: 0x100006DA0, symSize: 0x20 }
  - { offsetInCU: 0x16E53, offset: 0x16E53, size: 0x8, addend: 0x0, symName: __ZNSt3__19allocatorIPmE10deallocateB7v160006EPS1_m, symObjAddr: 0x5E40, symBinAddr: 0x100006E00, symSize: 0x40 }
  - { offsetInCU: 0x16E95, offset: 0x16E95, size: 0x8, addend: 0x0, symName: __ZNSt3__117__compressed_pairIPPmNS_9allocatorIS1_EEE6secondB7v160006Ev, symObjAddr: 0x5E80, symBinAddr: 0x100006E40, symSize: 0x20 }
  - { offsetInCU: 0x16EBB, offset: 0x16EBB, size: 0x8, addend: 0x0, symName: __ZNSt3__122__compressed_pair_elemINS_9allocatorIPmEELi1ELb1EE5__getB7v160006Ev, symObjAddr: 0x5EA0, symBinAddr: 0x100006E60, symSize: 0x10 }
  - { offsetInCU: 0x16EE1, offset: 0x16EE1, size: 0x8, addend: 0x0, symName: __ZNKSt3__114__split_bufferIPmNS_9allocatorIS1_EEE9__end_capB7v160006Ev, symObjAddr: 0x5EB0, symBinAddr: 0x100006E70, symSize: 0x20 }
  - { offsetInCU: 0x16F07, offset: 0x16F07, size: 0x8, addend: 0x0, symName: __ZNKSt3__117__compressed_pairIPPmNS_9allocatorIS1_EEE5firstB7v160006Ev, symObjAddr: 0x5ED0, symBinAddr: 0x100006E90, symSize: 0x20 }
  - { offsetInCU: 0x16F2D, offset: 0x16F2D, size: 0x8, addend: 0x0, symName: __ZNKSt3__122__compressed_pair_elemIPPmLi0ELb0EE5__getB7v160006Ev, symObjAddr: 0x5EF0, symBinAddr: 0x100006EB0, symSize: 0x10 }
  - { offsetInCU: 0x16F53, offset: 0x16F53, size: 0x8, addend: 0x0, symName: __ZNSt3__16vectorI5ColorNS_9allocatorIS1_EEEC2EmRKS1_, symObjAddr: 0x5F00, symBinAddr: 0x100006EC0, symSize: 0xE0 }
  - { offsetInCU: 0x16FB2, offset: 0x16FB2, size: 0x8, addend: 0x0, symName: __ZNSt3__117__compressed_pairIP5ColorNS_9allocatorIS1_EEEC1B7v160006IDnNS_18__default_init_tagEEEOT_OT0_, symObjAddr: 0x5FE0, symBinAddr: 0x100006FA0, symSize: 0x30 }
  - { offsetInCU: 0x1700A, offset: 0x1700A, size: 0x8, addend: 0x0, symName: __ZNSt3__16vectorI5ColorNS_9allocatorIS1_EEE16__destroy_vectorC1ERS4_, symObjAddr: 0x6050, symBinAddr: 0x100007010, symSize: 0x30 }
  - { offsetInCU: 0x17043, offset: 0x17043, size: 0x8, addend: 0x0, symName: __ZNSt3__16vectorI5ColorNS_9allocatorIS1_EEE11__vallocateB7v160006Em, symObjAddr: 0x6090, symBinAddr: 0x100007050, symSize: 0xA0 }
  - { offsetInCU: 0x17087, offset: 0x17087, size: 0x8, addend: 0x0, symName: __ZNSt3__16vectorI5ColorNS_9allocatorIS1_EEE18__construct_at_endEmRKS1_, symObjAddr: 0x6130, symBinAddr: 0x1000070F0, symSize: 0xC0 }
  - { offsetInCU: 0x17108, offset: 0x17108, size: 0x8, addend: 0x0, symName: __ZNSt3__128__exception_guard_exceptionsINS_6vectorI5ColorNS_9allocatorIS2_EEE16__destroy_vectorEE10__completeB7v160006Ev, symObjAddr: 0x61F0, symBinAddr: 0x1000071B0, symSize: 0x20 }
  - { offsetInCU: 0x1712E, offset: 0x1712E, size: 0x8, addend: 0x0, symName: __ZNSt3__128__exception_guard_exceptionsINS_6vectorI5ColorNS_9allocatorIS2_EEE16__destroy_vectorEED1B7v160006Ev, symObjAddr: 0x6210, symBinAddr: 0x1000071D0, symSize: 0x20 }
  - { offsetInCU: 0x17158, offset: 0x17158, size: 0x8, addend: 0x0, symName: __ZNSt3__117__compressed_pairIP5ColorNS_9allocatorIS1_EEEC2B7v160006IDnNS_18__default_init_tagEEEOT_OT0_, symObjAddr: 0x6230, symBinAddr: 0x1000071F0, symSize: 0x40 }
  - { offsetInCU: 0x171B0, offset: 0x171B0, size: 0x8, addend: 0x0, symName: __ZNSt3__122__compressed_pair_elemIP5ColorLi0ELb0EEC2B7v160006IDnvEEOT_, symObjAddr: 0x6270, symBinAddr: 0x100007230, symSize: 0x20 }
  - { offsetInCU: 0x171F2, offset: 0x171F2, size: 0x8, addend: 0x0, symName: __ZNSt3__122__compressed_pair_elemINS_9allocatorI5ColorEELi1ELb1EEC2B7v160006ENS_18__default_init_tagE, symObjAddr: 0x6290, symBinAddr: 0x100007250, symSize: 0x20 }
  - { offsetInCU: 0x17226, offset: 0x17226, size: 0x8, addend: 0x0, symName: __ZNSt3__19allocatorI5ColorEC2B7v160006Ev, symObjAddr: 0x62B0, symBinAddr: 0x100007270, symSize: 0x20 }
  - { offsetInCU: 0x17250, offset: 0x17250, size: 0x8, addend: 0x0, symName: __ZNSt3__116__non_trivial_ifILb1ENS_9allocatorI5ColorEEEC2B7v160006Ev, symObjAddr: 0x62D0, symBinAddr: 0x100007290, symSize: 0x10 }
  - { offsetInCU: 0x1727A, offset: 0x1727A, size: 0x8, addend: 0x0, symName: __ZNSt3__128__exception_guard_exceptionsINS_6vectorI5ColorNS_9allocatorIS2_EEE16__destroy_vectorEEC1B7v160006ES6_, symObjAddr: 0x62E0, symBinAddr: 0x1000072A0, symSize: 0x30 }
  - { offsetInCU: 0x172B2, offset: 0x172B2, size: 0x8, addend: 0x0, symName: __ZNSt3__128__exception_guard_exceptionsINS_6vectorI5ColorNS_9allocatorIS2_EEE16__destroy_vectorEEC2B7v160006ES6_, symObjAddr: 0x6310, symBinAddr: 0x1000072D0, symSize: 0x20 }
  - { offsetInCU: 0x172EA, offset: 0x172EA, size: 0x8, addend: 0x0, symName: __ZNSt3__16vectorI5ColorNS_9allocatorIS1_EEE16__destroy_vectorC2ERS4_, symObjAddr: 0x6330, symBinAddr: 0x1000072F0, symSize: 0x20 }
  - { offsetInCU: 0x17323, offset: 0x17323, size: 0x8, addend: 0x0, symName: __ZNKSt3__16vectorI5ColorNS_9allocatorIS1_EEE8max_sizeEv, symObjAddr: 0x6350, symBinAddr: 0x100007310, symSize: 0x60 }
  - { offsetInCU: 0x1734B, offset: 0x1734B, size: 0x8, addend: 0x0, symName: __ZNKSt3__16vectorI5ColorNS_9allocatorIS1_EEE20__throw_length_errorB7v160006Ev, symObjAddr: 0x63B0, symBinAddr: 0x100007370, symSize: 0x20 }
  - { offsetInCU: 0x17371, offset: 0x17371, size: 0x8, addend: 0x0, symName: __ZNSt3__16vectorI5ColorNS_9allocatorIS1_EEE7__allocB7v160006Ev, symObjAddr: 0x6410, symBinAddr: 0x1000073D0, symSize: 0x20 }
  - { offsetInCU: 0x17397, offset: 0x17397, size: 0x8, addend: 0x0, symName: __ZNSt3__16vectorI5ColorNS_9allocatorIS1_EEE9__end_capB7v160006Ev, symObjAddr: 0x6430, symBinAddr: 0x1000073F0, symSize: 0x20 }
  - { offsetInCU: 0x173BD, offset: 0x173BD, size: 0x8, addend: 0x0, symName: __ZNKSt3__16vectorI5ColorNS_9allocatorIS1_EEE14__annotate_newB7v160006Em, symObjAddr: 0x6450, symBinAddr: 0x100007410, symSize: 0xA0 }
  - { offsetInCU: 0x173FD, offset: 0x173FD, size: 0x8, addend: 0x0, symName: __ZNSt3__116allocator_traitsINS_9allocatorI5ColorEEE8max_sizeB7v160006IS3_vvEEmRKS3_, symObjAddr: 0x64F0, symBinAddr: 0x1000074B0, symSize: 0x20 }
  - { offsetInCU: 0x17428, offset: 0x17428, size: 0x8, addend: 0x0, symName: __ZNKSt3__16vectorI5ColorNS_9allocatorIS1_EEE7__allocB7v160006Ev, symObjAddr: 0x6510, symBinAddr: 0x1000074D0, symSize: 0x20 }
  - { offsetInCU: 0x1744E, offset: 0x1744E, size: 0x8, addend: 0x0, symName: __ZNKSt3__117__compressed_pairIP5ColorNS_9allocatorIS1_EEE6secondB7v160006Ev, symObjAddr: 0x6530, symBinAddr: 0x1000074F0, symSize: 0x20 }
  - { offsetInCU: 0x17474, offset: 0x17474, size: 0x8, addend: 0x0, symName: __ZNKSt3__122__compressed_pair_elemINS_9allocatorI5ColorEELi1ELb1EE5__getB7v160006Ev, symObjAddr: 0x6550, symBinAddr: 0x100007510, symSize: 0x10 }
  - { offsetInCU: 0x1749A, offset: 0x1749A, size: 0x8, addend: 0x0, symName: __ZNSt3__19allocatorI5ColorE17allocate_at_leastB7v160006Em, symObjAddr: 0x65A0, symBinAddr: 0x100007560, symSize: 0x40 }
  - { offsetInCU: 0x174CE, offset: 0x174CE, size: 0x8, addend: 0x0, symName: __ZNSt3__19allocatorI5ColorE8allocateB7v160006Em, symObjAddr: 0x65E0, symBinAddr: 0x1000075A0, symSize: 0x50 }
  - { offsetInCU: 0x17502, offset: 0x17502, size: 0x8, addend: 0x0, symName: __ZNSt3__117__compressed_pairIP5ColorNS_9allocatorIS1_EEE6secondB7v160006Ev, symObjAddr: 0x6630, symBinAddr: 0x1000075F0, symSize: 0x20 }
  - { offsetInCU: 0x17528, offset: 0x17528, size: 0x8, addend: 0x0, symName: __ZNSt3__122__compressed_pair_elemINS_9allocatorI5ColorEELi1ELb1EE5__getB7v160006Ev, symObjAddr: 0x6650, symBinAddr: 0x100007610, symSize: 0x10 }
  - { offsetInCU: 0x1754E, offset: 0x1754E, size: 0x8, addend: 0x0, symName: __ZNSt3__117__compressed_pairIP5ColorNS_9allocatorIS1_EEE5firstB7v160006Ev, symObjAddr: 0x6660, symBinAddr: 0x100007620, symSize: 0x20 }
  - { offsetInCU: 0x17574, offset: 0x17574, size: 0x8, addend: 0x0, symName: __ZNSt3__122__compressed_pair_elemIP5ColorLi0ELb0EE5__getB7v160006Ev, symObjAddr: 0x6680, symBinAddr: 0x100007640, symSize: 0x10 }
  - { offsetInCU: 0x1759A, offset: 0x1759A, size: 0x8, addend: 0x0, symName: __ZNKSt3__16vectorI5ColorNS_9allocatorIS1_EEE31__annotate_contiguous_containerB7v160006EPKvS6_S6_S6_, symObjAddr: 0x6690, symBinAddr: 0x100007650, symSize: 0x20 }
  - { offsetInCU: 0x175EC, offset: 0x175EC, size: 0x8, addend: 0x0, symName: __ZNKSt3__16vectorI5ColorNS_9allocatorIS1_EEE4dataB7v160006Ev, symObjAddr: 0x66B0, symBinAddr: 0x100007670, symSize: 0x20 }
  - { offsetInCU: 0x17612, offset: 0x17612, size: 0x8, addend: 0x0, symName: __ZNKSt3__16vectorI5ColorNS_9allocatorIS1_EEE8capacityB7v160006Ev, symObjAddr: 0x66D0, symBinAddr: 0x100007690, symSize: 0x30 }
  - { offsetInCU: 0x17638, offset: 0x17638, size: 0x8, addend: 0x0, symName: __ZNKSt3__16vectorI5ColorNS_9allocatorIS1_EEE9__end_capB7v160006Ev, symObjAddr: 0x6710, symBinAddr: 0x1000076D0, symSize: 0x20 }
  - { offsetInCU: 0x1765E, offset: 0x1765E, size: 0x8, addend: 0x0, symName: __ZNKSt3__117__compressed_pairIP5ColorNS_9allocatorIS1_EEE5firstB7v160006Ev, symObjAddr: 0x6730, symBinAddr: 0x1000076F0, symSize: 0x20 }
  - { offsetInCU: 0x17684, offset: 0x17684, size: 0x8, addend: 0x0, symName: __ZNKSt3__122__compressed_pair_elemIP5ColorLi0ELb0EE5__getB7v160006Ev, symObjAddr: 0x6750, symBinAddr: 0x100007710, symSize: 0x10 }
  - { offsetInCU: 0x176C6, offset: 0x176C6, size: 0x8, addend: 0x0, symName: __ZNSt3__16vectorI5ColorNS_9allocatorIS1_EEE21_ConstructTransactionC1B7v160006ERS4_m, symObjAddr: 0x6760, symBinAddr: 0x100007720, symSize: 0x30 }
  - { offsetInCU: 0x17714, offset: 0x17714, size: 0x8, addend: 0x0, symName: __ZNSt3__116allocator_traitsINS_9allocatorI5ColorEEE9constructB7v160006IS2_JRKS2_EvvEEvRS3_PT_DpOT0_, symObjAddr: 0x6790, symBinAddr: 0x100007750, symSize: 0x30 }
  - { offsetInCU: 0x17768, offset: 0x17768, size: 0x8, addend: 0x0, symName: __ZNSt3__16vectorI5ColorNS_9allocatorIS1_EEE21_ConstructTransactionD1B7v160006Ev, symObjAddr: 0x67C0, symBinAddr: 0x100007780, symSize: 0x20 }
  - { offsetInCU: 0x17792, offset: 0x17792, size: 0x8, addend: 0x0, symName: __ZNSt3__16vectorI5ColorNS_9allocatorIS1_EEE21_ConstructTransactionC2B7v160006ERS4_m, symObjAddr: 0x67E0, symBinAddr: 0x1000077A0, symSize: 0x40 }
  - { offsetInCU: 0x177DA, offset: 0x177DA, size: 0x8, addend: 0x0, symName: __ZNSt3__16vectorI5ColorNS_9allocatorIS1_EEE21_ConstructTransactionD2B7v160006Ev, symObjAddr: 0x6850, symBinAddr: 0x100007810, symSize: 0x20 }
  - { offsetInCU: 0x17804, offset: 0x17804, size: 0x8, addend: 0x0, symName: __ZNSt3__128__exception_guard_exceptionsINS_6vectorI5ColorNS_9allocatorIS2_EEE16__destroy_vectorEED2B7v160006Ev, symObjAddr: 0x6870, symBinAddr: 0x100007830, symSize: 0x40 }
  - { offsetInCU: 0x1782E, offset: 0x1782E, size: 0x8, addend: 0x0, symName: __ZNSt3__16vectorI5ColorNS_9allocatorIS1_EEE16__destroy_vectorclB7v160006Ev, symObjAddr: 0x68B0, symBinAddr: 0x100007870, symSize: 0x90 }
  - { offsetInCU: 0x17854, offset: 0x17854, size: 0x8, addend: 0x0, symName: __ZNKSt3__16vectorI5ColorNS_9allocatorIS1_EEE17__annotate_deleteB7v160006Ev, symObjAddr: 0x6940, symBinAddr: 0x100007900, symSize: 0xA0 }
  - { offsetInCU: 0x1787A, offset: 0x1787A, size: 0x8, addend: 0x0, symName: __ZNSt3__16vectorI5ColorNS_9allocatorIS1_EEE7__clearB7v160006Ev, symObjAddr: 0x69F0, symBinAddr: 0x1000079B0, symSize: 0x20 }
  - { offsetInCU: 0x178A0, offset: 0x178A0, size: 0x8, addend: 0x0, symName: __ZNSt3__116allocator_traitsINS_9allocatorI5ColorEEE10deallocateB7v160006ERS3_PS2_m, symObjAddr: 0x6A10, symBinAddr: 0x1000079D0, symSize: 0x30 }
  - { offsetInCU: 0x178E2, offset: 0x178E2, size: 0x8, addend: 0x0, symName: __ZNKSt3__16vectorI5ColorNS_9allocatorIS1_EEE4sizeB7v160006Ev, symObjAddr: 0x6A40, symBinAddr: 0x100007A00, symSize: 0x20 }
  - { offsetInCU: 0x17908, offset: 0x17908, size: 0x8, addend: 0x0, symName: __ZNSt3__16vectorI5ColorNS_9allocatorIS1_EEE22__base_destruct_at_endB7v160006EPS1_, symObjAddr: 0x6A60, symBinAddr: 0x100007A20, symSize: 0x80 }
  - { offsetInCU: 0x1794C, offset: 0x1794C, size: 0x8, addend: 0x0, symName: __ZNSt3__116allocator_traitsINS_9allocatorI5ColorEEE7destroyB7v160006IS2_vvEEvRS3_PT_, symObjAddr: 0x6AE0, symBinAddr: 0x100007AA0, symSize: 0x20 }
  - { offsetInCU: 0x17986, offset: 0x17986, size: 0x8, addend: 0x0, symName: __ZNSt3__19allocatorI5ColorE10deallocateB7v160006EPS1_m, symObjAddr: 0x6B30, symBinAddr: 0x100007AF0, symSize: 0x40 }
  - { offsetInCU: 0x179C8, offset: 0x179C8, size: 0x8, addend: 0x0, symName: __ZNSt3__16vectorI5ColorNS_9allocatorIS1_EEED2B7v160006Ev, symObjAddr: 0x6B70, symBinAddr: 0x100007B30, symSize: 0x40 }
  - { offsetInCU: 0x17AB0, offset: 0x17AB0, size: 0x8, addend: 0x0, symName: __ZNKSt3__113basic_istreamIcNS_11char_traitsIcEEE6sentrycvbB7v160006Ev, symObjAddr: 0x6BB0, symBinAddr: 0x100007B70, symSize: 0x20 }
  - { offsetInCU: 0x17AD6, offset: 0x17AD6, size: 0x8, addend: 0x0, symName: __ZNSt3__112basic_stringIcNS_11char_traitsIcEENS_9allocatorIcEEE5clearB7v160006Ev, symObjAddr: 0x6BD0, symBinAddr: 0x100007B90, symSize: 0xA0 }
  - { offsetInCU: 0x17AFE, offset: 0x17AFE, size: 0x8, addend: 0x0, symName: __ZNKSt3__18ios_base5widthB7v160006Ev, symObjAddr: 0x6C70, symBinAddr: 0x100007C30, symSize: 0x20 }
  - { offsetInCU: 0x17B26, offset: 0x17B26, size: 0x8, addend: 0x0, symName: __ZNKSt3__112basic_stringIcNS_11char_traitsIcEENS_9allocatorIcEEE8max_sizeB7v160006Ev, symObjAddr: 0x6C90, symBinAddr: 0x100007C50, symSize: 0xA0 }
  - { offsetInCU: 0x17B78, offset: 0x17B78, size: 0x8, addend: 0x0, symName: __ZNKSt3__19basic_iosIcNS_11char_traitsIcEEE5rdbufB7v160006Ev, symObjAddr: 0x6D60, symBinAddr: 0x100007D20, symSize: 0x20 }
  - { offsetInCU: 0x17BA0, offset: 0x17BA0, size: 0x8, addend: 0x0, symName: __ZNSt3__115basic_streambufIcNS_11char_traitsIcEEE5sgetcB7v160006Ev, symObjAddr: 0x6D80, symBinAddr: 0x100007D40, symSize: 0x50 }
  - { offsetInCU: 0x17BC6, offset: 0x17BC6, size: 0x8, addend: 0x0, symName: __ZNSt3__111char_traitsIcE11eq_int_typeEii, symObjAddr: 0x6DD0, symBinAddr: 0x100007D90, symSize: 0x20 }
  - { offsetInCU: 0x17BF7, offset: 0x17BF7, size: 0x8, addend: 0x0, symName: __ZNSt3__111char_traitsIcE3eofEv, symObjAddr: 0x6DF0, symBinAddr: 0x100007DB0, symSize: 0x10 }
  - { offsetInCU: 0x17C0B, offset: 0x17C0B, size: 0x8, addend: 0x0, symName: __ZNSt3__111char_traitsIcE12to_char_typeEi, symObjAddr: 0x6E00, symBinAddr: 0x100007DC0, symSize: 0x10 }
  - { offsetInCU: 0x17C61, offset: 0x17C61, size: 0x8, addend: 0x0, symName: __ZNKSt3__15ctypeIcE2isB7v160006Ejc, symObjAddr: 0x6E10, symBinAddr: 0x100007DD0, symSize: 0x70 }
  - { offsetInCU: 0x17CA5, offset: 0x17CA5, size: 0x8, addend: 0x0, symName: __ZNSt3__115basic_streambufIcNS_11char_traitsIcEEE6sbumpcB7v160006Ev, symObjAddr: 0x6E80, symBinAddr: 0x100007E40, symSize: 0x60 }
  - { offsetInCU: 0x17CCB, offset: 0x17CCB, size: 0x8, addend: 0x0, symName: __ZNSt3__18ios_base5widthB7v160006El, symObjAddr: 0x6EE0, symBinAddr: 0x100007EA0, symSize: 0x30 }
  - { offsetInCU: 0x17D11, offset: 0x17D11, size: 0x8, addend: 0x0, symName: __ZNSt3__18ios_base18__setstate_nothrowB7v160006Ej, symObjAddr: 0x6F10, symBinAddr: 0x100007ED0, symSize: 0x50 }
  - { offsetInCU: 0x17D46, offset: 0x17D46, size: 0x8, addend: 0x0, symName: __ZNKSt3__19basic_iosIcNS_11char_traitsIcEEE10exceptionsB7v160006Ev, symObjAddr: 0x6F60, symBinAddr: 0x100007F20, symSize: 0x20 }
  - { offsetInCU: 0x17D6C, offset: 0x17D6C, size: 0x8, addend: 0x0, symName: __ZNSt3__19basic_iosIcNS_11char_traitsIcEEE8setstateB7v160006Ej, symObjAddr: 0x6F80, symBinAddr: 0x100007F40, symSize: 0x30 }
  - { offsetInCU: 0x17DA1, offset: 0x17DA1, size: 0x8, addend: 0x0, symName: __ZNKSt3__112basic_stringIcNS_11char_traitsIcEENS_9allocatorIcEEE9__is_longB7v160006Ev, symObjAddr: 0x6FC0, symBinAddr: 0x100007F80, symSize: 0x30 }
  - { offsetInCU: 0x17DC7, offset: 0x17DC7, size: 0x8, addend: 0x0, symName: __ZNSt3__111char_traitsIcE6assignERcRKc, symObjAddr: 0x6FF0, symBinAddr: 0x100007FB0, symSize: 0x20 }
  - { offsetInCU: 0x17DF8, offset: 0x17DF8, size: 0x8, addend: 0x0, symName: __ZNSt3__112basic_stringIcNS_11char_traitsIcEENS_9allocatorIcEEE18__get_long_pointerB7v160006Ev, symObjAddr: 0x7010, symBinAddr: 0x100007FD0, symSize: 0x20 }
  - { offsetInCU: 0x17E1E, offset: 0x17E1E, size: 0x8, addend: 0x0, symName: __ZNSt3__112basic_stringIcNS_11char_traitsIcEENS_9allocatorIcEEE15__set_long_sizeB7v160006Em, symObjAddr: 0x7030, symBinAddr: 0x100007FF0, symSize: 0x30 }
  - { offsetInCU: 0x17E53, offset: 0x17E53, size: 0x8, addend: 0x0, symName: __ZNSt3__112basic_stringIcNS_11char_traitsIcEENS_9allocatorIcEEE19__get_short_pointerB7v160006Ev, symObjAddr: 0x7060, symBinAddr: 0x100008020, symSize: 0x30 }
  - { offsetInCU: 0x17E79, offset: 0x17E79, size: 0x8, addend: 0x0, symName: __ZNSt3__112basic_stringIcNS_11char_traitsIcEENS_9allocatorIcEEE16__set_short_sizeB7v160006Em, symObjAddr: 0x7090, symBinAddr: 0x100008050, symSize: 0x50 }
  - { offsetInCU: 0x17EAE, offset: 0x17EAE, size: 0x8, addend: 0x0, symName: __ZNKSt3__117__compressed_pairINS_12basic_stringIcNS_11char_traitsIcEENS_9allocatorIcEEE5__repES5_E5firstB7v160006Ev, symObjAddr: 0x70E0, symBinAddr: 0x1000080A0, symSize: 0x20 }
  - { offsetInCU: 0x17ED4, offset: 0x17ED4, size: 0x8, addend: 0x0, symName: __ZNKSt3__122__compressed_pair_elemINS_12basic_stringIcNS_11char_traitsIcEENS_9allocatorIcEEE5__repELi0ELb0EE5__getB7v160006Ev, symObjAddr: 0x7100, symBinAddr: 0x1000080C0, symSize: 0x10 }
  - { offsetInCU: 0x17EFA, offset: 0x17EFA, size: 0x8, addend: 0x0, symName: __ZNSt3__114pointer_traitsIPcE10pointer_toB7v160006ERc, symObjAddr: 0x7110, symBinAddr: 0x1000080D0, symSize: 0x10 }
  - { offsetInCU: 0x17F28, offset: 0x17F28, size: 0x8, addend: 0x0, symName: __ZNSt3__116allocator_traitsINS_9allocatorIcEEE8max_sizeB7v160006IS2_vvEEmRKS2_, symObjAddr: 0x7120, symBinAddr: 0x1000080E0, symSize: 0x20 }
  - { offsetInCU: 0x17F53, offset: 0x17F53, size: 0x8, addend: 0x0, symName: __ZNKSt3__112basic_stringIcNS_11char_traitsIcEENS_9allocatorIcEEE7__allocB7v160006Ev, symObjAddr: 0x7140, symBinAddr: 0x100008100, symSize: 0x20 }
  - { offsetInCU: 0x17F79, offset: 0x17F79, size: 0x8, addend: 0x0, symName: __ZNKSt3__117__compressed_pairINS_12basic_stringIcNS_11char_traitsIcEENS_9allocatorIcEEE5__repES5_E6secondB7v160006Ev, symObjAddr: 0x7160, symBinAddr: 0x100008120, symSize: 0x20 }
  - { offsetInCU: 0x17F9F, offset: 0x17F9F, size: 0x8, addend: 0x0, symName: __ZNKSt3__122__compressed_pair_elemINS_9allocatorIcEELi1ELb1EE5__getB7v160006Ev, symObjAddr: 0x7180, symBinAddr: 0x100008140, symSize: 0x10 }
  - { offsetInCU: 0x17FC5, offset: 0x17FC5, size: 0x8, addend: 0x0, symName: __ZNKSt3__18ios_base5rdbufB7v160006Ev, symObjAddr: 0x7190, symBinAddr: 0x100008150, symSize: 0x20 }
  - { offsetInCU: 0x17FEB, offset: 0x17FEB, size: 0x8, addend: 0x0, symName: __ZNSt3__111char_traitsIcE11to_int_typeEc, symObjAddr: 0x71B0, symBinAddr: 0x100008170, symSize: 0x10 }
  - { offsetInCU: 0x1800D, offset: 0x1800D, size: 0x8, addend: 0x0, symName: __Z7isasciii, symObjAddr: 0x71C0, symBinAddr: 0x100008180, symSize: 0x20 }
  - { offsetInCU: 0x1803A, offset: 0x1803A, size: 0x8, addend: 0x0, symName: __ZNKSt3__18ios_base10exceptionsB7v160006Ev, symObjAddr: 0x71E0, symBinAddr: 0x1000081A0, symSize: 0x20 }
  - { offsetInCU: 0x18062, offset: 0x18062, size: 0x8, addend: 0x0, symName: __ZNSt3__18ios_base8setstateB7v160006Ej, symObjAddr: 0x7200, symBinAddr: 0x1000081C0, symSize: 0x30 }
  - { offsetInCU: 0x18099, offset: 0x18099, size: 0x8, addend: 0x0, symName: __ZNSt3__15stackImNS_5dequeImNS_9allocatorImEEEEEC2B7v160006Ev, symObjAddr: 0x7230, symBinAddr: 0x1000081F0, symSize: 0x20 }
  - { offsetInCU: 0x180C3, offset: 0x180C3, size: 0x8, addend: 0x0, symName: __ZNSt3__15dequeImNS_9allocatorImEEEC1B7v160006Ev, symObjAddr: 0x7250, symBinAddr: 0x100008210, symSize: 0x20 }
  - { offsetInCU: 0x180ED, offset: 0x180ED, size: 0x8, addend: 0x0, symName: __ZNSt3__15dequeImNS_9allocatorImEEEC2B7v160006Ev, symObjAddr: 0x7270, symBinAddr: 0x100008230, symSize: 0x50 }
  - { offsetInCU: 0x18117, offset: 0x18117, size: 0x8, addend: 0x0, symName: __ZNSt3__114__split_bufferIPmNS_9allocatorIS1_EEEC1Ev, symObjAddr: 0x72C0, symBinAddr: 0x100008280, symSize: 0x20 }
  - { offsetInCU: 0x18149, offset: 0x18149, size: 0x8, addend: 0x0, symName: __ZNSt3__117__compressed_pairImNS_9allocatorImEEEC1B7v160006IiNS_18__default_init_tagEEEOT_OT0_, symObjAddr: 0x72E0, symBinAddr: 0x1000082A0, symSize: 0x30 }
  - { offsetInCU: 0x181A1, offset: 0x181A1, size: 0x8, addend: 0x0, symName: __ZNSt3__114__split_bufferIPmNS_9allocatorIS1_EEEC2Ev, symObjAddr: 0x7310, symBinAddr: 0x1000082D0, symSize: 0x60 }
  - { offsetInCU: 0x181CD, offset: 0x181CD, size: 0x8, addend: 0x0, symName: __ZNSt3__117__compressed_pairIPPmNS_9allocatorIS1_EEEC1B7v160006IDnNS_18__default_init_tagEEEOT_OT0_, symObjAddr: 0x7370, symBinAddr: 0x100008330, symSize: 0x30 }
  - { offsetInCU: 0x18225, offset: 0x18225, size: 0x8, addend: 0x0, symName: __ZNSt3__117__compressed_pairIPPmNS_9allocatorIS1_EEEC2B7v160006IDnNS_18__default_init_tagEEEOT_OT0_, symObjAddr: 0x73A0, symBinAddr: 0x100008360, symSize: 0x40 }
  - { offsetInCU: 0x1827D, offset: 0x1827D, size: 0x8, addend: 0x0, symName: __ZNSt3__122__compressed_pair_elemIPPmLi0ELb0EEC2B7v160006IDnvEEOT_, symObjAddr: 0x73E0, symBinAddr: 0x1000083A0, symSize: 0x20 }
  - { offsetInCU: 0x182BF, offset: 0x182BF, size: 0x8, addend: 0x0, symName: __ZNSt3__122__compressed_pair_elemINS_9allocatorIPmEELi1ELb1EEC2B7v160006ENS_18__default_init_tagE, symObjAddr: 0x7400, symBinAddr: 0x1000083C0, symSize: 0x20 }
  - { offsetInCU: 0x182F3, offset: 0x182F3, size: 0x8, addend: 0x0, symName: __ZNSt3__19allocatorIPmEC2B7v160006Ev, symObjAddr: 0x7420, symBinAddr: 0x1000083E0, symSize: 0x20 }
  - { offsetInCU: 0x1831D, offset: 0x1831D, size: 0x8, addend: 0x0, symName: __ZNSt3__116__non_trivial_ifILb1ENS_9allocatorIPmEEEC2B7v160006Ev, symObjAddr: 0x7440, symBinAddr: 0x100008400, symSize: 0x10 }
  - { offsetInCU: 0x18347, offset: 0x18347, size: 0x8, addend: 0x0, symName: __ZNSt3__117__compressed_pairImNS_9allocatorImEEEC2B7v160006IiNS_18__default_init_tagEEEOT_OT0_, symObjAddr: 0x7450, symBinAddr: 0x100008410, symSize: 0x40 }
  - { offsetInCU: 0x1839F, offset: 0x1839F, size: 0x8, addend: 0x0, symName: __ZNSt3__122__compressed_pair_elemImLi0ELb0EEC2B7v160006IivEEOT_, symObjAddr: 0x7490, symBinAddr: 0x100008450, symSize: 0x20 }
  - { offsetInCU: 0x183E1, offset: 0x183E1, size: 0x8, addend: 0x0, symName: __ZNSt3__15dequeImNS_9allocatorImEEE9push_backERKm, symObjAddr: 0x74B0, symBinAddr: 0x100008470, symSize: 0x90 }
  - { offsetInCU: 0x18427, offset: 0x18427, size: 0x8, addend: 0x0, symName: __ZNKSt3__15dequeImNS_9allocatorImEEE12__back_spareB7v160006Ev, symObjAddr: 0x7540, symBinAddr: 0x100008500, symSize: 0x50 }
  - { offsetInCU: 0x1844D, offset: 0x1844D, size: 0x8, addend: 0x0, symName: __ZNSt3__15dequeImNS_9allocatorImEEE19__add_back_capacityEv, symObjAddr: 0x7590, symBinAddr: 0x100008550, symSize: 0x380 }
  - { offsetInCU: 0x18502, offset: 0x18502, size: 0x8, addend: 0x0, symName: __ZNKSt3__15dequeImNS_9allocatorImEEE10__capacityB7v160006Ev, symObjAddr: 0x7910, symBinAddr: 0x1000088D0, symSize: 0x50 }
  - { offsetInCU: 0x18528, offset: 0x18528, size: 0x8, addend: 0x0, symName: __ZNKSt3__15dequeImNS_9allocatorImEEE13__front_spareB7v160006Ev, symObjAddr: 0x7960, symBinAddr: 0x100008920, symSize: 0x20 }
  - { offsetInCU: 0x1854E, offset: 0x1854E, size: 0x8, addend: 0x0, symName: __ZNSt3__114__split_bufferIPmNS_9allocatorIS1_EEE9push_backB7v160006ERKS1_, symObjAddr: 0x7980, symBinAddr: 0x100008940, symSize: 0x290 }
  - { offsetInCU: 0x185C6, offset: 0x185C6, size: 0x8, addend: 0x0, symName: __ZNKSt3__114__split_bufferIPmNS_9allocatorIS1_EEE12__back_spareB7v160006Ev, symObjAddr: 0x7C10, symBinAddr: 0x100008BD0, symSize: 0x40 }
  - { offsetInCU: 0x185EC, offset: 0x185EC, size: 0x8, addend: 0x0, symName: __ZNSt3__114__split_bufferIPmNS_9allocatorIS1_EEE9push_backEOS1_, symObjAddr: 0x7C50, symBinAddr: 0x100008C10, symSize: 0x290 }
  - { offsetInCU: 0x18664, offset: 0x18664, size: 0x8, addend: 0x0, symName: __ZNSt3__116allocator_traitsINS_9allocatorImEEE8allocateB7v160006ERS2_m, symObjAddr: 0x7EE0, symBinAddr: 0x100008EA0, symSize: 0x30 }
  - { offsetInCU: 0x18697, offset: 0x18697, size: 0x8, addend: 0x0, symName: __ZNSt3__114__split_bufferIPmNS_9allocatorIS1_EEE10push_frontEOS1_, symObjAddr: 0x7F10, symBinAddr: 0x100008ED0, symSize: 0x270 }
  - { offsetInCU: 0x1870F, offset: 0x1870F, size: 0x8, addend: 0x0, symName: __ZNSt3__114__split_bufferIPmRNS_9allocatorIS1_EEEC1EmmS4_, symObjAddr: 0x8180, symBinAddr: 0x100009140, symSize: 0x40 }
  - { offsetInCU: 0x1876B, offset: 0x1876B, size: 0x8, addend: 0x0, symName: __ZNSt3__122__allocator_destructorINS_9allocatorImEEEC1B7v160006ERS2_m, symObjAddr: 0x81C0, symBinAddr: 0x100009180, symSize: 0x30 }
  - { offsetInCU: 0x1882A, offset: 0x1882A, size: 0x8, addend: 0x0, symName: __ZNSt3__110unique_ptrIPmNS_22__allocator_destructorINS_9allocatorImEEEEEC1B7v160006ILb1EvEES1_NS_16__dependent_typeINS_27__unique_ptr_deleter_sfinaeIS5_EEXT_EE20__good_rval_ref_typeE, symObjAddr: 0x81F0, symBinAddr: 0x1000091B0, symSize: 0x30 }
  - { offsetInCU: 0x1887B, offset: 0x1887B, size: 0x8, addend: 0x0, symName: __ZNSt3__114__split_bufferIPmRNS_9allocatorIS1_EEE9push_backEOS1_, symObjAddr: 0x8220, symBinAddr: 0x1000091E0, symSize: 0x290 }
  - { offsetInCU: 0x188F3, offset: 0x188F3, size: 0x8, addend: 0x0, symName: __ZNKSt3__110unique_ptrIPmNS_22__allocator_destructorINS_9allocatorImEEEEE3getB7v160006Ev, symObjAddr: 0x84B0, symBinAddr: 0x100009470, symSize: 0x20 }
  - { offsetInCU: 0x18919, offset: 0x18919, size: 0x8, addend: 0x0, symName: __ZNSt3__110unique_ptrIPmNS_22__allocator_destructorINS_9allocatorImEEEEE7releaseB7v160006Ev, symObjAddr: 0x84D0, symBinAddr: 0x100009490, symSize: 0x40 }
  - { offsetInCU: 0x1894E, offset: 0x1894E, size: 0x8, addend: 0x0, symName: __ZNSt3__114__split_bufferIPmRNS_9allocatorIS1_EEE10push_frontERKS1_, symObjAddr: 0x8510, symBinAddr: 0x1000094D0, symSize: 0x270 }
  - { offsetInCU: 0x189C6, offset: 0x189C6, size: 0x8, addend: 0x0, symName: __ZNSt3__114__split_bufferIPmNS_9allocatorIS1_EEE9__end_capB7v160006Ev, symObjAddr: 0x87C0, symBinAddr: 0x100009780, symSize: 0x20 }
  - { offsetInCU: 0x189EC, offset: 0x189EC, size: 0x8, addend: 0x0, symName: __ZNSt3__114__split_bufferIPmRNS_9allocatorIS1_EEE9__end_capB7v160006Ev, symObjAddr: 0x87E0, symBinAddr: 0x1000097A0, symSize: 0x20 }
  - { offsetInCU: 0x18A12, offset: 0x18A12, size: 0x8, addend: 0x0, symName: __ZNSt3__110unique_ptrIPmNS_22__allocator_destructorINS_9allocatorImEEEEED1B7v160006Ev, symObjAddr: 0x8800, symBinAddr: 0x1000097C0, symSize: 0x20 }
  - { offsetInCU: 0x18A3C, offset: 0x18A3C, size: 0x8, addend: 0x0, symName: __ZNSt3__114__split_bufferIPmRNS_9allocatorIS1_EEED1Ev, symObjAddr: 0x8820, symBinAddr: 0x1000097E0, symSize: 0x20 }
  - { offsetInCU: 0x18A68, offset: 0x18A68, size: 0x8, addend: 0x0, symName: __ZNSt3__114__split_bufferIPmRNS_9allocatorIS1_EEE18__construct_at_endINS_13move_iteratorIPS1_EEEENS_9enable_ifIXsr27__is_cpp17_forward_iteratorIT_EE5valueEvE4typeESB_SB_, symObjAddr: 0x8880, symBinAddr: 0x100009840, symSize: 0x100 }
  - { offsetInCU: 0x18AC4, offset: 0x18AC4, size: 0x8, addend: 0x0, symName: __ZNSt3__113move_iteratorIPPmEC1B7v160006ES2_, symObjAddr: 0x8980, symBinAddr: 0x100009940, symSize: 0x30 }
  - { offsetInCU: 0x18AFC, offset: 0x18AFC, size: 0x8, addend: 0x0, symName: __ZNSt3__116allocator_traitsINS_9allocatorIPmEEE9constructB7v160006IS2_JRKS2_EvvEEvRS3_PT_DpOT0_, symObjAddr: 0x89B0, symBinAddr: 0x100009970, symSize: 0x30 }
  - { offsetInCU: 0x18B7E, offset: 0x18B7E, size: 0x8, addend: 0x0, symName: __ZNKSt3__114__move_trivialclB7v160006IPmS2_Li0EEENS_4pairIPT_PT0_EES5_S5_S7_, symObjAddr: 0x8B50, symBinAddr: 0x100009B10, symSize: 0x40 }
  - { offsetInCU: 0x18BE6, offset: 0x18BE6, size: 0x8, addend: 0x0, symName: __ZNSt3__119__unwrap_range_implIPPmS2_E8__unwrapB7v160006ES2_S2_, symObjAddr: 0x8C50, symBinAddr: 0x100009C10, symSize: 0x50 }
  - { offsetInCU: 0x18C1D, offset: 0x18C1D, size: 0x8, addend: 0x0, symName: __ZNSt3__14pairIPPmS2_EC1B7v160006IS2_S2_LPv0EEEOT_OT0_, symObjAddr: 0x8CA0, symBinAddr: 0x100009C60, symSize: 0x30 }
  - { offsetInCU: 0x18C7B, offset: 0x18C7B, size: 0x8, addend: 0x0, symName: __ZNSt3__14pairIPPmS2_EC2B7v160006IS2_S2_LPv0EEEOT_OT0_, symObjAddr: 0x8CD0, symBinAddr: 0x100009C90, symSize: 0x30 }
  - { offsetInCU: 0x18CD9, offset: 0x18CD9, size: 0x8, addend: 0x0, symName: __ZNSt3__14pairIPPmS2_EC1B7v160006IRS2_S2_LPv0EEEOT_OT0_, symObjAddr: 0x8DA0, symBinAddr: 0x100009D60, symSize: 0x30 }
  - { offsetInCU: 0x18D37, offset: 0x18D37, size: 0x8, addend: 0x0, symName: __ZNSt3__14pairIPPmS2_EC2B7v160006IRS2_S2_LPv0EEEOT_OT0_, symObjAddr: 0x8DD0, symBinAddr: 0x100009D90, symSize: 0x30 }
  - { offsetInCU: 0x18D95, offset: 0x18D95, size: 0x8, addend: 0x0, symName: __ZNSt3__118__unwrap_iter_implIPPmLb1EE8__unwrapB7v160006ES2_, symObjAddr: 0x8E00, symBinAddr: 0x100009DC0, symSize: 0x20 }
  - { offsetInCU: 0x18DB8, offset: 0x18DB8, size: 0x8, addend: 0x0, symName: __ZNSt3__119__unwrap_range_implIPPmS2_E8__rewrapB7v160006ES2_S2_, symObjAddr: 0x8E20, symBinAddr: 0x100009DE0, symSize: 0x30 }
  - { offsetInCU: 0x18DE9, offset: 0x18DE9, size: 0x8, addend: 0x0, symName: __ZNSt3__118__unwrap_iter_implIPPmLb1EE8__rewrapB7v160006ES2_S2_, symObjAddr: 0x8E50, symBinAddr: 0x100009E10, symSize: 0x50 }
  - { offsetInCU: 0x18E26, offset: 0x18E26, size: 0x8, addend: 0x0, symName: __ZNSt3__114__split_bufferIPmRNS_9allocatorIS1_EEE21_ConstructTransactionC1B7v160006EPPS1_m, symObjAddr: 0x8EE0, symBinAddr: 0x100009EA0, symSize: 0x30 }
  - { offsetInCU: 0x18E72, offset: 0x18E72, size: 0x8, addend: 0x0, symName: __ZNSt3__116allocator_traitsINS_9allocatorIPmEEE9constructB7v160006IS2_JS2_EvvEEvRS3_PT_DpOT0_, symObjAddr: 0x8F10, symBinAddr: 0x100009ED0, symSize: 0x30 }
  - { offsetInCU: 0x18EC6, offset: 0x18EC6, size: 0x8, addend: 0x0, symName: __ZNSt3__114__split_bufferIPmRNS_9allocatorIS1_EEE7__allocB7v160006Ev, symObjAddr: 0x8F40, symBinAddr: 0x100009F00, symSize: 0x20 }
  - { offsetInCU: 0x18EEC, offset: 0x18EEC, size: 0x8, addend: 0x0, symName: __ZNKSt3__113move_iteratorIPPmEdeB7v160006Ev, symObjAddr: 0x8F60, symBinAddr: 0x100009F20, symSize: 0x30 }
  - { offsetInCU: 0x18F12, offset: 0x18F12, size: 0x8, addend: 0x0, symName: __ZNSt3__113move_iteratorIPPmEppB7v160006Ev, symObjAddr: 0x8F90, symBinAddr: 0x100009F50, symSize: 0x20 }
  - { offsetInCU: 0x18F38, offset: 0x18F38, size: 0x8, addend: 0x0, symName: __ZNSt3__114__split_bufferIPmRNS_9allocatorIS1_EEE21_ConstructTransactionD1B7v160006Ev, symObjAddr: 0x8FB0, symBinAddr: 0x100009F70, symSize: 0x20 }
  - { offsetInCU: 0x18F62, offset: 0x18F62, size: 0x8, addend: 0x0, symName: __ZNKRSt3__113move_iteratorIPPmE4baseB7v160006Ev, symObjAddr: 0x9040, symBinAddr: 0x10000A000, symSize: 0x10 }
  - { offsetInCU: 0x18F88, offset: 0x18F88, size: 0x8, addend: 0x0, symName: __ZNSt3__114__split_bufferIPmRNS_9allocatorIS1_EEE21_ConstructTransactionC2B7v160006EPPS1_m, symObjAddr: 0x9050, symBinAddr: 0x10000A010, symSize: 0x40 }
  - { offsetInCU: 0x18FCE, offset: 0x18FCE, size: 0x8, addend: 0x0, symName: __ZNSt3__117__compressed_pairIPPmRNS_9allocatorIS1_EEE6secondB7v160006Ev, symObjAddr: 0x90C0, symBinAddr: 0x10000A080, symSize: 0x20 }
  - { offsetInCU: 0x18FF4, offset: 0x18FF4, size: 0x8, addend: 0x0, symName: __ZNSt3__122__compressed_pair_elemIRNS_9allocatorIPmEELi1ELb0EE5__getB7v160006Ev, symObjAddr: 0x90E0, symBinAddr: 0x10000A0A0, symSize: 0x20 }
  - { offsetInCU: 0x19020, offset: 0x19020, size: 0x8, addend: 0x0, symName: __ZNKSt3__16ranges11__iter_move4__fnclB7v160006IRKPPmEEDTclsr3stdE4movedeclsr3stdE7forwardIT_Efp_EEEOS8_, symObjAddr: 0x9100, symBinAddr: 0x10000A0C0, symSize: 0x20 }
  - { offsetInCU: 0x1905D, offset: 0x1905D, size: 0x8, addend: 0x0, symName: __ZNSt3__114__split_bufferIPmRNS_9allocatorIS1_EEE21_ConstructTransactionD2B7v160006Ev, symObjAddr: 0x9120, symBinAddr: 0x10000A0E0, symSize: 0x20 }
  - { offsetInCU: 0x19087, offset: 0x19087, size: 0x8, addend: 0x0, symName: __ZNSt3__113move_iteratorIPPmEC2B7v160006ES2_, symObjAddr: 0x9140, symBinAddr: 0x10000A100, symSize: 0x20 }
  - { offsetInCU: 0x190CA, offset: 0x190CA, size: 0x8, addend: 0x0, symName: __ZNKSt3__123__move_backward_trivialclB7v160006IPmS2_Li0EEENS_4pairIPT_PT0_EES5_S5_S7_, symObjAddr: 0x9300, symBinAddr: 0x10000A2C0, symSize: 0x40 }
  - { offsetInCU: 0x19132, offset: 0x19132, size: 0x8, addend: 0x0, symName: __ZNSt3__14pairIPPmS2_EC1B7v160006IRS2_S5_LPv0EEEOT_OT0_, symObjAddr: 0x93F0, symBinAddr: 0x10000A3B0, symSize: 0x30 }
  - { offsetInCU: 0x19190, offset: 0x19190, size: 0x8, addend: 0x0, symName: __ZNSt3__14pairIPPmS2_EC2B7v160006IRS2_S5_LPv0EEEOT_OT0_, symObjAddr: 0x9420, symBinAddr: 0x10000A3E0, symSize: 0x30 }
  - { offsetInCU: 0x191EE, offset: 0x191EE, size: 0x8, addend: 0x0, symName: __ZNSt3__114__split_bufferIPmRNS_9allocatorIS1_EEEC2EmmS4_, symObjAddr: 0x9450, symBinAddr: 0x10000A410, symSize: 0xD0 }
  - { offsetInCU: 0x19261, offset: 0x19261, size: 0x8, addend: 0x0, symName: __ZNSt3__117__compressed_pairIPPmRNS_9allocatorIS1_EEEC1B7v160006IDnS5_EEOT_OT0_, symObjAddr: 0x9520, symBinAddr: 0x10000A4E0, symSize: 0x30 }
  - { offsetInCU: 0x192B9, offset: 0x192B9, size: 0x8, addend: 0x0, symName: __ZNSt3__117__compressed_pairIPPmRNS_9allocatorIS1_EEEC2B7v160006IDnS5_EEOT_OT0_, symObjAddr: 0x9590, symBinAddr: 0x10000A550, symSize: 0x40 }
  - { offsetInCU: 0x19311, offset: 0x19311, size: 0x8, addend: 0x0, symName: __ZNSt3__122__compressed_pair_elemIRNS_9allocatorIPmEELi1ELb0EEC2B7v160006IS4_vEEOT_, symObjAddr: 0x95D0, symBinAddr: 0x10000A590, symSize: 0x20 }
  - { offsetInCU: 0x19353, offset: 0x19353, size: 0x8, addend: 0x0, symName: __ZNSt3__19allocatorIPmE17allocate_at_leastB7v160006Em, symObjAddr: 0x9630, symBinAddr: 0x10000A5F0, symSize: 0x40 }
  - { offsetInCU: 0x19387, offset: 0x19387, size: 0x8, addend: 0x0, symName: __ZNSt3__19allocatorIPmE8allocateB7v160006Em, symObjAddr: 0x9670, symBinAddr: 0x10000A630, symSize: 0x50 }
  - { offsetInCU: 0x193C6, offset: 0x193C6, size: 0x8, addend: 0x0, symName: __ZNSt3__116allocator_traitsINS_9allocatorIPmEEE8max_sizeB7v160006IS3_vvEEmRKS3_, symObjAddr: 0x96C0, symBinAddr: 0x10000A680, symSize: 0x20 }
  - { offsetInCU: 0x193F1, offset: 0x193F1, size: 0x8, addend: 0x0, symName: __ZNSt3__122__allocator_destructorINS_9allocatorImEEEC2B7v160006ERS2_m, symObjAddr: 0x96E0, symBinAddr: 0x10000A6A0, symSize: 0x30 }
  - { offsetInCU: 0x19437, offset: 0x19437, size: 0x8, addend: 0x0, symName: __ZNSt3__110unique_ptrIPmNS_22__allocator_destructorINS_9allocatorImEEEEEC2B7v160006ILb1EvEES1_NS_16__dependent_typeINS_27__unique_ptr_deleter_sfinaeIS5_EEXT_EE20__good_rval_ref_typeE, symObjAddr: 0x9710, symBinAddr: 0x10000A6D0, symSize: 0x40 }
  - { offsetInCU: 0x19488, offset: 0x19488, size: 0x8, addend: 0x0, symName: __ZNSt3__117__compressed_pairIPmNS_22__allocator_destructorINS_9allocatorImEEEEEC1B7v160006IRS1_S5_EEOT_OT0_, symObjAddr: 0x9750, symBinAddr: 0x10000A710, symSize: 0x30 }
  - { offsetInCU: 0x194E0, offset: 0x194E0, size: 0x8, addend: 0x0, symName: __ZNSt3__117__compressed_pairIPmNS_22__allocator_destructorINS_9allocatorImEEEEEC2B7v160006IRS1_S5_EEOT_OT0_, symObjAddr: 0x9780, symBinAddr: 0x10000A740, symSize: 0x40 }
  - { offsetInCU: 0x19538, offset: 0x19538, size: 0x8, addend: 0x0, symName: __ZNSt3__122__compressed_pair_elemIPmLi0ELb0EEC2B7v160006IRS1_vEEOT_, symObjAddr: 0x97C0, symBinAddr: 0x10000A780, symSize: 0x20 }
  - { offsetInCU: 0x1957A, offset: 0x1957A, size: 0x8, addend: 0x0, symName: __ZNSt3__122__compressed_pair_elemINS_22__allocator_destructorINS_9allocatorImEEEELi1ELb0EEC2B7v160006IS4_vEEOT_, symObjAddr: 0x97E0, symBinAddr: 0x10000A7A0, symSize: 0x30 }
  - { offsetInCU: 0x195BC, offset: 0x195BC, size: 0x8, addend: 0x0, symName: __ZNKSt3__117__compressed_pairIPmNS_22__allocator_destructorINS_9allocatorImEEEEE5firstB7v160006Ev, symObjAddr: 0x9810, symBinAddr: 0x10000A7D0, symSize: 0x20 }
  - { offsetInCU: 0x195E2, offset: 0x195E2, size: 0x8, addend: 0x0, symName: __ZNSt3__117__compressed_pairIPmNS_22__allocator_destructorINS_9allocatorImEEEEE5firstB7v160006Ev, symObjAddr: 0x9830, symBinAddr: 0x10000A7F0, symSize: 0x20 }
  - { offsetInCU: 0x19608, offset: 0x19608, size: 0x8, addend: 0x0, symName: __ZNSt3__117__compressed_pairIPPmNS_9allocatorIS1_EEE5firstB7v160006Ev, symObjAddr: 0x9850, symBinAddr: 0x10000A810, symSize: 0x20 }
  - { offsetInCU: 0x1962E, offset: 0x1962E, size: 0x8, addend: 0x0, symName: __ZNSt3__122__compressed_pair_elemIPPmLi0ELb0EE5__getB7v160006Ev, symObjAddr: 0x9870, symBinAddr: 0x10000A830, symSize: 0x10 }
  - { offsetInCU: 0x19654, offset: 0x19654, size: 0x8, addend: 0x0, symName: __ZNSt3__117__compressed_pairIPPmRNS_9allocatorIS1_EEE5firstB7v160006Ev, symObjAddr: 0x9880, symBinAddr: 0x10000A840, symSize: 0x20 }
  - { offsetInCU: 0x1967A, offset: 0x1967A, size: 0x8, addend: 0x0, symName: __ZNSt3__110unique_ptrIPmNS_22__allocator_destructorINS_9allocatorImEEEEED2B7v160006Ev, symObjAddr: 0x98A0, symBinAddr: 0x10000A860, symSize: 0x20 }
  - { offsetInCU: 0x196A4, offset: 0x196A4, size: 0x8, addend: 0x0, symName: __ZNSt3__110unique_ptrIPmNS_22__allocator_destructorINS_9allocatorImEEEEE5resetB7v160006ES1_, symObjAddr: 0x98C0, symBinAddr: 0x10000A880, symSize: 0x70 }
  - { offsetInCU: 0x196E8, offset: 0x196E8, size: 0x8, addend: 0x0, symName: __ZNSt3__117__compressed_pairIPmNS_22__allocator_destructorINS_9allocatorImEEEEE6secondB7v160006Ev, symObjAddr: 0x9930, symBinAddr: 0x10000A8F0, symSize: 0x20 }
  - { offsetInCU: 0x1970E, offset: 0x1970E, size: 0x8, addend: 0x0, symName: __ZNSt3__122__allocator_destructorINS_9allocatorImEEEclB7v160006EPm, symObjAddr: 0x9950, symBinAddr: 0x10000A910, symSize: 0x30 }
  - { offsetInCU: 0x19742, offset: 0x19742, size: 0x8, addend: 0x0, symName: __ZNSt3__122__compressed_pair_elemINS_22__allocator_destructorINS_9allocatorImEEEELi1ELb0EE5__getB7v160006Ev, symObjAddr: 0x9980, symBinAddr: 0x10000A940, symSize: 0x10 }
  - { offsetInCU: 0x19768, offset: 0x19768, size: 0x8, addend: 0x0, symName: __ZNSt3__114__split_bufferIPmRNS_9allocatorIS1_EEED2Ev, symObjAddr: 0x9990, symBinAddr: 0x10000A950, symSize: 0x70 }
  - { offsetInCU: 0x19794, offset: 0x19794, size: 0x8, addend: 0x0, symName: __ZNSt3__114__split_bufferIPmRNS_9allocatorIS1_EEE5clearB7v160006Ev, symObjAddr: 0x9A00, symBinAddr: 0x10000A9C0, symSize: 0x20 }
  - { offsetInCU: 0x197BA, offset: 0x197BA, size: 0x8, addend: 0x0, symName: __ZNKSt3__114__split_bufferIPmRNS_9allocatorIS1_EEE8capacityB7v160006Ev, symObjAddr: 0x9A20, symBinAddr: 0x10000A9E0, symSize: 0x30 }
  - { offsetInCU: 0x197E0, offset: 0x197E0, size: 0x8, addend: 0x0, symName: __ZNSt3__114__split_bufferIPmRNS_9allocatorIS1_EEE17__destruct_at_endB7v160006EPS1_, symObjAddr: 0x9A50, symBinAddr: 0x10000AA10, symSize: 0x30 }
  - { offsetInCU: 0x19814, offset: 0x19814, size: 0x8, addend: 0x0, symName: __ZNSt3__114__split_bufferIPmRNS_9allocatorIS1_EEE17__destruct_at_endB7v160006EPS1_NS_17integral_constantIbLb0EEE, symObjAddr: 0x9A80, symBinAddr: 0x10000AA40, symSize: 0x80 }
  - { offsetInCU: 0x19854, offset: 0x19854, size: 0x8, addend: 0x0, symName: __ZNKSt3__114__split_bufferIPmRNS_9allocatorIS1_EEE9__end_capB7v160006Ev, symObjAddr: 0x9B00, symBinAddr: 0x10000AAC0, symSize: 0x20 }
  - { offsetInCU: 0x1987A, offset: 0x1987A, size: 0x8, addend: 0x0, symName: __ZNKSt3__117__compressed_pairIPPmRNS_9allocatorIS1_EEE5firstB7v160006Ev, symObjAddr: 0x9B20, symBinAddr: 0x10000AAE0, symSize: 0x20 }
  - { offsetInCU: 0x198A0, offset: 0x198A0, size: 0x8, addend: 0x0, symName: __ZNKSt3__15dequeImNS_9allocatorImEEE5emptyB7v160006Ev, symObjAddr: 0x9B40, symBinAddr: 0x10000AB00, symSize: 0x30 }
  - { offsetInCU: 0x198C6, offset: 0x198C6, size: 0x8, addend: 0x0, symName: __ZNSt3__15dequeImNS_9allocatorImEEE4backEv, symObjAddr: 0x9B70, symBinAddr: 0x10000AB30, symSize: 0x60 }
  - { offsetInCU: 0x198FD, offset: 0x198FD, size: 0x8, addend: 0x0, symName: __ZNSt3__15dequeImNS_9allocatorImEEE8pop_backEv, symObjAddr: 0x9BD0, symBinAddr: 0x10000AB90, symSize: 0xA0 }
  - { offsetInCU: 0x19943, offset: 0x19943, size: 0x8, addend: 0x0, symName: __ZNSt3__15dequeImNS_9allocatorImEEE25__maybe_remove_back_spareB7v160006Eb, symObjAddr: 0x9C70, symBinAddr: 0x10000AC30, symSize: 0xA0 }
  - { offsetInCU: 0x19978, offset: 0x19978, size: 0x8, addend: 0x0, symName: __ZNKSt3__15dequeImNS_9allocatorImEEE19__back_spare_blocksB7v160006Ev, symObjAddr: 0x9D10, symBinAddr: 0x10000ACD0, symSize: 0x20 }
  - { offsetInCU: 0x1999E, offset: 0x1999E, size: 0x8, addend: 0x0, symName: __ZNSt3__114__split_bufferIPmNS_9allocatorIS1_EEE4backB7v160006Ev, symObjAddr: 0x9D30, symBinAddr: 0x10000ACF0, symSize: 0x20 }
  - { offsetInCU: 0x199C4, offset: 0x199C4, size: 0x8, addend: 0x0, symName: __ZNSt3__114__split_bufferIPmNS_9allocatorIS1_EEE8pop_backB7v160006Ev, symObjAddr: 0x9D50, symBinAddr: 0x10000AD10, symSize: 0x30 }
  - { offsetInCU: 0x199EA, offset: 0x199EA, size: 0x8, addend: 0x0, symName: __ZNSt3__111char_traitsIcE6lengthEPKc, symObjAddr: 0x9F70, symBinAddr: 0x10000AF30, symSize: 0x30 }
  - { offsetInCU: 0x19A30, offset: 0x19A30, size: 0x8, addend: 0x0, symName: __ZNKSt3__113basic_ostreamIcNS_11char_traitsIcEEE6sentrycvbB7v160006Ev, symObjAddr: 0x9FA0, symBinAddr: 0x10000AF60, symSize: 0x20 }
  - { offsetInCU: 0x19A56, offset: 0x19A56, size: 0x8, addend: 0x0, symName: __ZNSt3__119ostreambuf_iteratorIcNS_11char_traitsIcEEEC1B7v160006ERNS_13basic_ostreamIcS2_EE, symObjAddr: 0xA1E0, symBinAddr: 0x10000B1A0, symSize: 0x30 }
  - { offsetInCU: 0x19A8E, offset: 0x19A8E, size: 0x8, addend: 0x0, symName: __ZNKSt3__18ios_base5flagsB7v160006Ev, symObjAddr: 0xA210, symBinAddr: 0x10000B1D0, symSize: 0x20 }
  - { offsetInCU: 0x19AB6, offset: 0x19AB6, size: 0x8, addend: 0x0, symName: __ZNKSt3__19basic_iosIcNS_11char_traitsIcEEE4fillB7v160006Ev, symObjAddr: 0xA230, symBinAddr: 0x10000B1F0, symSize: 0x70 }
  - { offsetInCU: 0x19ADE, offset: 0x19ADE, size: 0x8, addend: 0x0, symName: __ZNKSt3__119ostreambuf_iteratorIcNS_11char_traitsIcEEE6failedB7v160006Ev, symObjAddr: 0xA2A0, symBinAddr: 0x10000B260, symSize: 0x20 }
  - { offsetInCU: 0x19B04, offset: 0x19B04, size: 0x8, addend: 0x0, symName: __ZNSt3__115basic_streambufIcNS_11char_traitsIcEEE5sputnB7v160006EPKcl, symObjAddr: 0xA2C0, symBinAddr: 0x10000B280, symSize: 0x30 }
  - { offsetInCU: 0x19B46, offset: 0x19B46, size: 0x8, addend: 0x0, symName: __ZNSt3__112basic_stringIcNS_11char_traitsIcEENS_9allocatorIcEEEC1B7v160006Emc, symObjAddr: 0xA2F0, symBinAddr: 0x10000B2B0, symSize: 0x30 }
  - { offsetInCU: 0x19B8E, offset: 0x19B8E, size: 0x8, addend: 0x0, symName: __ZNSt3__112basic_stringIcNS_11char_traitsIcEENS_9allocatorIcEEE4dataB7v160006Ev, symObjAddr: 0xA320, symBinAddr: 0x10000B2E0, symSize: 0x30 }
  - { offsetInCU: 0x19BB4, offset: 0x19BB4, size: 0x8, addend: 0x0, symName: __ZNSt3__112basic_stringIcNS_11char_traitsIcEENS_9allocatorIcEEEC2B7v160006Emc, symObjAddr: 0xA350, symBinAddr: 0x10000B310, symSize: 0x50 }
  - { offsetInCU: 0x19BFC, offset: 0x19BFC, size: 0x8, addend: 0x0, symName: __ZNSt3__112basic_stringIcNS_11char_traitsIcEENS_9allocatorIcEEE13__get_pointerB7v160006Ev, symObjAddr: 0xA3B0, symBinAddr: 0x10000B370, symSize: 0x50 }
  - { offsetInCU: 0x19C22, offset: 0x19C22, size: 0x8, addend: 0x0, symName: __ZNSt3__119ostreambuf_iteratorIcNS_11char_traitsIcEEEC2B7v160006ERNS_13basic_ostreamIcS2_EE, symObjAddr: 0xA400, symBinAddr: 0x10000B3C0, symSize: 0x50 }
  - { offsetInCU: 0x19C5A, offset: 0x19C5A, size: 0x8, addend: 0x0, symName: __ZNKSt3__19basic_iosIcNS_11char_traitsIcEEE5widenB7v160006Ec, symObjAddr: 0xA450, symBinAddr: 0x10000B410, symSize: 0x80 }
  - { offsetInCU: 0x19C91, offset: 0x19C91, size: 0x8, addend: 0x0, symName: __ZNKSt3__15ctypeIcE5widenB7v160006Ec, symObjAddr: 0xA4D0, symBinAddr: 0x10000B490, symSize: 0x30 }
...
