---
triple:          'x86_64-apple-darwin'
binary-path:     '/Users/dmitrii/Documents/cpp-experiments/Algorhitms/7th_Sprint/Binaries/ladder'
relocations:
  - { offsetInCU: 0x4452, offset: 0x4452, size: 0x8, addend: 0x0, symName: __ZNSt3__124__put_character_sequenceB7v160006IcNS_11char_traitsIcEEEERNS_13basic_ostreamIT_T0_EES7_PKS4_m, symObjAddr: 0x18D0, symBinAddr: 0x100003220, symSize: 0x1F0 }
  - { offsetInCU: 0x61CD, offset: 0x61CD, size: 0x8, addend: 0x0, symName: __ZNSt3__14fillB7v160006INS_11__wrap_iterIPmEEiEEvT_S4_RKT0_, symObjAddr: 0x2C0, symBinAddr: 0x100001C10, symSize: 0x40 }
  - { offsetInCU: 0x6223, offset: 0x6223, size: 0x8, addend: 0x0, symName: __ZNSt3__1neB7v160006IPmEEbRKNS_11__wrap_iterIT_EES6_, symObjAddr: 0x390, symBinAddr: 0x100001CE0, symSize: 0x30 }
  - { offsetInCU: 0x6266, offset: 0x6266, size: 0x8, addend: 0x0, symName: '__ZNSt3__110accumulateB7v160006INS_11__wrap_iterIPmEEiZ8WayCountiiE3$_0EET0_T_S6_S5_T1_', symObjAddr: 0x3F0, symBinAddr: 0x100001D40, symSize: 0x70 }
  - { offsetInCU: 0x62D7, offset: 0x62D7, size: 0x8, addend: 0x0, symName: __ZNSt3__1lsB7v160006INS_11char_traitsIcEEEERNS_13basic_ostreamIcT_EES6_c, symObjAddr: 0x4B0, symBinAddr: 0x100001E00, symSize: 0x30 }
  - { offsetInCU: 0x631D, offset: 0x631D, size: 0x8, addend: 0x0, symName: __ZNSt3__1lsB7v160006INS_11char_traitsIcEEEERNS_13basic_ostreamIcT_EES6_PKc, symObjAddr: 0x4E0, symBinAddr: 0x100001E30, symSize: 0x40 }
  - { offsetInCU: 0x6363, offset: 0x6363, size: 0x8, addend: 0x0, symName: __ZNSt3__1miB7v160006IPmS1_EEDTmicldtfp_4baseEcldtfp0_4baseEERKNS_11__wrap_iterIT_EERKNS3_IT0_EE, symObjAddr: 0x520, symBinAddr: 0x100001E70, symSize: 0x40 }
  - { offsetInCU: 0x63AF, offset: 0x63AF, size: 0x8, addend: 0x0, symName: __ZNSt3__122__make_exception_guardB7v160006INS_6vectorImNS_9allocatorImEEE16__destroy_vectorEEENS_28__exception_guard_exceptionsIT_EES7_, symObjAddr: 0x700, symBinAddr: 0x100002050, symSize: 0x40 }
  - { offsetInCU: 0x63E4, offset: 0x63E4, size: 0x8, addend: 0x0, symName: __ZNSt3__119__debug_db_insert_cB7v160006INS_6vectorImNS_9allocatorImEEEEEEvPT_, symObjAddr: 0x770, symBinAddr: 0x1000020C0, symSize: 0x10 }
  - { offsetInCU: 0x6415, offset: 0x6415, size: 0x8, addend: 0x0, symName: __ZNSt3__119__allocate_at_leastB7v160006INS_9allocatorImEEEEDaRT_m, symObjAddr: 0xAC0, symBinAddr: 0x100002410, symSize: 0x40 }
  - { offsetInCU: 0x6458, offset: 0x6458, size: 0x8, addend: 0x0, symName: __ZNSt3__13minB7v160006ImEERKT_S3_S3_, symObjAddr: 0xBF0, symBinAddr: 0x100002540, symSize: 0x30 }
  - { offsetInCU: 0x6685, offset: 0x6685, size: 0x8, addend: 0x0, symName: __ZNSt3__13minB7v160006ImNS_6__lessImmEEEERKT_S5_S5_T0_, symObjAddr: 0xC80, symBinAddr: 0x1000025D0, symSize: 0x50 }
  - { offsetInCU: 0x6906, offset: 0x6906, size: 0x8, addend: 0x0, symName: __ZNSt3__120__throw_length_errorB7v160006EPKc, symObjAddr: 0xD60, symBinAddr: 0x1000026B0, symSize: 0x70 }
  - { offsetInCU: 0x692E, offset: 0x692E, size: 0x8, addend: 0x0, symName: __ZNSt3__117allocate_at_leastB7v160006INS_9allocatorImEEEENS_17allocation_resultINS_16allocator_traitsIT_E7pointerEEERS5_m, symObjAddr: 0xE40, symBinAddr: 0x100002790, symSize: 0x40 }
  - { offsetInCU: 0x6971, offset: 0x6971, size: 0x8, addend: 0x0, symName: __ZNSt3__117__libcpp_allocateB7v160006Emm, symObjAddr: 0xF50, symBinAddr: 0x1000028A0, symSize: 0x60 }
  - { offsetInCU: 0x69CB, offset: 0x69CB, size: 0x8, addend: 0x0, symName: __ZNSt3__124__is_overaligned_for_newB7v160006Em, symObjAddr: 0xFB0, symBinAddr: 0x100002900, symSize: 0x20 }
  - { offsetInCU: 0x69F9, offset: 0x69F9, size: 0x8, addend: 0x0, symName: __ZNSt3__121__libcpp_operator_newB7v160006IJmSt11align_val_tEEEPvDpT_, symObjAddr: 0xFD0, symBinAddr: 0x100002920, symSize: 0x30 }
  - { offsetInCU: 0x6A46, offset: 0x6A46, size: 0x8, addend: 0x0, symName: __ZNSt3__121__libcpp_operator_newB7v160006IJmEEEPvDpT_, symObjAddr: 0x1000, symBinAddr: 0x100002950, symSize: 0x20 }
  - { offsetInCU: 0x6A7F, offset: 0x6A7F, size: 0x8, addend: 0x0, symName: __ZNSt3__112__to_addressB7v160006ImEEPT_S2_, symObjAddr: 0x10F0, symBinAddr: 0x100002A40, symSize: 0x10 }
  - { offsetInCU: 0x6AD9, offset: 0x6AD9, size: 0x8, addend: 0x0, symName: __ZNSt3__112construct_atB7v160006ImJEPmEEPT_S3_DpOT0_, symObjAddr: 0x1200, symBinAddr: 0x100002B50, symSize: 0x20 }
  - { offsetInCU: 0x6B35, offset: 0x6B35, size: 0x8, addend: 0x0, symName: __ZNSt3__118__debug_db_erase_cB7v160006INS_6vectorImNS_9allocatorImEEEEEEvPT_, symObjAddr: 0x13C0, symBinAddr: 0x100002D10, symSize: 0x10 }
  - { offsetInCU: 0x6B66, offset: 0x6B66, size: 0x8, addend: 0x0, symName: __ZNSt3__110destroy_atB7v160006ImLi0EEEvPT_, symObjAddr: 0x14E0, symBinAddr: 0x100002E30, symSize: 0x20 }
  - { offsetInCU: 0x6B9D, offset: 0x6B9D, size: 0x8, addend: 0x0, symName: __ZNSt3__112__destroy_atB7v160006ImLi0EEEvPT_, symObjAddr: 0x1500, symBinAddr: 0x100002E50, symSize: 0x10 }
  - { offsetInCU: 0x6BD4, offset: 0x6BD4, size: 0x8, addend: 0x0, symName: __ZNSt3__119__libcpp_deallocateB7v160006EPvmm, symObjAddr: 0x1550, symBinAddr: 0x100002EA0, symSize: 0x60 }
  - { offsetInCU: 0x6C39, offset: 0x6C39, size: 0x8, addend: 0x0, symName: __ZNSt3__127__do_deallocate_handle_sizeB7v160006IJSt11align_val_tEEEvPvmDpT_, symObjAddr: 0x15B0, symBinAddr: 0x100002F00, symSize: 0x30 }
  - { offsetInCU: 0x6C8C, offset: 0x6C8C, size: 0x8, addend: 0x0, symName: __ZNSt3__127__do_deallocate_handle_sizeB7v160006IJEEEvPvmDpT_, symObjAddr: 0x15E0, symBinAddr: 0x100002F30, symSize: 0x20 }
  - { offsetInCU: 0x6CCA, offset: 0x6CCA, size: 0x8, addend: 0x0, symName: __ZNSt3__124__libcpp_operator_deleteB7v160006IJPvSt11align_val_tEEEvDpT_, symObjAddr: 0x1600, symBinAddr: 0x100002F50, symSize: 0x30 }
  - { offsetInCU: 0x6D13, offset: 0x6D13, size: 0x8, addend: 0x0, symName: __ZNSt3__124__libcpp_operator_deleteB7v160006IJPvEEEvDpT_, symObjAddr: 0x1630, symBinAddr: 0x100002F80, symSize: 0x20 }
  - { offsetInCU: 0x6D48, offset: 0x6D48, size: 0x8, addend: 0x0, symName: __ZNSt3__16__fillB7v160006INS_11__wrap_iterIPmEEiEEvT_S4_RKT0_NS_26random_access_iterator_tagE, symObjAddr: 0x1650, symBinAddr: 0x100002FA0, symSize: 0x50 }
  - { offsetInCU: 0x6DA8, offset: 0x6DA8, size: 0x8, addend: 0x0, symName: __ZNSt3__16fill_nB7v160006INS_11__wrap_iterIPmEEliEET_S4_T0_RKT1_, symObjAddr: 0x16A0, symBinAddr: 0x100002FF0, symSize: 0x50 }
  - { offsetInCU: 0x6E0B, offset: 0x6E0B, size: 0x8, addend: 0x0, symName: __ZNSt3__18__fill_nB7v160006INS_11__wrap_iterIPmEEliEET_S4_T0_RKT1_, symObjAddr: 0x16F0, symBinAddr: 0x100003040, symSize: 0x70 }
  - { offsetInCU: 0x6E6E, offset: 0x6E6E, size: 0x8, addend: 0x0, symName: __ZNSt3__121__convert_to_integralB7v160006El, symObjAddr: 0x1760, symBinAddr: 0x1000030B0, symSize: 0x10 }
  - { offsetInCU: 0x6E9A, offset: 0x6E9A, size: 0x8, addend: 0x0, symName: __ZNSt3__1eqB7v160006IPmEEbRKNS_11__wrap_iterIT_EES6_, symObjAddr: 0x1810, symBinAddr: 0x100003160, symSize: 0x40 }
  - { offsetInCU: 0x6EDD, offset: 0x6EDD, size: 0x8, addend: 0x0, symName: __ZNSt3__116__pad_and_outputB7v160006IcNS_11char_traitsIcEEEENS_19ostreambuf_iteratorIT_T0_EES6_PKS4_S8_S8_RNS_8ios_baseES4_, symObjAddr: 0x1B10, symBinAddr: 0x100003460, symSize: 0x220 }
  - { offsetInCU: 0x6FAD, offset: 0x6FAD, size: 0x8, addend: 0x0, symName: __ZNSt3__119__debug_db_insert_cB7v160006INS_12basic_stringIcNS_11char_traitsIcEENS_9allocatorIcEEEEEEvPT_, symObjAddr: 0x1FA0, symBinAddr: 0x1000038F0, symSize: 0x10 }
  - { offsetInCU: 0x6FDE, offset: 0x6FDE, size: 0x8, addend: 0x0, symName: __ZNSt3__112__to_addressB7v160006IcEEPT_S2_, symObjAddr: 0x2040, symBinAddr: 0x100003990, symSize: 0x10 }
  - { offsetInCU: 0x7013, offset: 0x7013, size: 0x8, addend: 0x0, symName: __ZNSt3__19use_facetB7v160006INS_5ctypeIcEEEERKT_RKNS_6localeE, symObjAddr: 0x22D0, symBinAddr: 0x100003C20, symSize: 0x30 }
  - { offsetInCU: 0x74E2, offset: 0x74E2, size: 0x8, addend: 0x0, symName: __ZNSt3__118__constexpr_strlenB7v160006EPKc, symObjAddr: 0x2360, symBinAddr: 0x100003CB0, symSize: 0x1B }
  - { offsetInCU: 0x77F2, offset: 0x77F2, size: 0x8, addend: 0x0, symName: __ZSt28__throw_bad_array_new_lengthB7v160006v, symObjAddr: 0xF10, symBinAddr: 0x100002860, symSize: 0x40 }
  - { offsetInCU: 0x9F81, offset: 0x9F81, size: 0x8, addend: 0x0, symName: __Z8WayCountii, symObjAddr: 0x0, symBinAddr: 0x100001950, symSize: 0x290 }
  - { offsetInCU: 0xA01F, offset: 0xA01F, size: 0x8, addend: 0x0, symName: __ZNSt3__16vectorImNS_9allocatorImEEEC1Em, symObjAddr: 0x290, symBinAddr: 0x100001BE0, symSize: 0x30 }
  - { offsetInCU: 0xA05A, offset: 0xA05A, size: 0x8, addend: 0x0, symName: __ZNSt3__16vectorImNS_9allocatorImEEE5beginB7v160006Ev, symObjAddr: 0x300, symBinAddr: 0x100001C50, symSize: 0x30 }
  - { offsetInCU: 0xA082, offset: 0xA082, size: 0x8, addend: 0x0, symName: __ZNKSt3__111__wrap_iterIPmEplB7v160006El, symObjAddr: 0x330, symBinAddr: 0x100001C80, symSize: 0x40 }
  - { offsetInCU: 0xA0C5, offset: 0xA0C5, size: 0x8, addend: 0x0, symName: __ZNSt3__16vectorImNS_9allocatorImEEEixB7v160006Em, symObjAddr: 0x370, symBinAddr: 0x100001CC0, symSize: 0x20 }
  - { offsetInCU: 0xA0FC, offset: 0xA0FC, size: 0x8, addend: 0x0, symName: __ZNSt3__16vectorImNS_9allocatorImEEE3endB7v160006Ev, symObjAddr: 0x3C0, symBinAddr: 0x100001D10, symSize: 0x30 }
  - { offsetInCU: 0xA124, offset: 0xA124, size: 0x8, addend: 0x0, symName: __ZNKSt3__111__wrap_iterIPmEmiB7v160006El, symObjAddr: 0x460, symBinAddr: 0x100001DB0, symSize: 0x30 }
  - { offsetInCU: 0xA158, offset: 0xA158, size: 0x8, addend: 0x0, symName: __ZNKSt3__111__wrap_iterIPmEdeB7v160006Ev, symObjAddr: 0x490, symBinAddr: 0x100001DE0, symSize: 0x20 }
  - { offsetInCU: 0xA17E, offset: 0xA17E, size: 0x8, addend: 0x0, symName: __ZNSt3__111__wrap_iterIPmEppB7v160006Ev, symObjAddr: 0x560, symBinAddr: 0x100001EB0, symSize: 0x20 }
  - { offsetInCU: 0xA1A4, offset: 0xA1A4, size: 0x8, addend: 0x0, symName: __ZNSt3__16vectorImNS_9allocatorImEEED1B7v160006Ev, symObjAddr: 0x580, symBinAddr: 0x100001ED0, symSize: 0x20 }
  - { offsetInCU: 0xA1CE, offset: 0xA1CE, size: 0x8, addend: 0x0, symName: _main, symObjAddr: 0x5A0, symBinAddr: 0x100001EF0, symSize: 0x50 }
  - { offsetInCU: 0xA207, offset: 0xA207, size: 0x8, addend: 0x0, symName: __ZNSt3__16vectorImNS_9allocatorImEEEC2Em, symObjAddr: 0x5F0, symBinAddr: 0x100001F40, symSize: 0xE0 }
  - { offsetInCU: 0xA261, offset: 0xA261, size: 0x8, addend: 0x0, symName: __ZNSt3__117__compressed_pairIPmNS_9allocatorImEEEC1B7v160006IDnNS_18__default_init_tagEEEOT_OT0_, symObjAddr: 0x6D0, symBinAddr: 0x100002020, symSize: 0x30 }
  - { offsetInCU: 0xA2B9, offset: 0xA2B9, size: 0x8, addend: 0x0, symName: __ZNSt3__16vectorImNS_9allocatorImEEE16__destroy_vectorC1ERS3_, symObjAddr: 0x740, symBinAddr: 0x100002090, symSize: 0x30 }
  - { offsetInCU: 0xA2F2, offset: 0xA2F2, size: 0x8, addend: 0x0, symName: __ZNSt3__16vectorImNS_9allocatorImEEE11__vallocateB7v160006Em, symObjAddr: 0x780, symBinAddr: 0x1000020D0, symSize: 0xA0 }
  - { offsetInCU: 0xA336, offset: 0xA336, size: 0x8, addend: 0x0, symName: __ZNSt3__16vectorImNS_9allocatorImEEE18__construct_at_endEm, symObjAddr: 0x820, symBinAddr: 0x100002170, symSize: 0xC0 }
  - { offsetInCU: 0xA3A8, offset: 0xA3A8, size: 0x8, addend: 0x0, symName: __ZNSt3__128__exception_guard_exceptionsINS_6vectorImNS_9allocatorImEEE16__destroy_vectorEE10__completeB7v160006Ev, symObjAddr: 0x8E0, symBinAddr: 0x100002230, symSize: 0x20 }
  - { offsetInCU: 0xA3CE, offset: 0xA3CE, size: 0x8, addend: 0x0, symName: __ZNSt3__128__exception_guard_exceptionsINS_6vectorImNS_9allocatorImEEE16__destroy_vectorEED1B7v160006Ev, symObjAddr: 0x900, symBinAddr: 0x100002250, symSize: 0x20 }
  - { offsetInCU: 0xA3F8, offset: 0xA3F8, size: 0x8, addend: 0x0, symName: __ZNSt3__117__compressed_pairIPmNS_9allocatorImEEEC2B7v160006IDnNS_18__default_init_tagEEEOT_OT0_, symObjAddr: 0x920, symBinAddr: 0x100002270, symSize: 0x40 }
  - { offsetInCU: 0xA450, offset: 0xA450, size: 0x8, addend: 0x0, symName: __ZNSt3__122__compressed_pair_elemIPmLi0ELb0EEC2B7v160006IDnvEEOT_, symObjAddr: 0x960, symBinAddr: 0x1000022B0, symSize: 0x20 }
  - { offsetInCU: 0xA492, offset: 0xA492, size: 0x8, addend: 0x0, symName: __ZNSt3__122__compressed_pair_elemINS_9allocatorImEELi1ELb1EEC2B7v160006ENS_18__default_init_tagE, symObjAddr: 0x980, symBinAddr: 0x1000022D0, symSize: 0x20 }
  - { offsetInCU: 0xA4C6, offset: 0xA4C6, size: 0x8, addend: 0x0, symName: __ZNSt3__19allocatorImEC2B7v160006Ev, symObjAddr: 0x9A0, symBinAddr: 0x1000022F0, symSize: 0x20 }
  - { offsetInCU: 0xA4F0, offset: 0xA4F0, size: 0x8, addend: 0x0, symName: __ZNSt3__116__non_trivial_ifILb1ENS_9allocatorImEEEC2B7v160006Ev, symObjAddr: 0x9C0, symBinAddr: 0x100002310, symSize: 0x10 }
  - { offsetInCU: 0xA51A, offset: 0xA51A, size: 0x8, addend: 0x0, symName: __ZNSt3__128__exception_guard_exceptionsINS_6vectorImNS_9allocatorImEEE16__destroy_vectorEEC1B7v160006ES5_, symObjAddr: 0x9D0, symBinAddr: 0x100002320, symSize: 0x30 }
  - { offsetInCU: 0xA552, offset: 0xA552, size: 0x8, addend: 0x0, symName: __ZNSt3__128__exception_guard_exceptionsINS_6vectorImNS_9allocatorImEEE16__destroy_vectorEEC2B7v160006ES5_, symObjAddr: 0xA00, symBinAddr: 0x100002350, symSize: 0x20 }
  - { offsetInCU: 0xA58A, offset: 0xA58A, size: 0x8, addend: 0x0, symName: __ZNSt3__16vectorImNS_9allocatorImEEE16__destroy_vectorC2ERS3_, symObjAddr: 0xA20, symBinAddr: 0x100002370, symSize: 0x20 }
  - { offsetInCU: 0xA5C3, offset: 0xA5C3, size: 0x8, addend: 0x0, symName: __ZNKSt3__16vectorImNS_9allocatorImEEE8max_sizeEv, symObjAddr: 0xA40, symBinAddr: 0x100002390, symSize: 0x60 }
  - { offsetInCU: 0xA5EB, offset: 0xA5EB, size: 0x8, addend: 0x0, symName: __ZNKSt3__16vectorImNS_9allocatorImEEE20__throw_length_errorB7v160006Ev, symObjAddr: 0xAA0, symBinAddr: 0x1000023F0, symSize: 0x20 }
  - { offsetInCU: 0xA611, offset: 0xA611, size: 0x8, addend: 0x0, symName: __ZNSt3__16vectorImNS_9allocatorImEEE7__allocB7v160006Ev, symObjAddr: 0xB00, symBinAddr: 0x100002450, symSize: 0x20 }
  - { offsetInCU: 0xA637, offset: 0xA637, size: 0x8, addend: 0x0, symName: __ZNSt3__16vectorImNS_9allocatorImEEE9__end_capB7v160006Ev, symObjAddr: 0xB20, symBinAddr: 0x100002470, symSize: 0x20 }
  - { offsetInCU: 0xA65D, offset: 0xA65D, size: 0x8, addend: 0x0, symName: __ZNKSt3__16vectorImNS_9allocatorImEEE14__annotate_newB7v160006Em, symObjAddr: 0xB40, symBinAddr: 0x100002490, symSize: 0xB0 }
  - { offsetInCU: 0xA69C, offset: 0xA69C, size: 0x8, addend: 0x0, symName: __ZNSt3__116allocator_traitsINS_9allocatorImEEE8max_sizeB7v160006IS2_vvEEmRKS2_, symObjAddr: 0xC20, symBinAddr: 0x100002570, symSize: 0x20 }
  - { offsetInCU: 0xA6C8, offset: 0xA6C8, size: 0x8, addend: 0x0, symName: __ZNKSt3__16vectorImNS_9allocatorImEEE7__allocB7v160006Ev, symObjAddr: 0xC40, symBinAddr: 0x100002590, symSize: 0x20 }
  - { offsetInCU: 0xA6EE, offset: 0xA6EE, size: 0x8, addend: 0x0, symName: __ZNSt3__114numeric_limitsIlE3maxB7v160006Ev, symObjAddr: 0xC60, symBinAddr: 0x1000025B0, symSize: 0x10 }
  - { offsetInCU: 0xA711, offset: 0xA711, size: 0x8, addend: 0x0, symName: __ZNKSt3__16__lessImmEclB7v160006ERKmS3_, symObjAddr: 0xCD0, symBinAddr: 0x100002620, symSize: 0x30 }
  - { offsetInCU: 0xA753, offset: 0xA753, size: 0x8, addend: 0x0, symName: __ZNSt3__114numeric_limitsImE3maxB7v160006Ev, symObjAddr: 0xD00, symBinAddr: 0x100002650, symSize: 0x10 }
  - { offsetInCU: 0xA767, offset: 0xA767, size: 0x8, addend: 0x0, symName: __ZNSt3__123__libcpp_numeric_limitsImLb1EE3maxB7v160006Ev, symObjAddr: 0xD10, symBinAddr: 0x100002660, symSize: 0x10 }
  - { offsetInCU: 0xA77B, offset: 0xA77B, size: 0x8, addend: 0x0, symName: __ZNKSt3__117__compressed_pairIPmNS_9allocatorImEEE6secondB7v160006Ev, symObjAddr: 0xD20, symBinAddr: 0x100002670, symSize: 0x20 }
  - { offsetInCU: 0xA7A1, offset: 0xA7A1, size: 0x8, addend: 0x0, symName: __ZNKSt3__122__compressed_pair_elemINS_9allocatorImEELi1ELb1EE5__getB7v160006Ev, symObjAddr: 0xD40, symBinAddr: 0x100002690, symSize: 0x10 }
  - { offsetInCU: 0xA7C7, offset: 0xA7C7, size: 0x8, addend: 0x0, symName: __ZNSt3__123__libcpp_numeric_limitsIlLb1EE3maxB7v160006Ev, symObjAddr: 0xD50, symBinAddr: 0x1000026A0, symSize: 0x10 }
  - { offsetInCU: 0xA7DB, offset: 0xA7DB, size: 0x8, addend: 0x0, symName: __ZNSt12length_errorC1B7v160006EPKc, symObjAddr: 0xDD0, symBinAddr: 0x100002720, symSize: 0x30 }
  - { offsetInCU: 0xA813, offset: 0xA813, size: 0x8, addend: 0x0, symName: __ZNSt12length_errorC2B7v160006EPKc, symObjAddr: 0xE00, symBinAddr: 0x100002750, symSize: 0x40 }
  - { offsetInCU: 0xA84B, offset: 0xA84B, size: 0x8, addend: 0x0, symName: __ZNSt3__19allocatorImE17allocate_at_leastB7v160006Em, symObjAddr: 0xE80, symBinAddr: 0x1000027D0, symSize: 0x40 }
  - { offsetInCU: 0xA87F, offset: 0xA87F, size: 0x8, addend: 0x0, symName: __ZNSt3__19allocatorImE8allocateB7v160006Em, symObjAddr: 0xEC0, symBinAddr: 0x100002810, symSize: 0x50 }
  - { offsetInCU: 0xA8B3, offset: 0xA8B3, size: 0x8, addend: 0x0, symName: __ZNSt3__117__compressed_pairIPmNS_9allocatorImEEE6secondB7v160006Ev, symObjAddr: 0x1020, symBinAddr: 0x100002970, symSize: 0x20 }
  - { offsetInCU: 0xA8D9, offset: 0xA8D9, size: 0x8, addend: 0x0, symName: __ZNSt3__122__compressed_pair_elemINS_9allocatorImEELi1ELb1EE5__getB7v160006Ev, symObjAddr: 0x1040, symBinAddr: 0x100002990, symSize: 0x10 }
  - { offsetInCU: 0xA8FF, offset: 0xA8FF, size: 0x8, addend: 0x0, symName: __ZNSt3__117__compressed_pairIPmNS_9allocatorImEEE5firstB7v160006Ev, symObjAddr: 0x1050, symBinAddr: 0x1000029A0, symSize: 0x20 }
  - { offsetInCU: 0xA925, offset: 0xA925, size: 0x8, addend: 0x0, symName: __ZNSt3__122__compressed_pair_elemIPmLi0ELb0EE5__getB7v160006Ev, symObjAddr: 0x1070, symBinAddr: 0x1000029C0, symSize: 0x10 }
  - { offsetInCU: 0xA94B, offset: 0xA94B, size: 0x8, addend: 0x0, symName: __ZNKSt3__16vectorImNS_9allocatorImEEE31__annotate_contiguous_containerB7v160006EPKvS5_S5_S5_, symObjAddr: 0x1080, symBinAddr: 0x1000029D0, symSize: 0x20 }
  - { offsetInCU: 0xA9A1, offset: 0xA9A1, size: 0x8, addend: 0x0, symName: __ZNKSt3__16vectorImNS_9allocatorImEEE4dataB7v160006Ev, symObjAddr: 0x10A0, symBinAddr: 0x1000029F0, symSize: 0x20 }
  - { offsetInCU: 0xA9C7, offset: 0xA9C7, size: 0x8, addend: 0x0, symName: __ZNKSt3__16vectorImNS_9allocatorImEEE8capacityB7v160006Ev, symObjAddr: 0x10C0, symBinAddr: 0x100002A10, symSize: 0x30 }
  - { offsetInCU: 0xA9ED, offset: 0xA9ED, size: 0x8, addend: 0x0, symName: __ZNKSt3__16vectorImNS_9allocatorImEEE9__end_capB7v160006Ev, symObjAddr: 0x1100, symBinAddr: 0x100002A50, symSize: 0x20 }
  - { offsetInCU: 0xAA13, offset: 0xAA13, size: 0x8, addend: 0x0, symName: __ZNKSt3__117__compressed_pairIPmNS_9allocatorImEEE5firstB7v160006Ev, symObjAddr: 0x1120, symBinAddr: 0x100002A70, symSize: 0x20 }
  - { offsetInCU: 0xAA39, offset: 0xAA39, size: 0x8, addend: 0x0, symName: __ZNKSt3__122__compressed_pair_elemIPmLi0ELb0EE5__getB7v160006Ev, symObjAddr: 0x1140, symBinAddr: 0x100002A90, symSize: 0x10 }
  - { offsetInCU: 0xAA78, offset: 0xAA78, size: 0x8, addend: 0x0, symName: __ZNSt3__16vectorImNS_9allocatorImEEE21_ConstructTransactionC1B7v160006ERS3_m, symObjAddr: 0x1150, symBinAddr: 0x100002AA0, symSize: 0x30 }
  - { offsetInCU: 0xAAC0, offset: 0xAAC0, size: 0x8, addend: 0x0, symName: __ZNSt3__116allocator_traitsINS_9allocatorImEEE9constructB7v160006ImJEvvEEvRS2_PT_DpOT0_, symObjAddr: 0x1180, symBinAddr: 0x100002AD0, symSize: 0x20 }
  - { offsetInCU: 0xAB00, offset: 0xAB00, size: 0x8, addend: 0x0, symName: __ZNSt3__16vectorImNS_9allocatorImEEE21_ConstructTransactionD1B7v160006Ev, symObjAddr: 0x11A0, symBinAddr: 0x100002AF0, symSize: 0x20 }
  - { offsetInCU: 0xAB2A, offset: 0xAB2A, size: 0x8, addend: 0x0, symName: __ZNSt3__16vectorImNS_9allocatorImEEE21_ConstructTransactionC2B7v160006ERS3_m, symObjAddr: 0x11C0, symBinAddr: 0x100002B10, symSize: 0x40 }
  - { offsetInCU: 0xAB72, offset: 0xAB72, size: 0x8, addend: 0x0, symName: __ZNSt3__16vectorImNS_9allocatorImEEE21_ConstructTransactionD2B7v160006Ev, symObjAddr: 0x1220, symBinAddr: 0x100002B70, symSize: 0x20 }
  - { offsetInCU: 0xAB9C, offset: 0xAB9C, size: 0x8, addend: 0x0, symName: __ZNSt3__128__exception_guard_exceptionsINS_6vectorImNS_9allocatorImEEE16__destroy_vectorEED2B7v160006Ev, symObjAddr: 0x1240, symBinAddr: 0x100002B90, symSize: 0x40 }
  - { offsetInCU: 0xABC6, offset: 0xABC6, size: 0x8, addend: 0x0, symName: __ZNSt3__16vectorImNS_9allocatorImEEE16__destroy_vectorclB7v160006Ev, symObjAddr: 0x1280, symBinAddr: 0x100002BD0, symSize: 0x90 }
  - { offsetInCU: 0xABEC, offset: 0xABEC, size: 0x8, addend: 0x0, symName: __ZNKSt3__16vectorImNS_9allocatorImEEE17__annotate_deleteB7v160006Ev, symObjAddr: 0x1310, symBinAddr: 0x100002C60, symSize: 0xB0 }
  - { offsetInCU: 0xAC12, offset: 0xAC12, size: 0x8, addend: 0x0, symName: __ZNSt3__16vectorImNS_9allocatorImEEE7__clearB7v160006Ev, symObjAddr: 0x13D0, symBinAddr: 0x100002D20, symSize: 0x20 }
  - { offsetInCU: 0xAC38, offset: 0xAC38, size: 0x8, addend: 0x0, symName: __ZNSt3__116allocator_traitsINS_9allocatorImEEE10deallocateB7v160006ERS2_Pmm, symObjAddr: 0x13F0, symBinAddr: 0x100002D40, symSize: 0x30 }
  - { offsetInCU: 0xAC7A, offset: 0xAC7A, size: 0x8, addend: 0x0, symName: __ZNKSt3__16vectorImNS_9allocatorImEEE4sizeB7v160006Ev, symObjAddr: 0x1420, symBinAddr: 0x100002D70, symSize: 0x20 }
  - { offsetInCU: 0xACA0, offset: 0xACA0, size: 0x8, addend: 0x0, symName: __ZNSt3__16vectorImNS_9allocatorImEEE22__base_destruct_at_endB7v160006EPm, symObjAddr: 0x1440, symBinAddr: 0x100002D90, symSize: 0x80 }
  - { offsetInCU: 0xACE4, offset: 0xACE4, size: 0x8, addend: 0x0, symName: __ZNSt3__116allocator_traitsINS_9allocatorImEEE7destroyB7v160006ImvvEEvRS2_PT_, symObjAddr: 0x14C0, symBinAddr: 0x100002E10, symSize: 0x20 }
  - { offsetInCU: 0xAD1F, offset: 0xAD1F, size: 0x8, addend: 0x0, symName: __ZNSt3__19allocatorImE10deallocateB7v160006EPmm, symObjAddr: 0x1510, symBinAddr: 0x100002E60, symSize: 0x40 }
  - { offsetInCU: 0xAD61, offset: 0xAD61, size: 0x8, addend: 0x0, symName: __ZNSt3__16vectorImNS_9allocatorImEEE11__make_iterB7v160006EPm, symObjAddr: 0x1770, symBinAddr: 0x1000030C0, symSize: 0x30 }
  - { offsetInCU: 0xAD96, offset: 0xAD96, size: 0x8, addend: 0x0, symName: __ZNSt3__111__wrap_iterIPmEC1B7v160006EPKvS1_, symObjAddr: 0x17A0, symBinAddr: 0x1000030F0, symSize: 0x30 }
  - { offsetInCU: 0xADDC, offset: 0xADDC, size: 0x8, addend: 0x0, symName: __ZNSt3__111__wrap_iterIPmEC2B7v160006EPKvS1_, symObjAddr: 0x17D0, symBinAddr: 0x100003120, symSize: 0x20 }
  - { offsetInCU: 0xAE22, offset: 0xAE22, size: 0x8, addend: 0x0, symName: __ZNSt3__111__wrap_iterIPmEpLB7v160006El, symObjAddr: 0x17F0, symBinAddr: 0x100003140, symSize: 0x20 }
  - { offsetInCU: 0xAE56, offset: 0xAE56, size: 0x8, addend: 0x0, symName: __ZNKSt3__111__wrap_iterIPmE4baseB7v160006Ev, symObjAddr: 0x1850, symBinAddr: 0x1000031A0, symSize: 0x20 }
  - { offsetInCU: 0xAE86, offset: 0xAE86, size: 0x8, addend: 0x0, symName: '__ZZ8WayCountiiENK3$_0clIimEEDaT_T0_', symObjAddr: 0x1870, symBinAddr: 0x1000031C0, symSize: 0x20 }
  - { offsetInCU: 0xAEDE, offset: 0xAEDE, size: 0x8, addend: 0x0, symName: __ZNSt3__16vectorImNS_9allocatorImEEED2B7v160006Ev, symObjAddr: 0x1890, symBinAddr: 0x1000031E0, symSize: 0x40 }
  - { offsetInCU: 0xAF08, offset: 0xAF08, size: 0x8, addend: 0x0, symName: __ZNSt3__111char_traitsIcE6lengthEPKc, symObjAddr: 0x1AC0, symBinAddr: 0x100003410, symSize: 0x30 }
  - { offsetInCU: 0xAF49, offset: 0xAF49, size: 0x8, addend: 0x0, symName: __ZNKSt3__113basic_ostreamIcNS_11char_traitsIcEEE6sentrycvbB7v160006Ev, symObjAddr: 0x1AF0, symBinAddr: 0x100003440, symSize: 0x20 }
  - { offsetInCU: 0xAF6F, offset: 0xAF6F, size: 0x8, addend: 0x0, symName: __ZNSt3__119ostreambuf_iteratorIcNS_11char_traitsIcEEEC1B7v160006ERNS_13basic_ostreamIcS2_EE, symObjAddr: 0x1D30, symBinAddr: 0x100003680, symSize: 0x30 }
  - { offsetInCU: 0xAFA7, offset: 0xAFA7, size: 0x8, addend: 0x0, symName: __ZNKSt3__18ios_base5flagsB7v160006Ev, symObjAddr: 0x1D60, symBinAddr: 0x1000036B0, symSize: 0x20 }
  - { offsetInCU: 0xAFCF, offset: 0xAFCF, size: 0x8, addend: 0x0, symName: __ZNKSt3__19basic_iosIcNS_11char_traitsIcEEE4fillB7v160006Ev, symObjAddr: 0x1D80, symBinAddr: 0x1000036D0, symSize: 0x70 }
  - { offsetInCU: 0xAFF7, offset: 0xAFF7, size: 0x8, addend: 0x0, symName: __ZNKSt3__119ostreambuf_iteratorIcNS_11char_traitsIcEEE6failedB7v160006Ev, symObjAddr: 0x1DF0, symBinAddr: 0x100003740, symSize: 0x20 }
  - { offsetInCU: 0xB01D, offset: 0xB01D, size: 0x8, addend: 0x0, symName: __ZNSt3__19basic_iosIcNS_11char_traitsIcEEE8setstateB7v160006Ej, symObjAddr: 0x1E10, symBinAddr: 0x100003760, symSize: 0x30 }
  - { offsetInCU: 0xB052, offset: 0xB052, size: 0x8, addend: 0x0, symName: __ZNKSt3__18ios_base5widthB7v160006Ev, symObjAddr: 0x1E40, symBinAddr: 0x100003790, symSize: 0x20 }
  - { offsetInCU: 0xB07A, offset: 0xB07A, size: 0x8, addend: 0x0, symName: __ZNSt3__115basic_streambufIcNS_11char_traitsIcEEE5sputnB7v160006EPKcl, symObjAddr: 0x1E60, symBinAddr: 0x1000037B0, symSize: 0x30 }
  - { offsetInCU: 0xB0BC, offset: 0xB0BC, size: 0x8, addend: 0x0, symName: __ZNSt3__112basic_stringIcNS_11char_traitsIcEENS_9allocatorIcEEEC1B7v160006Emc, symObjAddr: 0x1E90, symBinAddr: 0x1000037E0, symSize: 0x30 }
  - { offsetInCU: 0xB104, offset: 0xB104, size: 0x8, addend: 0x0, symName: __ZNSt3__112basic_stringIcNS_11char_traitsIcEENS_9allocatorIcEEE4dataB7v160006Ev, symObjAddr: 0x1EC0, symBinAddr: 0x100003810, symSize: 0x30 }
  - { offsetInCU: 0xB12A, offset: 0xB12A, size: 0x8, addend: 0x0, symName: __ZNSt3__18ios_base5widthB7v160006El, symObjAddr: 0x1EF0, symBinAddr: 0x100003840, symSize: 0x30 }
  - { offsetInCU: 0xB170, offset: 0xB170, size: 0x8, addend: 0x0, symName: __ZNSt3__112basic_stringIcNS_11char_traitsIcEENS_9allocatorIcEEEC2B7v160006Emc, symObjAddr: 0x1F20, symBinAddr: 0x100003870, symSize: 0x50 }
  - { offsetInCU: 0xB1B8, offset: 0xB1B8, size: 0x8, addend: 0x0, symName: __ZNSt3__117__compressed_pairINS_12basic_stringIcNS_11char_traitsIcEENS_9allocatorIcEEE5__repES5_EC1B7v160006INS_18__default_init_tagESA_EEOT_OT0_, symObjAddr: 0x1F70, symBinAddr: 0x1000038C0, symSize: 0x30 }
  - { offsetInCU: 0xB210, offset: 0xB210, size: 0x8, addend: 0x0, symName: __ZNSt3__117__compressed_pairINS_12basic_stringIcNS_11char_traitsIcEENS_9allocatorIcEEE5__repES5_EC2B7v160006INS_18__default_init_tagESA_EEOT_OT0_, symObjAddr: 0x1FB0, symBinAddr: 0x100003900, symSize: 0x30 }
  - { offsetInCU: 0xB268, offset: 0xB268, size: 0x8, addend: 0x0, symName: __ZNSt3__122__compressed_pair_elemINS_12basic_stringIcNS_11char_traitsIcEENS_9allocatorIcEEE5__repELi0ELb0EEC2B7v160006ENS_18__default_init_tagE, symObjAddr: 0x1FE0, symBinAddr: 0x100003930, symSize: 0x10 }
  - { offsetInCU: 0xB29C, offset: 0xB29C, size: 0x8, addend: 0x0, symName: __ZNSt3__122__compressed_pair_elemINS_9allocatorIcEELi1ELb1EEC2B7v160006ENS_18__default_init_tagE, symObjAddr: 0x1FF0, symBinAddr: 0x100003940, symSize: 0x20 }
  - { offsetInCU: 0xB2D0, offset: 0xB2D0, size: 0x8, addend: 0x0, symName: __ZNSt3__19allocatorIcEC2B7v160006Ev, symObjAddr: 0x2010, symBinAddr: 0x100003960, symSize: 0x20 }
  - { offsetInCU: 0xB2FA, offset: 0xB2FA, size: 0x8, addend: 0x0, symName: __ZNSt3__116__non_trivial_ifILb1ENS_9allocatorIcEEEC2B7v160006Ev, symObjAddr: 0x2030, symBinAddr: 0x100003980, symSize: 0x10 }
  - { offsetInCU: 0xB324, offset: 0xB324, size: 0x8, addend: 0x0, symName: __ZNSt3__112basic_stringIcNS_11char_traitsIcEENS_9allocatorIcEEE13__get_pointerB7v160006Ev, symObjAddr: 0x2050, symBinAddr: 0x1000039A0, symSize: 0x50 }
  - { offsetInCU: 0xB34A, offset: 0xB34A, size: 0x8, addend: 0x0, symName: __ZNKSt3__112basic_stringIcNS_11char_traitsIcEENS_9allocatorIcEEE9__is_longB7v160006Ev, symObjAddr: 0x20A0, symBinAddr: 0x1000039F0, symSize: 0x30 }
  - { offsetInCU: 0xB370, offset: 0xB370, size: 0x8, addend: 0x0, symName: __ZNSt3__112basic_stringIcNS_11char_traitsIcEENS_9allocatorIcEEE18__get_long_pointerB7v160006Ev, symObjAddr: 0x20D0, symBinAddr: 0x100003A20, symSize: 0x20 }
  - { offsetInCU: 0xB396, offset: 0xB396, size: 0x8, addend: 0x0, symName: __ZNSt3__112basic_stringIcNS_11char_traitsIcEENS_9allocatorIcEEE19__get_short_pointerB7v160006Ev, symObjAddr: 0x20F0, symBinAddr: 0x100003A40, symSize: 0x30 }
  - { offsetInCU: 0xB3BC, offset: 0xB3BC, size: 0x8, addend: 0x0, symName: __ZNKSt3__117__compressed_pairINS_12basic_stringIcNS_11char_traitsIcEENS_9allocatorIcEEE5__repES5_E5firstB7v160006Ev, symObjAddr: 0x2120, symBinAddr: 0x100003A70, symSize: 0x20 }
  - { offsetInCU: 0xB3E2, offset: 0xB3E2, size: 0x8, addend: 0x0, symName: __ZNKSt3__122__compressed_pair_elemINS_12basic_stringIcNS_11char_traitsIcEENS_9allocatorIcEEE5__repELi0ELb0EE5__getB7v160006Ev, symObjAddr: 0x2140, symBinAddr: 0x100003A90, symSize: 0x10 }
  - { offsetInCU: 0xB408, offset: 0xB408, size: 0x8, addend: 0x0, symName: __ZNSt3__117__compressed_pairINS_12basic_stringIcNS_11char_traitsIcEENS_9allocatorIcEEE5__repES5_E5firstB7v160006Ev, symObjAddr: 0x2150, symBinAddr: 0x100003AA0, symSize: 0x20 }
  - { offsetInCU: 0xB42E, offset: 0xB42E, size: 0x8, addend: 0x0, symName: __ZNSt3__122__compressed_pair_elemINS_12basic_stringIcNS_11char_traitsIcEENS_9allocatorIcEEE5__repELi0ELb0EE5__getB7v160006Ev, symObjAddr: 0x2170, symBinAddr: 0x100003AC0, symSize: 0x10 }
  - { offsetInCU: 0xB454, offset: 0xB454, size: 0x8, addend: 0x0, symName: __ZNSt3__114pointer_traitsIPcE10pointer_toB7v160006ERc, symObjAddr: 0x2180, symBinAddr: 0x100003AD0, symSize: 0x10 }
  - { offsetInCU: 0xB477, offset: 0xB477, size: 0x8, addend: 0x0, symName: __ZNSt3__119ostreambuf_iteratorIcNS_11char_traitsIcEEEC2B7v160006ERNS_13basic_ostreamIcS2_EE, symObjAddr: 0x2190, symBinAddr: 0x100003AE0, symSize: 0x50 }
  - { offsetInCU: 0xB4AF, offset: 0xB4AF, size: 0x8, addend: 0x0, symName: __ZNKSt3__19basic_iosIcNS_11char_traitsIcEEE5rdbufB7v160006Ev, symObjAddr: 0x21E0, symBinAddr: 0x100003B30, symSize: 0x20 }
  - { offsetInCU: 0xB4D7, offset: 0xB4D7, size: 0x8, addend: 0x0, symName: __ZNKSt3__18ios_base5rdbufB7v160006Ev, symObjAddr: 0x2200, symBinAddr: 0x100003B50, symSize: 0x20 }
  - { offsetInCU: 0xB4FD, offset: 0xB4FD, size: 0x8, addend: 0x0, symName: __ZNSt3__111char_traitsIcE11eq_int_typeEii, symObjAddr: 0x2220, symBinAddr: 0x100003B70, symSize: 0x20 }
  - { offsetInCU: 0xB52E, offset: 0xB52E, size: 0x8, addend: 0x0, symName: __ZNSt3__111char_traitsIcE3eofEv, symObjAddr: 0x2240, symBinAddr: 0x100003B90, symSize: 0x10 }
  - { offsetInCU: 0xB542, offset: 0xB542, size: 0x8, addend: 0x0, symName: __ZNKSt3__19basic_iosIcNS_11char_traitsIcEEE5widenB7v160006Ec, symObjAddr: 0x2250, symBinAddr: 0x100003BA0, symSize: 0x80 }
  - { offsetInCU: 0xB5B0, offset: 0xB5B0, size: 0x8, addend: 0x0, symName: __ZNKSt3__15ctypeIcE5widenB7v160006Ec, symObjAddr: 0x2300, symBinAddr: 0x100003C50, symSize: 0x30 }
  - { offsetInCU: 0xB5E5, offset: 0xB5E5, size: 0x8, addend: 0x0, symName: __ZNSt3__18ios_base8setstateB7v160006Ej, symObjAddr: 0x2330, symBinAddr: 0x100003C80, symSize: 0x30 }
...
