---
triple:          'x86_64-apple-darwin'
binary-path:     '/Users/dmitrii/Documents/cpp-experiments/Algorhitms/6th_Sprint/Binaries/Dijkstra'
relocations:
  - { offsetInCU: 0x66, offset: 0x66, size: 0x8, addend: 0x0, symName: __ZNSt3__16ranges5__cpo9iter_moveE, symObjAddr: 0xDDED, symBinAddr: 0x10000FB29, symSize: 0x0 }
  - { offsetInCU: 0x78F8, offset: 0x78F8, size: 0x8, addend: 0x0, symName: __ZNSt3__17advanceB7v160006IPNS_4pairImiEEllvEEvRT_T0_, symObjAddr: 0x5180, symBinAddr: 0x100006D70, symSize: 0x50 }
  - { offsetInCU: 0x7B78, offset: 0x7B78, size: 0x8, addend: 0x0, symName: __ZNSt3__17advanceB7v160006INS_16reverse_iteratorIPNS_4pairImiEEEEllvEEvRT_T0_, symObjAddr: 0x55D0, symBinAddr: 0x1000071C0, symSize: 0x50 }
  - { offsetInCU: 0x8D0E, offset: 0x8D0E, size: 0x8, addend: 0x0, symName: '__ZNSt3__111__introsortINS_17_ClassicAlgPolicyERZ13GetNextVertexRKNS_6vectorIiNS_9allocatorIiEEEERKNS2_IbNS3_IbEEEEE3$_0PNS_4pairImiEEEEvT1_SH_T0_NS_15iterator_traitsISH_E15difference_typeE', symObjAddr: 0x5DB0, symBinAddr: 0x1000079A0, symSize: 0x690 }
  - { offsetInCU: 0x8E6E, offset: 0x8E6E, size: 0x8, addend: 0x0, symName: '__ZNSt3__118__insertion_sort_3B7v160006INS_17_ClassicAlgPolicyERZ13GetNextVertexRKNS_6vectorIiNS_9allocatorIiEEEERKNS2_IbNS3_IbEEEEE3$_0PNS_4pairImiEEEEvT1_SH_T0_', symObjAddr: 0x6590, symBinAddr: 0x100008180, symSize: 0x120 }
  - { offsetInCU: 0x8F41, offset: 0x8F41, size: 0x8, addend: 0x0, symName: '__ZNSt3__111__sift_downB7v160006INS_17_ClassicAlgPolicyERZ13GetNextVertexRKNS_6vectorIiNS_9allocatorIiEEEERKNS2_IbNS3_IbEEEEE3$_0PNS_4pairImiEEEEvT1_OT0_NS_15iterator_traitsISH_E15difference_typeESH_', symObjAddr: 0x6F90, symBinAddr: 0x100008B80, symSize: 0x1F0 }
  - { offsetInCU: 0x8FEE, offset: 0x8FEE, size: 0x8, addend: 0x0, symName: '__ZNSt3__117__floyd_sift_downB7v160006INS_17_ClassicAlgPolicyERZ13GetNextVertexRKNS_6vectorIiNS_9allocatorIiEEEERKNS2_IbNS3_IbEEEEE3$_0PNS_4pairImiEEEET1_SH_OT0_NS_15iterator_traitsISH_E15difference_typeE', symObjAddr: 0x72E0, symBinAddr: 0x100008ED0, symSize: 0x100 }
  - { offsetInCU: 0x9086, offset: 0x9086, size: 0x8, addend: 0x0, symName: '__ZNSt3__127__insertion_sort_incompleteIRZ13GetNextVertexRKNS_6vectorIiNS_9allocatorIiEEEERKNS1_IbNS2_IbEEEEE3$_0PNS_4pairImiEEEEbT0_SG_T_', symObjAddr: 0x68D0, symBinAddr: 0x1000084C0, symSize: 0x2A0 }
  - { offsetInCU: 0xA429, offset: 0xA429, size: 0x8, addend: 0x0, symName: __ZNSt3__113__fill_n_trueB7v160006INS_6vectorIbNS_9allocatorIbEEEEEEvNS_14__bit_iteratorIT_Lb0EXLi0EEEENS6_9size_typeE, symObjAddr: 0x80E0, symBinAddr: 0x100009CD0, symSize: 0x140 }
  - { offsetInCU: 0xA4EF, offset: 0xA4EF, size: 0x8, addend: 0x0, symName: __ZNSt3__114__fill_n_falseB7v160006INS_6vectorIbNS_9allocatorIbEEEEEEvNS_14__bit_iteratorIT_Lb0EXLi0EEEENS6_9size_typeE, symObjAddr: 0x8250, symBinAddr: 0x100009E40, symSize: 0x140 }
  - { offsetInCU: 0xB599, offset: 0xB599, size: 0x8, addend: 0x0, symName: __ZNSt3__124__put_character_sequenceB7v160006IcNS_11char_traitsIcEEEERNS_13basic_ostreamIT_T0_EES7_PKS4_m, symObjAddr: 0x99E0, symBinAddr: 0x10000B5D0, symSize: 0x1F0 }
  - { offsetInCU: 0xF418, offset: 0xF418, size: 0x8, addend: 0x0, symName: __ZNSt3__1neB7v160006IPKiEEbRKNS_11__wrap_iterIT_EES7_, symObjAddr: 0x1A0, symBinAddr: 0x100001D90, symSize: 0x30 }
  - { offsetInCU: 0xF645, offset: 0xF645, size: 0x8, addend: 0x0, symName: __ZNSt3__1lsB7v160006INS_11char_traitsIcEEEERNS_13basic_ostreamIcT_EES6_PKc, symObjAddr: 0x200, symBinAddr: 0x100001DF0, symSize: 0x40 }
  - { offsetInCU: 0xF68B, offset: 0xF68B, size: 0x8, addend: 0x0, symName: __ZNSt3__1lsB7v160006INS_11char_traitsIcEEEERNS_13basic_ostreamIcT_EES6_c, symObjAddr: 0x260, symBinAddr: 0x100001E50, symSize: 0x30 }
  - { offsetInCU: 0xF6D1, offset: 0xF6D1, size: 0x8, addend: 0x0, symName: '__ZNSt3__14sortB7v160006INS_11__wrap_iterIPNS_4pairImiEEEEZ13GetNextVertexRKNS_6vectorIiNS_9allocatorIiEEEERKNS6_IbNS7_IbEEEEE3$_0EEvT_SH_T0_', symObjAddr: 0x8D0, symBinAddr: 0x1000024C0, symSize: 0x40 }
  - { offsetInCU: 0xF72B, offset: 0xF72B, size: 0x8, addend: 0x0, symName: __ZNSt3__1neB7v160006IPNS_4pairImiEEEEbRKNS_11__wrap_iterIT_EES8_, symObjAddr: 0x970, symBinAddr: 0x100002560, symSize: 0x30 }
  - { offsetInCU: 0xF969, offset: 0xF969, size: 0x8, addend: 0x0, symName: __ZNSt3__1neB7v160006IP4EdgeEEbRKNS_11__wrap_iterIT_EES7_, symObjAddr: 0x1220, symBinAddr: 0x100002E10, symSize: 0x30 }
  - { offsetInCU: 0xF9AC, offset: 0xF9AC, size: 0x8, addend: 0x0, symName: __ZNSt3__1eqB7v160006IPKiEEbRKNS_11__wrap_iterIT_EES7_, symObjAddr: 0x1500, symBinAddr: 0x1000030F0, symSize: 0x40 }
  - { offsetInCU: 0xF9EF, offset: 0xF9EF, size: 0x8, addend: 0x0, symName: __ZNSt3__122__make_exception_guardB7v160006INS_6vectorINS1_I4EdgeNS_9allocatorIS2_EEEENS3_IS5_EEE16__destroy_vectorEEENS_28__exception_guard_exceptionsIT_EESA_, symObjAddr: 0x1680, symBinAddr: 0x100003270, symSize: 0x40 }
  - { offsetInCU: 0xFA24, offset: 0xFA24, size: 0x8, addend: 0x0, symName: __ZNSt3__119__debug_db_insert_cB7v160006INS_6vectorINS1_I4EdgeNS_9allocatorIS2_EEEENS3_IS5_EEEEEEvPT_, symObjAddr: 0x16F0, symBinAddr: 0x1000032E0, symSize: 0x10 }
  - { offsetInCU: 0xFA55, offset: 0xFA55, size: 0x8, addend: 0x0, symName: __ZNSt3__119__allocate_at_leastB7v160006INS_9allocatorINS_6vectorI4EdgeNS1_IS3_EEEEEEEEDaRT_m, symObjAddr: 0x1A40, symBinAddr: 0x100003630, symSize: 0x40 }
  - { offsetInCU: 0xFA98, offset: 0xFA98, size: 0x8, addend: 0x0, symName: __ZNSt3__13minB7v160006ImEERKT_S3_S3_, symObjAddr: 0x1B60, symBinAddr: 0x100003750, symSize: 0x30 }
  - { offsetInCU: 0xFCC5, offset: 0xFCC5, size: 0x8, addend: 0x0, symName: __ZNSt3__13minB7v160006ImNS_6__lessImmEEEERKT_S5_S5_T0_, symObjAddr: 0x1C00, symBinAddr: 0x1000037F0, symSize: 0x50 }
  - { offsetInCU: 0xFF46, offset: 0xFF46, size: 0x8, addend: 0x0, symName: __ZNSt3__120__throw_length_errorB7v160006EPKc, symObjAddr: 0x1CE0, symBinAddr: 0x1000038D0, symSize: 0x70 }
  - { offsetInCU: 0xFF6E, offset: 0xFF6E, size: 0x8, addend: 0x0, symName: __ZNSt3__117allocate_at_leastB7v160006INS_9allocatorINS_6vectorI4EdgeNS1_IS3_EEEEEEEENS_17allocation_resultINS_16allocator_traitsIT_E7pointerEEERS9_m, symObjAddr: 0x1DC0, symBinAddr: 0x1000039B0, symSize: 0x40 }
  - { offsetInCU: 0xFFB1, offset: 0xFFB1, size: 0x8, addend: 0x0, symName: __ZNSt3__117__libcpp_allocateB7v160006Emm, symObjAddr: 0x1ED0, symBinAddr: 0x100003AC0, symSize: 0x60 }
  - { offsetInCU: 0x1000B, offset: 0x1000B, size: 0x8, addend: 0x0, symName: __ZNSt3__124__is_overaligned_for_newB7v160006Em, symObjAddr: 0x1F30, symBinAddr: 0x100003B20, symSize: 0x20 }
  - { offsetInCU: 0x10039, offset: 0x10039, size: 0x8, addend: 0x0, symName: __ZNSt3__121__libcpp_operator_newB7v160006IJmSt11align_val_tEEEPvDpT_, symObjAddr: 0x1F50, symBinAddr: 0x100003B40, symSize: 0x30 }
  - { offsetInCU: 0x10086, offset: 0x10086, size: 0x8, addend: 0x0, symName: __ZNSt3__121__libcpp_operator_newB7v160006IJmEEEPvDpT_, symObjAddr: 0x1F80, symBinAddr: 0x100003B70, symSize: 0x20 }
  - { offsetInCU: 0x100BF, offset: 0x100BF, size: 0x8, addend: 0x0, symName: __ZNSt3__112__to_addressB7v160006INS_6vectorI4EdgeNS_9allocatorIS2_EEEEEEPT_S7_, symObjAddr: 0x2080, symBinAddr: 0x100003C70, symSize: 0x10 }
  - { offsetInCU: 0x10119, offset: 0x10119, size: 0x8, addend: 0x0, symName: __ZNSt3__112construct_atB7v160006INS_6vectorI4EdgeNS_9allocatorIS2_EEEEJEPS5_EEPT_S8_DpOT0_, symObjAddr: 0x2190, symBinAddr: 0x100003D80, symSize: 0x30 }
  - { offsetInCU: 0x10175, offset: 0x10175, size: 0x8, addend: 0x0, symName: __ZNSt3__119__debug_db_insert_cB7v160006INS_6vectorI4EdgeNS_9allocatorIS2_EEEEEEvPT_, symObjAddr: 0x2270, symBinAddr: 0x100003E60, symSize: 0x10 }
  - { offsetInCU: 0x101A6, offset: 0x101A6, size: 0x8, addend: 0x0, symName: __ZNSt3__118__debug_db_erase_cB7v160006INS_6vectorINS1_I4EdgeNS_9allocatorIS2_EEEENS3_IS5_EEEEEEvPT_, symObjAddr: 0x24D0, symBinAddr: 0x1000040C0, symSize: 0x10 }
  - { offsetInCU: 0x101D7, offset: 0x101D7, size: 0x8, addend: 0x0, symName: __ZNSt3__110destroy_atB7v160006INS_6vectorI4EdgeNS_9allocatorIS2_EEEELi0EEEvPT_, symObjAddr: 0x25D0, symBinAddr: 0x1000041C0, symSize: 0x20 }
  - { offsetInCU: 0x1020E, offset: 0x1020E, size: 0x8, addend: 0x0, symName: __ZNSt3__112__destroy_atB7v160006INS_6vectorI4EdgeNS_9allocatorIS2_EEEELi0EEEvPT_, symObjAddr: 0x25F0, symBinAddr: 0x1000041E0, symSize: 0x20 }
  - { offsetInCU: 0x10245, offset: 0x10245, size: 0x8, addend: 0x0, symName: __ZNSt3__118__debug_db_erase_cB7v160006INS_6vectorI4EdgeNS_9allocatorIS2_EEEEEEvPT_, symObjAddr: 0x2800, symBinAddr: 0x1000043F0, symSize: 0x10 }
  - { offsetInCU: 0x10276, offset: 0x10276, size: 0x8, addend: 0x0, symName: __ZNSt3__112__to_addressB7v160006I4EdgeEEPT_S3_, symObjAddr: 0x2910, symBinAddr: 0x100004500, symSize: 0x10 }
  - { offsetInCU: 0x102AB, offset: 0x102AB, size: 0x8, addend: 0x0, symName: __ZNSt3__110destroy_atB7v160006I4EdgeLi0EEEvPT_, symObjAddr: 0x29C0, symBinAddr: 0x1000045B0, symSize: 0x20 }
  - { offsetInCU: 0x102E2, offset: 0x102E2, size: 0x8, addend: 0x0, symName: __ZNSt3__112__destroy_atB7v160006I4EdgeLi0EEEvPT_, symObjAddr: 0x29E0, symBinAddr: 0x1000045D0, symSize: 0x10 }
  - { offsetInCU: 0x10319, offset: 0x10319, size: 0x8, addend: 0x0, symName: __ZNSt3__119__libcpp_deallocateB7v160006EPvmm, symObjAddr: 0x2A30, symBinAddr: 0x100004620, symSize: 0x60 }
  - { offsetInCU: 0x1037E, offset: 0x1037E, size: 0x8, addend: 0x0, symName: __ZNSt3__127__do_deallocate_handle_sizeB7v160006IJSt11align_val_tEEEvPvmDpT_, symObjAddr: 0x2A90, symBinAddr: 0x100004680, symSize: 0x30 }
  - { offsetInCU: 0x103D1, offset: 0x103D1, size: 0x8, addend: 0x0, symName: __ZNSt3__127__do_deallocate_handle_sizeB7v160006IJEEEvPvmDpT_, symObjAddr: 0x2AC0, symBinAddr: 0x1000046B0, symSize: 0x20 }
  - { offsetInCU: 0x1040F, offset: 0x1040F, size: 0x8, addend: 0x0, symName: __ZNSt3__124__libcpp_operator_deleteB7v160006IJPvSt11align_val_tEEEvDpT_, symObjAddr: 0x2AE0, symBinAddr: 0x1000046D0, symSize: 0x30 }
  - { offsetInCU: 0x10458, offset: 0x10458, size: 0x8, addend: 0x0, symName: __ZNSt3__124__libcpp_operator_deleteB7v160006IJPvEEEvDpT_, symObjAddr: 0x2B10, symBinAddr: 0x100004700, symSize: 0x20 }
  - { offsetInCU: 0x104B2, offset: 0x104B2, size: 0x8, addend: 0x0, symName: __ZNSt3__112construct_atB7v160006I4EdgeJiRiEPS1_EEPT_S5_DpOT0_, symObjAddr: 0x2EB0, symBinAddr: 0x100004AA0, symSize: 0x40 }
  - { offsetInCU: 0x10535, offset: 0x10535, size: 0x8, addend: 0x0, symName: __ZNSt3__13maxB7v160006ImEERKT_S3_S3_, symObjAddr: 0x3210, symBinAddr: 0x100004E00, symSize: 0x30 }
  - { offsetInCU: 0x10578, offset: 0x10578, size: 0x8, addend: 0x0, symName: __ZNSt3__13maxB7v160006ImNS_6__lessImmEEEERKT_S5_S5_T0_, symObjAddr: 0x32B0, symBinAddr: 0x100004EA0, symSize: 0x50 }
  - { offsetInCU: 0x105D2, offset: 0x105D2, size: 0x8, addend: 0x0, symName: __ZNSt3__119__allocate_at_leastB7v160006INS_9allocatorI4EdgeEEEEDaRT_m, symObjAddr: 0x3400, symBinAddr: 0x100004FF0, symSize: 0x40 }
  - { offsetInCU: 0x10615, offset: 0x10615, size: 0x8, addend: 0x0, symName: __ZNSt3__117allocate_at_leastB7v160006INS_9allocatorI4EdgeEEEENS_17allocation_resultINS_16allocator_traitsIT_E7pointerEEERS6_m, symObjAddr: 0x34E0, symBinAddr: 0x1000050D0, symSize: 0x40 }
  - { offsetInCU: 0x10658, offset: 0x10658, size: 0x8, addend: 0x0, symName: __ZNSt3__142__uninitialized_allocator_move_if_noexceptB7v160006INS_9allocatorI4EdgeEENS_16reverse_iteratorIPS2_EES6_S2_vEET1_RT_T0_SA_S7_, symObjAddr: 0x3610, symBinAddr: 0x100005200, symSize: 0x70 }
  - { offsetInCU: 0x106D4, offset: 0x106D4, size: 0x8, addend: 0x0, symName: __ZNSt3__14swapB7v160006IP4EdgeEENS_9enable_ifIXaasr21is_move_constructibleIT_EE5valuesr18is_move_assignableIS4_EE5valueEvE4typeERS4_S7_, symObjAddr: 0x36D0, symBinAddr: 0x1000052C0, symSize: 0x40 }
  - { offsetInCU: 0x10725, offset: 0x10725, size: 0x8, addend: 0x0, symName: __ZNSt3__125__debug_db_invalidate_allB7v160006INS_6vectorI4EdgeNS_9allocatorIS2_EEEEEEvPT_, symObjAddr: 0x37C0, symBinAddr: 0x1000053B0, symSize: 0x10 }
  - { offsetInCU: 0x10756, offset: 0x10756, size: 0x8, addend: 0x0, symName: __ZNSt3__14moveB7v160006INS_16reverse_iteratorIP4EdgeEES4_EET0_T_S6_S5_, symObjAddr: 0x37D0, symBinAddr: 0x1000053C0, symSize: 0x80 }
  - { offsetInCU: 0x107B0, offset: 0x107B0, size: 0x8, addend: 0x0, symName: __ZNSt3__16__moveB7v160006INS_17_ClassicAlgPolicyENS_16reverse_iteratorIP4EdgeEES5_S5_EENS_4pairIT0_T2_EES7_T1_S8_, symObjAddr: 0x3850, symBinAddr: 0x100005440, symSize: 0x90 }
  - { offsetInCU: 0x1081C, offset: 0x1081C, size: 0x8, addend: 0x0, symName: __ZNSt3__123__dispatch_copy_or_moveB7v160006INS_17_ClassicAlgPolicyENS_11__move_loopIS1_EENS_14__move_trivialENS_16reverse_iteratorIP4EdgeEES8_S8_EENS_4pairIT2_T4_EESA_T3_SB_, symObjAddr: 0x38E0, symBinAddr: 0x1000054D0, symSize: 0x90 }
  - { offsetInCU: 0x1089A, offset: 0x1089A, size: 0x8, addend: 0x0, symName: __ZNSt3__121__unwrap_and_dispatchB7v160006INS_10__overloadINS_11__move_loopINS_17_ClassicAlgPolicyEEENS_14__move_trivialEEENS_16reverse_iteratorIP4EdgeEESA_SA_Li0EEENS_4pairIT0_T2_EESC_T1_SD_, symObjAddr: 0x3970, symBinAddr: 0x100005560, symSize: 0x210 }
  - { offsetInCU: 0x10929, offset: 0x10929, size: 0x8, addend: 0x0, symName: __ZNSt3__114__unwrap_rangeB7v160006INS_16reverse_iteratorIP4EdgeEES4_EEDaT_T0_, symObjAddr: 0x3B80, symBinAddr: 0x100005770, symSize: 0x60 }
  - { offsetInCU: 0x10AF1, offset: 0x10AF1, size: 0x8, addend: 0x0, symName: __ZNSt3__113__unwrap_iterB7v160006INS_16reverse_iteratorIP4EdgeEENS_18__unwrap_iter_implIS4_Lb0EEELi0EEEDTclsrT0_8__unwrapclsr3stdE7declvalIT_EEEES8_, symObjAddr: 0x3C80, symBinAddr: 0x100005870, symSize: 0x40 }
  - { offsetInCU: 0x10B35, offset: 0x10B35, size: 0x8, addend: 0x0, symName: __ZNSt3__19make_pairB7v160006INS_16reverse_iteratorIP4EdgeEES4_EENS_4pairINS_18__unwrap_ref_decayIT_E4typeENS6_IT0_E4typeEEEOS7_OSA_, symObjAddr: 0x3CC0, symBinAddr: 0x1000058B0, symSize: 0x30 }
  - { offsetInCU: 0x10B84, offset: 0x10B84, size: 0x8, addend: 0x0, symName: __ZNSt3__114__rewrap_rangeB7v160006INS_16reverse_iteratorIP4EdgeEES4_S4_EET0_S5_T1_, symObjAddr: 0x3CF0, symBinAddr: 0x1000058E0, symSize: 0x60 }
  - { offsetInCU: 0x10BD9, offset: 0x10BD9, size: 0x8, addend: 0x0, symName: __ZNSt3__113__rewrap_iterB7v160006INS_16reverse_iteratorIP4EdgeEES4_NS_18__unwrap_iter_implIS4_Lb0EEEEET_S7_T0_, symObjAddr: 0x3D50, symBinAddr: 0x100005940, symSize: 0x70 }
  - { offsetInCU: 0x10C7E, offset: 0x10C7E, size: 0x8, addend: 0x0, symName: __ZNSt3__1neB7v160006IP4EdgeS2_EEbRKNS_16reverse_iteratorIT_EERKNS3_IT0_EE, symObjAddr: 0x3EC0, symBinAddr: 0x100005AB0, symSize: 0x40 }
  - { offsetInCU: 0x10DFA, offset: 0x10DFA, size: 0x8, addend: 0x0, symName: __ZNSt3__119__debug_db_insert_cB7v160006INS_6vectorINS_4pairImiEENS_9allocatorIS3_EEEEEEvPT_, symObjAddr: 0x42E0, symBinAddr: 0x100005ED0, symSize: 0x10 }
  - { offsetInCU: 0x10E2B, offset: 0x10E2B, size: 0x8, addend: 0x0, symName: __ZNSt3__119__allocate_at_leastB7v160006INS_9allocatorINS_4pairImiEEEEEEDaRT_m, symObjAddr: 0x4810, symBinAddr: 0x100006400, symSize: 0x40 }
  - { offsetInCU: 0x10E6E, offset: 0x10E6E, size: 0x8, addend: 0x0, symName: __ZNSt3__117allocate_at_leastB7v160006INS_9allocatorINS_4pairImiEEEEEENS_17allocation_resultINS_16allocator_traitsIT_E7pointerEEERS7_m, symObjAddr: 0x48F0, symBinAddr: 0x1000064E0, symSize: 0x40 }
  - { offsetInCU: 0x10EB1, offset: 0x10EB1, size: 0x8, addend: 0x0, symName: __ZNSt3__142__uninitialized_allocator_move_if_noexceptB7v160006INS_9allocatorINS_4pairImiEEEENS_16reverse_iteratorIPS3_EES7_S7_EET2_RT_T0_T1_S8_, symObjAddr: 0x4AE0, symBinAddr: 0x1000066D0, symSize: 0x180 }
  - { offsetInCU: 0x10F50, offset: 0x10F50, size: 0x8, addend: 0x0, symName: __ZNSt3__14swapB7v160006IPNS_4pairImiEEEENS_9enable_ifIXaasr21is_move_constructibleIT_EE5valuesr18is_move_assignableIS5_EE5valueEvE4typeERS5_S8_, symObjAddr: 0x4CB0, symBinAddr: 0x1000068A0, symSize: 0x40 }
  - { offsetInCU: 0x10FA1, offset: 0x10FA1, size: 0x8, addend: 0x0, symName: __ZNSt3__125__debug_db_invalidate_allB7v160006INS_6vectorINS_4pairImiEENS_9allocatorIS3_EEEEEEvPT_, symObjAddr: 0x4DC0, symBinAddr: 0x1000069B0, symSize: 0x10 }
  - { offsetInCU: 0x10FD2, offset: 0x10FD2, size: 0x8, addend: 0x0, symName: __ZNSt3__112__to_addressB7v160006INS_4pairImiEEEEPT_S4_, symObjAddr: 0x4E10, symBinAddr: 0x100006A00, symSize: 0x10 }
  - { offsetInCU: 0x11007, offset: 0x11007, size: 0x8, addend: 0x0, symName: __ZNSt3__122__make_exception_guardB7v160006INS_29_AllocatorDestroyRangeReverseINS_9allocatorINS_4pairImiEEEENS_16reverse_iteratorIPS4_EEEEEENS_28__exception_guard_exceptionsIT_EESB_, symObjAddr: 0x4E20, symBinAddr: 0x100006A10, symSize: 0x60 }
  - { offsetInCU: 0x1103C, offset: 0x1103C, size: 0x8, addend: 0x0, symName: __ZNSt3__1neB7v160006IPNS_4pairImiEES3_EEbRKNS_16reverse_iteratorIT_EERKNS4_IT0_EE, symObjAddr: 0x4EC0, symBinAddr: 0x100006AB0, symSize: 0x40 }
  - { offsetInCU: 0x11088, offset: 0x11088, size: 0x8, addend: 0x0, symName: __ZNSt3__112__to_addressB7v160006INS_16reverse_iteratorIPNS_4pairImiEEEEvEENS_5decayIDTclsr19__to_address_helperIT_EE6__callclsr3stdE7declvalIRKS7_EEEEE4typeES9_, symObjAddr: 0x4F30, symBinAddr: 0x100006B20, symSize: 0x20 }
  - { offsetInCU: 0x110E3, offset: 0x110E3, size: 0x8, addend: 0x0, symName: __ZNSt3__112construct_atB7v160006INS_4pairImiEEJS2_EPS2_EEPT_S5_DpOT0_, symObjAddr: 0x5090, symBinAddr: 0x100006C80, symSize: 0x30 }
  - { offsetInCU: 0x1117C, offset: 0x1117C, size: 0x8, addend: 0x0, symName: __ZNSt3__14prevB7v160006IPNS_4pairImiEEEENS_9enable_ifIXsr25__is_cpp17_input_iteratorIT_EE5valueES5_E4typeES5_NS_15iterator_traitsIS5_E15difference_typeE, symObjAddr: 0x5130, symBinAddr: 0x100006D20, symSize: 0x50 }
  - { offsetInCU: 0x111BF, offset: 0x111BF, size: 0x8, addend: 0x0, symName: __ZNSt3__121__convert_to_integralB7v160006El, symObjAddr: 0x51D0, symBinAddr: 0x100006DC0, symSize: 0x10 }
  - { offsetInCU: 0x111EB, offset: 0x111EB, size: 0x8, addend: 0x0, symName: __ZNSt3__19__advanceB7v160006IPNS_4pairImiEEEEvRT_NS_15iterator_traitsIS4_E15difference_typeENS_26random_access_iterator_tagE, symObjAddr: 0x51E0, symBinAddr: 0x100006DD0, symSize: 0x20 }
  - { offsetInCU: 0x11234, offset: 0x11234, size: 0x8, addend: 0x0, symName: __ZNSt3__119__allocator_destroyB7v160006INS_9allocatorINS_4pairImiEEEENS_16reverse_iteratorINS5_IPS3_EEEES8_EEvRT_T0_T1_, symObjAddr: 0x5330, symBinAddr: 0x100006F20, symSize: 0x70 }
  - { offsetInCU: 0x11297, offset: 0x11297, size: 0x8, addend: 0x0, symName: __ZNSt3__1neB7v160006INS_16reverse_iteratorIPNS_4pairImiEEEES5_EEbRKNS1_IT_EERKNS1_IT0_EE, symObjAddr: 0x53D0, symBinAddr: 0x100006FC0, symSize: 0x50 }
  - { offsetInCU: 0x112E3, offset: 0x112E3, size: 0x8, addend: 0x0, symName: __ZNSt3__112__to_addressB7v160006INS_16reverse_iteratorINS1_IPNS_4pairImiEEEEEEvEENS_5decayIDTclsr19__to_address_helperIT_EE6__callclsr3stdE7declvalIRKS8_EEEEE4typeESA_, symObjAddr: 0x5440, symBinAddr: 0x100007030, symSize: 0x20 }
  - { offsetInCU: 0x11319, offset: 0x11319, size: 0x8, addend: 0x0, symName: __ZNSt3__110destroy_atB7v160006INS_4pairImiEELi0EEEvPT_, symObjAddr: 0x54B0, symBinAddr: 0x1000070A0, symSize: 0x20 }
  - { offsetInCU: 0x11350, offset: 0x11350, size: 0x8, addend: 0x0, symName: __ZNSt3__112__destroy_atB7v160006INS_4pairImiEELi0EEEvPT_, symObjAddr: 0x54D0, symBinAddr: 0x1000070C0, symSize: 0x10 }
  - { offsetInCU: 0x113B0, offset: 0x113B0, size: 0x8, addend: 0x0, symName: __ZNSt3__14prevB7v160006INS_16reverse_iteratorIPNS_4pairImiEEEEEENS_9enable_ifIXsr25__is_cpp17_input_iteratorIT_EE5valueES7_E4typeES7_NS_15iterator_traitsIS7_E15difference_typeE, symObjAddr: 0x5570, symBinAddr: 0x100007160, symSize: 0x60 }
  - { offsetInCU: 0x113F3, offset: 0x113F3, size: 0x8, addend: 0x0, symName: __ZNSt3__19__advanceB7v160006INS_16reverse_iteratorIPNS_4pairImiEEEEEEvRT_NS_15iterator_traitsIS6_E15difference_typeENS_26random_access_iterator_tagE, symObjAddr: 0x5620, symBinAddr: 0x100007210, symSize: 0x30 }
  - { offsetInCU: 0x1143C, offset: 0x1143C, size: 0x8, addend: 0x0, symName: '__ZNSt3__111__sort_implB7v160006INS_17_ClassicAlgPolicyENS_11__wrap_iterIPNS_4pairImiEEEEZ13GetNextVertexRKNS_6vectorIiNS_9allocatorIiEEEERKNS7_IbNS8_IbEEEEE3$_0EEvT0_SI_RT1_', symObjAddr: 0x5C30, symBinAddr: 0x100007820, symSize: 0x80 }
  - { offsetInCU: 0x114E3, offset: 0x114E3, size: 0x8, addend: 0x0, symName: __ZNSt3__123__debug_randomize_rangeB7v160006INS_17_ClassicAlgPolicyENS_11__wrap_iterIPNS_4pairImiEEEES6_EEvT0_T1_, symObjAddr: 0x5CB0, symBinAddr: 0x1000078A0, symSize: 0x10 }
  - { offsetInCU: 0x11534, offset: 0x11534, size: 0x8, addend: 0x0, symName: '__ZNSt3__16__sortIRZ13GetNextVertexRKNS_6vectorIiNS_9allocatorIiEEEERKNS1_IbNS2_IbEEEEE3$_0PNS_4pairImiEEEEvT0_SG_T_', symObjAddr: 0x5CC0, symBinAddr: 0x1000078B0, symSize: 0x60 }
  - { offsetInCU: 0x115C4, offset: 0x115C4, size: 0x8, addend: 0x0, symName: __ZNSt3__113__unwrap_iterB7v160006INS_11__wrap_iterIPNS_4pairImiEEEENS_18__unwrap_iter_implIS5_Lb1EEELi0EEEDTclsrT0_8__unwrapclsr3stdE7declvalIT_EEEES9_, symObjAddr: 0x5D20, symBinAddr: 0x100007910, symSize: 0x30 }
  - { offsetInCU: 0x11608, offset: 0x11608, size: 0x8, addend: 0x0, symName: __ZNSt3__17__log2iB7v160006IlEET_S1_, symObjAddr: 0x5D50, symBinAddr: 0x100007940, symSize: 0x50 }
  - { offsetInCU: 0x11672, offset: 0x11672, size: 0x8, addend: 0x0, symName: __ZNSt3__112__libcpp_clzB7v160006Em, symObjAddr: 0x6440, symBinAddr: 0x100008030, symSize: 0x20 }
  - { offsetInCU: 0x1169E, offset: 0x1169E, size: 0x8, addend: 0x0, symName: '__ZNSt3__124__sort3_maybe_branchlessB7v160006INS_17_ClassicAlgPolicyERZ13GetNextVertexRKNS_6vectorIiNS_9allocatorIiEEEERKNS2_IbNS3_IbEEEEE3$_0PNS_4pairImiEEEENS_9enable_ifIXntsr21__use_branchless_sortIT0_T1_EE5valueEvE4typeESJ_SJ_SJ_SI_', symObjAddr: 0x64C0, symBinAddr: 0x1000080B0, symSize: 0x40 }
  - { offsetInCU: 0x1170F, offset: 0x1170F, size: 0x8, addend: 0x0, symName: '__ZNSt3__124__sort4_maybe_branchlessB7v160006INS_17_ClassicAlgPolicyERZ13GetNextVertexRKNS_6vectorIiNS_9allocatorIiEEEERKNS2_IbNS3_IbEEEEE3$_0PNS_4pairImiEEEENS_9enable_ifIXntsr21__use_branchless_sortIT0_T1_EE5valueEvE4typeESJ_SJ_SJ_SJ_SI_', symObjAddr: 0x6500, symBinAddr: 0x1000080F0, symSize: 0x40 }
  - { offsetInCU: 0x11794, offset: 0x11794, size: 0x8, addend: 0x0, symName: '__ZNSt3__124__sort5_maybe_branchlessB7v160006INS_17_ClassicAlgPolicyERZ13GetNextVertexRKNS_6vectorIiNS_9allocatorIiEEEERKNS2_IbNS3_IbEEEEE3$_0PNS_4pairImiEEEENS_9enable_ifIXntsr21__use_branchless_sortIT0_T1_EE5valueEvE4typeESJ_SJ_SJ_SJ_SJ_SI_', symObjAddr: 0x6540, symBinAddr: 0x100008130, symSize: 0x50 }
  - { offsetInCU: 0x11828, offset: 0x11828, size: 0x8, addend: 0x0, symName: '__ZNSt3__114__partial_sortB7v160006INS_17_ClassicAlgPolicyERZ13GetNextVertexRKNS_6vectorIiNS_9allocatorIiEEEERKNS2_IbNS3_IbEEEEE3$_0PNS_4pairImiEESG_EET1_SH_SH_T2_RT0_', symObjAddr: 0x66B0, symBinAddr: 0x1000082A0, symSize: 0x90 }
  - { offsetInCU: 0x118B0, offset: 0x118B0, size: 0x8, addend: 0x0, symName: '__ZNSt3__119__sort5_wrap_policyB7v160006INS_17_ClassicAlgPolicyERZ13GetNextVertexRKNS_6vectorIiNS_9allocatorIiEEEERKNS2_IbNS3_IbEEEEE3$_0PNS_4pairImiEEEEjT1_SH_SH_SH_SH_T0_', symObjAddr: 0x6740, symBinAddr: 0x100008330, symSize: 0x50 }
  - { offsetInCU: 0x11956, offset: 0x11956, size: 0x8, addend: 0x0, symName: '__ZNSt3__17__sort3B7v160006INS_17_ClassicAlgPolicyERZ13GetNextVertexRKNS_6vectorIiNS_9allocatorIiEEEERKNS2_IbNS3_IbEEEEE3$_0PNS_4pairImiEEEEjT1_SH_SH_T0_', symObjAddr: 0x6790, symBinAddr: 0x100008380, symSize: 0x140 }
  - { offsetInCU: 0x119D5, offset: 0x119D5, size: 0x8, addend: 0x0, symName: __ZNSt3__19iter_swapB7v160006IPNS_4pairImiEES3_EEvT_T0_, symObjAddr: 0x6B70, symBinAddr: 0x100008760, symSize: 0x30 }
  - { offsetInCU: 0x11A1D, offset: 0x11A1D, size: 0x8, addend: 0x0, symName: __ZNSt3__14swapB7v160006ImiEENS_9enable_ifIXaasr14__is_swappableIT_EE5valuesr14__is_swappableIT0_EE5valueEvE4typeERNS_4pairIS2_S3_EES8_, symObjAddr: 0x6BA0, symBinAddr: 0x100008790, symSize: 0x30 }
  - { offsetInCU: 0x11A6C, offset: 0x11A6C, size: 0x8, addend: 0x0, symName: __ZNSt3__14swapB7v160006ImEENS_9enable_ifIXaasr21is_move_constructibleIT_EE5valuesr18is_move_assignableIS2_EE5valueEvE4typeERS2_S5_, symObjAddr: 0x6C10, symBinAddr: 0x100008800, symSize: 0x40 }
  - { offsetInCU: 0x11ABD, offset: 0x11ABD, size: 0x8, addend: 0x0, symName: __ZNSt3__14swapB7v160006IiEENS_9enable_ifIXaasr21is_move_constructibleIT_EE5valuesr18is_move_assignableIS2_EE5valueEvE4typeERS2_S5_, symObjAddr: 0x6C50, symBinAddr: 0x100008840, symSize: 0x30 }
  - { offsetInCU: 0x11B0E, offset: 0x11B0E, size: 0x8, addend: 0x0, symName: '__ZNSt3__17__sort4B7v160006INS_17_ClassicAlgPolicyERZ13GetNextVertexRKNS_6vectorIiNS_9allocatorIiEEEERKNS2_IbNS3_IbEEEEE3$_0PNS_4pairImiEEEEjT1_SH_SH_SH_T0_', symObjAddr: 0x6C80, symBinAddr: 0x100008870, symSize: 0xF0 }
  - { offsetInCU: 0x11BBF, offset: 0x11BBF, size: 0x8, addend: 0x0, symName: __ZNSt3__123__debug_randomize_rangeB7v160006INS_17_ClassicAlgPolicyEPNS_4pairImiEES4_EEvT0_T1_, symObjAddr: 0x6DF0, symBinAddr: 0x1000089E0, symSize: 0x10 }
  - { offsetInCU: 0x11C10, offset: 0x11C10, size: 0x8, addend: 0x0, symName: '__ZNSt3__119__partial_sort_implB7v160006INS_17_ClassicAlgPolicyERZ13GetNextVertexRKNS_6vectorIiNS_9allocatorIiEEEERKNS2_IbNS3_IbEEEEE3$_0PNS_4pairImiEESG_EET1_SH_SH_T2_OT0_', symObjAddr: 0x6E00, symBinAddr: 0x1000089F0, symSize: 0xF0 }
  - { offsetInCU: 0x11CA6, offset: 0x11CA6, size: 0x8, addend: 0x0, symName: '__ZNSt3__111__make_heapB7v160006INS_17_ClassicAlgPolicyERZ13GetNextVertexRKNS_6vectorIiNS_9allocatorIiEEEERKNS2_IbNS3_IbEEEEE3$_0PNS_4pairImiEEEEvT1_SH_OT0_', symObjAddr: 0x6EF0, symBinAddr: 0x100008AE0, symSize: 0xA0 }
  - { offsetInCU: 0x11D48, offset: 0x11D48, size: 0x8, addend: 0x0, symName: '__ZNSt3__111__sort_heapB7v160006INS_17_ClassicAlgPolicyERZ13GetNextVertexRKNS_6vectorIiNS_9allocatorIiEEEERKNS2_IbNS3_IbEEEEE3$_0PNS_4pairImiEEEEvT1_SH_OT0_', symObjAddr: 0x7180, symBinAddr: 0x100008D70, symSize: 0x80 }
  - { offsetInCU: 0x11DDC, offset: 0x11DDC, size: 0x8, addend: 0x0, symName: '__ZNSt3__110__pop_heapB7v160006INS_17_ClassicAlgPolicyEZ13GetNextVertexRKNS_6vectorIiNS_9allocatorIiEEEERKNS2_IbNS3_IbEEEEE3$_0PNS_4pairImiEEEEvT1_SG_RT0_NS_15iterator_traitsISG_E15difference_typeE', symObjAddr: 0x7200, symBinAddr: 0x100008DF0, symSize: 0xE0 }
  - { offsetInCU: 0x11E8C, offset: 0x11E8C, size: 0x8, addend: 0x0, symName: '__ZNSt3__19__sift_upB7v160006INS_17_ClassicAlgPolicyERZ13GetNextVertexRKNS_6vectorIiNS_9allocatorIiEEEERKNS2_IbNS3_IbEEEEE3$_0PNS_4pairImiEEEEvT1_SH_OT0_NS_15iterator_traitsISH_E15difference_typeE', symObjAddr: 0x73E0, symBinAddr: 0x100008FD0, symSize: 0x120 }
  - { offsetInCU: 0x11F3C, offset: 0x11F3C, size: 0x8, addend: 0x0, symName: '__ZNSt3__17__sort5IRZ13GetNextVertexRKNS_6vectorIiNS_9allocatorIiEEEERKNS1_IbNS2_IbEEEEE3$_0PNS_4pairImiEEEEjT0_SG_SG_SG_SG_T_', symObjAddr: 0x7500, symBinAddr: 0x1000090F0, symSize: 0x140 }
  - { offsetInCU: 0x1203A, offset: 0x1203A, size: 0x8, addend: 0x0, symName: __ZNSt3__112__to_addressB7v160006INS_11__wrap_iterIPNS_4pairImiEEEEvEENS_5decayIDTclsr19__to_address_helperIT_EE6__callclsr3stdE7declvalIRKS7_EEEEE4typeES9_, symObjAddr: 0x7660, symBinAddr: 0x100009250, symSize: 0x20 }
  - { offsetInCU: 0x120DB, offset: 0x120DB, size: 0x8, addend: 0x0, symName: __ZNSt3__1eqB7v160006IPNS_4pairImiEEEEbRKNS_11__wrap_iterIT_EES8_, symObjAddr: 0x7780, symBinAddr: 0x100009370, symSize: 0x40 }
  - { offsetInCU: 0x1211E, offset: 0x1211E, size: 0x8, addend: 0x0, symName: __ZNSt3__118__debug_db_erase_cB7v160006INS_6vectorINS_4pairImiEENS_9allocatorIS3_EEEEEEvPT_, symObjAddr: 0x7990, symBinAddr: 0x100009580, symSize: 0x10 }
  - { offsetInCU: 0x1214F, offset: 0x1214F, size: 0x8, addend: 0x0, symName: __ZNSt3__119__allocate_at_leastB7v160006INS_9allocatorImEEEEDaRT_m, symObjAddr: 0x7DB0, symBinAddr: 0x1000099A0, symSize: 0x40 }
  - { offsetInCU: 0x12192, offset: 0x12192, size: 0x8, addend: 0x0, symName: __ZNSt3__117allocate_at_leastB7v160006INS_9allocatorImEEEENS_17allocation_resultINS_16allocator_traitsIT_E7pointerEEERS5_m, symObjAddr: 0x7EE0, symBinAddr: 0x100009AD0, symSize: 0x40 }
  - { offsetInCU: 0x121D5, offset: 0x121D5, size: 0x8, addend: 0x0, symName: __ZNSt3__16fill_nB7v160006INS_6vectorIbNS_9allocatorIbEEEEEEvNS_14__bit_iteratorIT_Lb0EXLi0EEEENS6_9size_typeEb, symObjAddr: 0x8010, symBinAddr: 0x100009C00, symSize: 0x80 }
  - { offsetInCU: 0x12227, offset: 0x12227, size: 0x8, addend: 0x0, symName: __ZNSt3__16fill_nB7v160006IPmmmEET_S2_T0_RKT1_, symObjAddr: 0x8390, symBinAddr: 0x100009F80, symSize: 0x40 }
  - { offsetInCU: 0x1228A, offset: 0x1228A, size: 0x8, addend: 0x0, symName: __ZNSt3__112__to_addressB7v160006ImEEPT_S2_, symObjAddr: 0x83D0, symBinAddr: 0x100009FC0, symSize: 0x10 }
  - { offsetInCU: 0x122BF, offset: 0x122BF, size: 0x8, addend: 0x0, symName: __ZNSt3__18__fill_nB7v160006IPmmmEET_S2_T0_RKT1_, symObjAddr: 0x83E0, symBinAddr: 0x100009FD0, symSize: 0x50 }
  - { offsetInCU: 0x12322, offset: 0x12322, size: 0x8, addend: 0x0, symName: __ZNSt3__121__convert_to_integralB7v160006Em, symObjAddr: 0x8430, symBinAddr: 0x10000A020, symSize: 0x10 }
  - { offsetInCU: 0x1234E, offset: 0x1234E, size: 0x8, addend: 0x0, symName: __ZNSt3__16fill_nB7v160006IPmmiEET_S2_T0_RKT1_, symObjAddr: 0x8470, symBinAddr: 0x10000A060, symSize: 0x40 }
  - { offsetInCU: 0x123B1, offset: 0x123B1, size: 0x8, addend: 0x0, symName: __ZNSt3__18__fill_nB7v160006IPmmiEET_S2_T0_RKT1_, symObjAddr: 0x84B0, symBinAddr: 0x10000A0A0, symSize: 0x50 }
  - { offsetInCU: 0x12414, offset: 0x12414, size: 0x8, addend: 0x0, symName: __ZNSt3__122__make_exception_guardB7v160006INS_6vectorIiNS_9allocatorIiEEE16__destroy_vectorEEENS_28__exception_guard_exceptionsIT_EES7_, symObjAddr: 0x8720, symBinAddr: 0x10000A310, symSize: 0x40 }
  - { offsetInCU: 0x12449, offset: 0x12449, size: 0x8, addend: 0x0, symName: __ZNSt3__119__debug_db_insert_cB7v160006INS_6vectorIiNS_9allocatorIiEEEEEEvPT_, symObjAddr: 0x8790, symBinAddr: 0x10000A380, symSize: 0x10 }
  - { offsetInCU: 0x1247A, offset: 0x1247A, size: 0x8, addend: 0x0, symName: __ZNSt3__119__allocate_at_leastB7v160006INS_9allocatorIiEEEEDaRT_m, symObjAddr: 0x8AE0, symBinAddr: 0x10000A6D0, symSize: 0x40 }
  - { offsetInCU: 0x124BD, offset: 0x124BD, size: 0x8, addend: 0x0, symName: __ZNSt3__117allocate_at_leastB7v160006INS_9allocatorIiEEEENS_17allocation_resultINS_16allocator_traitsIT_E7pointerEEERS5_m, symObjAddr: 0x8C80, symBinAddr: 0x10000A870, symSize: 0x40 }
  - { offsetInCU: 0x12500, offset: 0x12500, size: 0x8, addend: 0x0, symName: __ZNSt3__112__to_addressB7v160006IiEEPT_S2_, symObjAddr: 0x8E20, symBinAddr: 0x10000AA10, symSize: 0x10 }
  - { offsetInCU: 0x1255A, offset: 0x1255A, size: 0x8, addend: 0x0, symName: __ZNSt3__112construct_atB7v160006IiJRKiEPiEEPT_S5_DpOT0_, symObjAddr: 0x8F40, symBinAddr: 0x10000AB30, symSize: 0x30 }
  - { offsetInCU: 0x125CA, offset: 0x125CA, size: 0x8, addend: 0x0, symName: __ZNSt3__118__debug_db_erase_cB7v160006INS_6vectorIiNS_9allocatorIiEEEEEEvPT_, symObjAddr: 0x9110, symBinAddr: 0x10000AD00, symSize: 0x10 }
  - { offsetInCU: 0x125FB, offset: 0x125FB, size: 0x8, addend: 0x0, symName: __ZNSt3__110destroy_atB7v160006IiLi0EEEvPT_, symObjAddr: 0x9210, symBinAddr: 0x10000AE00, symSize: 0x20 }
  - { offsetInCU: 0x12632, offset: 0x12632, size: 0x8, addend: 0x0, symName: __ZNSt3__112__destroy_atB7v160006IiLi0EEEvPT_, symObjAddr: 0x9230, symBinAddr: 0x10000AE20, symSize: 0x10 }
  - { offsetInCU: 0x12669, offset: 0x12669, size: 0x8, addend: 0x0, symName: __ZNSt3__1eqB7v160006IP4EdgeEEbRKNS_11__wrap_iterIT_EES7_, symObjAddr: 0x9300, symBinAddr: 0x10000AEF0, symSize: 0x40 }
  - { offsetInCU: 0x126AC, offset: 0x126AC, size: 0x8, addend: 0x0, symName: __ZNSt3__118__debug_db_erase_cB7v160006INS_6vectorINS_4pairIiiEENS_9allocatorIS3_EEEEEEvPT_, symObjAddr: 0x95B0, symBinAddr: 0x10000B1A0, symSize: 0x10 }
  - { offsetInCU: 0x126DD, offset: 0x126DD, size: 0x8, addend: 0x0, symName: __ZNSt3__112__to_addressB7v160006INS_4pairIiiEEEEPT_S4_, symObjAddr: 0x96C0, symBinAddr: 0x10000B2B0, symSize: 0x10 }
  - { offsetInCU: 0x12712, offset: 0x12712, size: 0x8, addend: 0x0, symName: __ZNSt3__110destroy_atB7v160006INS_4pairIiiEELi0EEEvPT_, symObjAddr: 0x9770, symBinAddr: 0x10000B360, symSize: 0x20 }
  - { offsetInCU: 0x12749, offset: 0x12749, size: 0x8, addend: 0x0, symName: __ZNSt3__112__destroy_atB7v160006INS_4pairIiiEELi0EEEvPT_, symObjAddr: 0x9790, symBinAddr: 0x10000B380, symSize: 0x10 }
  - { offsetInCU: 0x12780, offset: 0x12780, size: 0x8, addend: 0x0, symName: __ZNSt3__125__debug_db_invalidate_allB7v160006INS_6vectorIbNS_9allocatorIbEEE16__destroy_vectorEEEvPT_, symObjAddr: 0x9990, symBinAddr: 0x10000B580, symSize: 0x10 }
  - { offsetInCU: 0x127B1, offset: 0x127B1, size: 0x8, addend: 0x0, symName: __ZNSt3__116__pad_and_outputB7v160006IcNS_11char_traitsIcEEEENS_19ostreambuf_iteratorIT_T0_EES6_PKS4_S8_S8_RNS_8ios_baseES4_, symObjAddr: 0x9C20, symBinAddr: 0x10000B810, symSize: 0x220 }
  - { offsetInCU: 0x12881, offset: 0x12881, size: 0x8, addend: 0x0, symName: __ZNSt3__119__debug_db_insert_cB7v160006INS_12basic_stringIcNS_11char_traitsIcEENS_9allocatorIcEEEEEEvPT_, symObjAddr: 0xA0B0, symBinAddr: 0x10000BCA0, symSize: 0x10 }
  - { offsetInCU: 0x128B2, offset: 0x128B2, size: 0x8, addend: 0x0, symName: __ZNSt3__112__to_addressB7v160006IcEEPT_S2_, symObjAddr: 0xA150, symBinAddr: 0x10000BD40, symSize: 0x10 }
  - { offsetInCU: 0x128E7, offset: 0x128E7, size: 0x8, addend: 0x0, symName: __ZNSt3__19use_facetB7v160006INS_5ctypeIcEEEERKT_RKNS_6localeE, symObjAddr: 0xA3E0, symBinAddr: 0x10000BFD0, symSize: 0x30 }
  - { offsetInCU: 0x12DB6, offset: 0x12DB6, size: 0x8, addend: 0x0, symName: __ZNSt3__118__constexpr_strlenB7v160006EPKc, symObjAddr: 0xA470, symBinAddr: 0x10000C060, symSize: 0x20 }
  - { offsetInCU: 0x12DE2, offset: 0x12DE2, size: 0x8, addend: 0x0, symName: __ZNSt3__119__debug_db_insert_cB7v160006INS_6vectorINS_4pairIiiEENS_9allocatorIS3_EEEEEEvPT_, symObjAddr: 0xA560, symBinAddr: 0x10000C150, symSize: 0x10 }
  - { offsetInCU: 0x12E13, offset: 0x12E13, size: 0x8, addend: 0x0, symName: __ZNSt3__1neB7v160006ERKNS_16__deque_iteratorIiPiRiPS1_lLl1024EEES6_, symObjAddr: 0xAC20, symBinAddr: 0x10000C810, symSize: 0x30 }
  - { offsetInCU: 0x12E50, offset: 0x12E50, size: 0x8, addend: 0x0, symName: __ZNSt3__1eqB7v160006ERKNS_16__deque_iteratorIiPiRiPS1_lLl1024EEES6_, symObjAddr: 0xAE50, symBinAddr: 0x10000CA40, symSize: 0x30 }
  - { offsetInCU: 0x12E8D, offset: 0x12E8D, size: 0x8, addend: 0x0, symName: __ZNSt3__112__to_addressB7v160006IPiEEPT_S3_, symObjAddr: 0xB0F0, symBinAddr: 0x10000CCE0, symSize: 0x10 }
  - { offsetInCU: 0x12EC2, offset: 0x12EC2, size: 0x8, addend: 0x0, symName: __ZNSt3__110destroy_atB7v160006IPiLi0EEEvPT_, symObjAddr: 0xB100, symBinAddr: 0x10000CCF0, symSize: 0x20 }
  - { offsetInCU: 0x12EF9, offset: 0x12EF9, size: 0x8, addend: 0x0, symName: __ZNSt3__112__destroy_atB7v160006IPiLi0EEEvPT_, symObjAddr: 0xB120, symBinAddr: 0x10000CD10, symSize: 0x10 }
  - { offsetInCU: 0x132D5, offset: 0x132D5, size: 0x8, addend: 0x0, symName: __ZNSt3__14swapB7v160006IPPiEENS_9enable_ifIXaasr21is_move_constructibleIT_EE5valuesr18is_move_assignableIS4_EE5valueEvE4typeERS4_S7_, symObjAddr: 0xC430, symBinAddr: 0x10000E020, symSize: 0x40 }
  - { offsetInCU: 0x13326, offset: 0x13326, size: 0x8, addend: 0x0, symName: __ZNSt3__14moveB7v160006IPPiS2_EET0_T_S4_S3_, symObjAddr: 0xC4F0, symBinAddr: 0x10000E0E0, symSize: 0x40 }
  - { offsetInCU: 0x1339D, offset: 0x1339D, size: 0x8, addend: 0x0, symName: __ZNSt3__16__moveB7v160006INS_17_ClassicAlgPolicyEPPiS3_S3_EENS_4pairIT0_T2_EES5_T1_S6_, symObjAddr: 0xC690, symBinAddr: 0x10000E280, symSize: 0x40 }
  - { offsetInCU: 0x13409, offset: 0x13409, size: 0x8, addend: 0x0, symName: __ZNSt3__123__dispatch_copy_or_moveB7v160006INS_17_ClassicAlgPolicyENS_11__move_loopIS1_EENS_14__move_trivialEPPiS6_S6_EENS_4pairIT2_T4_EES8_T3_S9_, symObjAddr: 0xC6D0, symBinAddr: 0x10000E2C0, symSize: 0x40 }
  - { offsetInCU: 0x13487, offset: 0x13487, size: 0x8, addend: 0x0, symName: __ZNSt3__121__unwrap_and_dispatchB7v160006INS_10__overloadINS_11__move_loopINS_17_ClassicAlgPolicyEEENS_14__move_trivialEEEPPiS8_S8_Li0EEENS_4pairIT0_T2_EESA_T1_SB_, symObjAddr: 0xC710, symBinAddr: 0x10000E300, symSize: 0xB0 }
  - { offsetInCU: 0x13516, offset: 0x13516, size: 0x8, addend: 0x0, symName: __ZNSt3__114__unwrap_rangeB7v160006IPPiS2_EEDaT_T0_, symObjAddr: 0xC7C0, symBinAddr: 0x10000E3B0, symSize: 0x40 }
  - { offsetInCU: 0x13727, offset: 0x13727, size: 0x8, addend: 0x0, symName: __ZNSt3__113__unwrap_iterB7v160006IPPiNS_18__unwrap_iter_implIS2_Lb1EEELi0EEEDTclsrT0_8__unwrapclsr3stdE7declvalIT_EEEES6_, symObjAddr: 0xC840, symBinAddr: 0x10000E430, symSize: 0x20 }
  - { offsetInCU: 0x1376B, offset: 0x1376B, size: 0x8, addend: 0x0, symName: __ZNSt3__19make_pairB7v160006IPPiS2_EENS_4pairINS_18__unwrap_ref_decayIT_E4typeENS4_IT0_E4typeEEEOS5_OS8_, symObjAddr: 0xC860, symBinAddr: 0x10000E450, symSize: 0x30 }
  - { offsetInCU: 0x137BA, offset: 0x137BA, size: 0x8, addend: 0x0, symName: __ZNSt3__114__rewrap_rangeB7v160006IPPiS2_S2_EET0_S3_T1_, symObjAddr: 0xC890, symBinAddr: 0x10000E480, symSize: 0x30 }
  - { offsetInCU: 0x1380F, offset: 0x1380F, size: 0x8, addend: 0x0, symName: __ZNSt3__113__rewrap_iterB7v160006IPPiS2_NS_18__unwrap_iter_implIS2_Lb1EEEEET_S5_T0_, symObjAddr: 0xC8C0, symBinAddr: 0x10000E4B0, symSize: 0x40 }
  - { offsetInCU: 0x138B4, offset: 0x138B4, size: 0x8, addend: 0x0, symName: __ZNSt3__119__copy_trivial_implB7v160006IPiS1_EENS_4pairIPT_PT0_EES4_S4_S6_, symObjAddr: 0xC9B0, symBinAddr: 0x10000E5A0, symSize: 0x70 }
  - { offsetInCU: 0x1391C, offset: 0x1391C, size: 0x8, addend: 0x0, symName: __ZNSt3__19make_pairB7v160006IRPPiS2_EENS_4pairINS_18__unwrap_ref_decayIT_E4typeENS5_IT0_E4typeEEEOS6_OS9_, symObjAddr: 0xCA20, symBinAddr: 0x10000E610, symSize: 0x30 }
  - { offsetInCU: 0x139BE, offset: 0x139BE, size: 0x8, addend: 0x0, symName: __ZNSt3__18distanceB7v160006INS_13move_iteratorIPPiEEEENS_15iterator_traitsIT_E15difference_typeES6_S6_, symObjAddr: 0xCB50, symBinAddr: 0x10000E740, symSize: 0x40 }
  - { offsetInCU: 0x13A01, offset: 0x13A01, size: 0x8, addend: 0x0, symName: __ZNSt3__110__distanceB7v160006INS_13move_iteratorIPPiEEEENS_15iterator_traitsIT_E15difference_typeES6_S6_NS_26random_access_iterator_tagE, symObjAddr: 0xCC80, symBinAddr: 0x10000E870, symSize: 0x30 }
  - { offsetInCU: 0x13A4E, offset: 0x13A4E, size: 0x8, addend: 0x0, symName: __ZNSt3__1miB7v160006IPPiS2_EEDTmicldtfp_4baseEcldtfp0_4baseEERKNS_13move_iteratorIT_EERKNS4_IT0_EE, symObjAddr: 0xCCB0, symBinAddr: 0x10000E8A0, symSize: 0x40 }
  - { offsetInCU: 0x13AC2, offset: 0x13AC2, size: 0x8, addend: 0x0, symName: __ZNSt3__112construct_atB7v160006IPiJS1_EPS1_EEPT_S4_DpOT0_, symObjAddr: 0xCD40, symBinAddr: 0x10000E930, symSize: 0x30 }
  - { offsetInCU: 0x13B32, offset: 0x13B32, size: 0x8, addend: 0x0, symName: __ZNSt3__112construct_atB7v160006IPiJRKS1_EPS1_EEPT_S6_DpOT0_, symObjAddr: 0xCE10, symBinAddr: 0x10000EA00, symSize: 0x30 }
  - { offsetInCU: 0x13BA2, offset: 0x13BA2, size: 0x8, addend: 0x0, symName: __ZNSt3__113move_backwardB7v160006IPPiS2_EET0_T_S4_S3_, symObjAddr: 0xCE40, symBinAddr: 0x10000EA30, symSize: 0x40 }
  - { offsetInCU: 0x13BFC, offset: 0x13BFC, size: 0x8, addend: 0x0, symName: __ZNSt3__115__move_backwardB7v160006INS_17_ClassicAlgPolicyEPPiS3_S3_EENS_4pairIT0_T2_EES5_T1_S6_, symObjAddr: 0xCE80, symBinAddr: 0x10000EA70, symSize: 0x40 }
  - { offsetInCU: 0x13C68, offset: 0x13C68, size: 0x8, addend: 0x0, symName: __ZNSt3__123__dispatch_copy_or_moveB7v160006INS_17_ClassicAlgPolicyENS_20__move_backward_loopIS1_EENS_23__move_backward_trivialEPPiS6_S6_EENS_4pairIT2_T4_EES8_T3_S9_, symObjAddr: 0xCEC0, symBinAddr: 0x10000EAB0, symSize: 0x40 }
  - { offsetInCU: 0x13CE6, offset: 0x13CE6, size: 0x8, addend: 0x0, symName: __ZNSt3__121__unwrap_and_dispatchB7v160006INS_10__overloadINS_20__move_backward_loopINS_17_ClassicAlgPolicyEEENS_23__move_backward_trivialEEEPPiS8_S8_Li0EEENS_4pairIT0_T2_EESA_T1_SB_, symObjAddr: 0xCF00, symBinAddr: 0x10000EAF0, symSize: 0xB0 }
  - { offsetInCU: 0x13DBB, offset: 0x13DBB, size: 0x8, addend: 0x0, symName: __ZNSt3__128__copy_backward_trivial_implB7v160006IPiS1_EENS_4pairIPT_PT0_EES4_S4_S6_, symObjAddr: 0xCFF0, symBinAddr: 0x10000EBE0, symSize: 0x80 }
  - { offsetInCU: 0x13E23, offset: 0x13E23, size: 0x8, addend: 0x0, symName: __ZNSt3__19make_pairB7v160006IRPPiS3_EENS_4pairINS_18__unwrap_ref_decayIT_E4typeENS5_IT0_E4typeEEEOS6_OS9_, symObjAddr: 0xD070, symBinAddr: 0x10000EC60, symSize: 0x30 }
  - { offsetInCU: 0x13E72, offset: 0x13E72, size: 0x8, addend: 0x0, symName: __ZNSt3__119__allocate_at_leastB7v160006INS_9allocatorIPiEEEEDaRT_m, symObjAddr: 0xD200, symBinAddr: 0x10000EDF0, symSize: 0x40 }
  - { offsetInCU: 0x13EB5, offset: 0x13EB5, size: 0x8, addend: 0x0, symName: __ZNSt3__117allocate_at_leastB7v160006INS_9allocatorIPiEEEENS_17allocation_resultINS_16allocator_traitsIT_E7pointerEEERS6_m, symObjAddr: 0xD2A0, symBinAddr: 0x10000EE90, symSize: 0x40 }
  - { offsetInCU: 0x1442C, offset: 0x1442C, size: 0x8, addend: 0x0, symName: __ZSt28__throw_bad_array_new_lengthB7v160006v, symObjAddr: 0x1E90, symBinAddr: 0x100003A80, symSize: 0x40 }
  - { offsetInCU: 0x14B08, offset: 0x14B08, size: 0x8, addend: 0x0, symName: __ZNSt3__16vectorI4EdgeNS_9allocatorIS1_EEE26__swap_out_circular_bufferERNS_14__split_bufferIS1_RS3_EE, symObjAddr: 0x3040, symBinAddr: 0x100004C30, symSize: 0x130 }
  - { offsetInCU: 0x14D2A, offset: 0x14D2A, size: 0x8, addend: 0x0, symName: __ZNSt3__16vectorINS_4pairImiEENS_9allocatorIS2_EEE26__swap_out_circular_bufferERNS_14__split_bufferIS2_RS4_EE, symObjAddr: 0x44D0, symBinAddr: 0x1000060C0, symSize: 0x130 }
  - { offsetInCU: 0x1778C, offset: 0x1778C, size: 0x8, addend: 0x0, symName: __ZlsRNSt3__113basic_ostreamIcNS_11char_traitsIcEEEERKNS_6vectorIiNS_9allocatorIiEEEE, symObjAddr: 0x0, symBinAddr: 0x100001BF0, symSize: 0x140 }
  - { offsetInCU: 0x17826, offset: 0x17826, size: 0x8, addend: 0x0, symName: __ZNKSt3__16vectorIiNS_9allocatorIiEEE5beginB7v160006Ev, symObjAddr: 0x140, symBinAddr: 0x100001D30, symSize: 0x30 }
  - { offsetInCU: 0x1784E, offset: 0x1784E, size: 0x8, addend: 0x0, symName: __ZNKSt3__16vectorIiNS_9allocatorIiEEE3endB7v160006Ev, symObjAddr: 0x170, symBinAddr: 0x100001D60, symSize: 0x30 }
  - { offsetInCU: 0x17876, offset: 0x17876, size: 0x8, addend: 0x0, symName: __ZNKSt3__111__wrap_iterIPKiEdeB7v160006Ev, symObjAddr: 0x1D0, symBinAddr: 0x100001DC0, symSize: 0x20 }
  - { offsetInCU: 0x1789C, offset: 0x1789C, size: 0x8, addend: 0x0, symName: __ZNSt3__114numeric_limitsIiE3maxB7v160006Ev, symObjAddr: 0x1F0, symBinAddr: 0x100001DE0, symSize: 0x10 }
  - { offsetInCU: 0x178B0, offset: 0x178B0, size: 0x8, addend: 0x0, symName: __ZNSt3__111__wrap_iterIPKiEppB7v160006Ev, symObjAddr: 0x240, symBinAddr: 0x100001E30, symSize: 0x20 }
  - { offsetInCU: 0x178D5, offset: 0x178D5, size: 0x8, addend: 0x0, symName: __Z16GetAdjacencyListv, symObjAddr: 0x290, symBinAddr: 0x100001E80, symSize: 0x160 }
  - { offsetInCU: 0x1796B, offset: 0x1796B, size: 0x8, addend: 0x0, symName: __ZNSt3__16vectorINS0_I4EdgeNS_9allocatorIS1_EEEENS2_IS4_EEEC1Em, symObjAddr: 0x3F0, symBinAddr: 0x100001FE0, symSize: 0x30 }
  - { offsetInCU: 0x179A6, offset: 0x179A6, size: 0x8, addend: 0x0, symName: __ZNSt3__16vectorINS0_I4EdgeNS_9allocatorIS1_EEEENS2_IS4_EEEixB7v160006Em, symObjAddr: 0x420, symBinAddr: 0x100002010, symSize: 0x20 }
  - { offsetInCU: 0x179E3, offset: 0x179E3, size: 0x8, addend: 0x0, symName: __ZNSt3__16vectorI4EdgeNS_9allocatorIS1_EEE12emplace_backIJiRiEEERS1_DpOT_, symObjAddr: 0x440, symBinAddr: 0x100002030, symSize: 0x70 }
  - { offsetInCU: 0x17A39, offset: 0x17A39, size: 0x8, addend: 0x0, symName: __ZNSt3__16vectorINS0_I4EdgeNS_9allocatorIS1_EEEENS2_IS4_EEED1B7v160006Ev, symObjAddr: 0x4B0, symBinAddr: 0x1000020A0, symSize: 0x20 }
  - { offsetInCU: 0x17A62, offset: 0x17A62, size: 0x8, addend: 0x0, symName: __Z13GetNextVertexRKNSt3__16vectorIiNS_9allocatorIiEEEERKNS0_IbNS1_IbEEEE, symObjAddr: 0x4D0, symBinAddr: 0x1000020C0, symSize: 0x220 }
  - { offsetInCU: 0x17B53, offset: 0x17B53, size: 0x8, addend: 0x0, symName: __ZNSt3__16vectorINS_4pairImiEENS_9allocatorIS2_EEEC1B7v160006Ev, symObjAddr: 0x6F0, symBinAddr: 0x1000022E0, symSize: 0x20 }
  - { offsetInCU: 0x17B7D, offset: 0x17B7D, size: 0x8, addend: 0x0, symName: __ZNSt3__16vectorINS_4pairImiEENS_9allocatorIS2_EEE7reserveEm, symObjAddr: 0x710, symBinAddr: 0x100002300, symSize: 0xF0 }
  - { offsetInCU: 0x17BD8, offset: 0x17BD8, size: 0x8, addend: 0x0, symName: __ZNKSt3__16vectorIiNS_9allocatorIiEEE4sizeB7v160006Ev, symObjAddr: 0x800, symBinAddr: 0x1000023F0, symSize: 0x20 }
  - { offsetInCU: 0x17BFE, offset: 0x17BFE, size: 0x8, addend: 0x0, symName: __ZNSt3__16vectorINS_4pairImiEENS_9allocatorIS2_EEE9push_backB7v160006EOS2_, symObjAddr: 0x820, symBinAddr: 0x100002410, symSize: 0x60 }
  - { offsetInCU: 0x17C35, offset: 0x17C35, size: 0x8, addend: 0x0, symName: __ZNKSt3__16vectorIiNS_9allocatorIiEEEixB7v160006Em, symObjAddr: 0x880, symBinAddr: 0x100002470, symSize: 0x20 }
  - { offsetInCU: 0x17C6C, offset: 0x17C6C, size: 0x8, addend: 0x0, symName: __ZNSt3__14pairImiEC1B7v160006IRmRKiLPv0EEEOT_OT0_, symObjAddr: 0x8A0, symBinAddr: 0x100002490, symSize: 0x30 }
  - { offsetInCU: 0x17CCA, offset: 0x17CCA, size: 0x8, addend: 0x0, symName: __ZNSt3__16vectorINS_4pairImiEENS_9allocatorIS2_EEE5beginB7v160006Ev, symObjAddr: 0x910, symBinAddr: 0x100002500, symSize: 0x30 }
  - { offsetInCU: 0x17CF2, offset: 0x17CF2, size: 0x8, addend: 0x0, symName: __ZNSt3__16vectorINS_4pairImiEENS_9allocatorIS2_EEE3endB7v160006Ev, symObjAddr: 0x940, symBinAddr: 0x100002530, symSize: 0x30 }
  - { offsetInCU: 0x17D1A, offset: 0x17D1A, size: 0x8, addend: 0x0, symName: __ZNKSt3__111__wrap_iterIPNS_4pairImiEEEdeB7v160006Ev, symObjAddr: 0x9A0, symBinAddr: 0x100002590, symSize: 0x20 }
  - { offsetInCU: 0x17D40, offset: 0x17D40, size: 0x8, addend: 0x0, symName: __ZNKSt3__16vectorIbNS_9allocatorIbEEEixB7v160006Em, symObjAddr: 0x9C0, symBinAddr: 0x1000025B0, symSize: 0x40 }
  - { offsetInCU: 0x17D75, offset: 0x17D75, size: 0x8, addend: 0x0, symName: __ZNKSt3__121__bit_const_referenceINS_6vectorIbNS_9allocatorIbEEEEEcvbB7v160006Ev, symObjAddr: 0xA00, symBinAddr: 0x1000025F0, symSize: 0x30 }
  - { offsetInCU: 0x17D9B, offset: 0x17D9B, size: 0x8, addend: 0x0, symName: __ZNSt3__111__wrap_iterIPNS_4pairImiEEEppB7v160006Ev, symObjAddr: 0xA30, symBinAddr: 0x100002620, symSize: 0x20 }
  - { offsetInCU: 0x17DC1, offset: 0x17DC1, size: 0x8, addend: 0x0, symName: __ZNSt3__16vectorINS_4pairImiEENS_9allocatorIS2_EEED1B7v160006Ev, symObjAddr: 0xA50, symBinAddr: 0x100002640, symSize: 0x20 }
  - { offsetInCU: 0x17DEA, offset: 0x17DEA, size: 0x8, addend: 0x0, symName: __Z8DijkstraiRNSt3__16vectorINS0_I4EdgeNS_9allocatorIS1_EEEENS2_IS4_EEEE, symObjAddr: 0xA70, symBinAddr: 0x100002660, symSize: 0x490 }
  - { offsetInCU: 0x17ECD, offset: 0x17ECD, size: 0x8, addend: 0x0, symName: __ZNKSt3__16vectorINS0_I4EdgeNS_9allocatorIS1_EEEENS2_IS4_EEE4sizeB7v160006Ev, symObjAddr: 0xF00, symBinAddr: 0x100002AF0, symSize: 0x30 }
  - { offsetInCU: 0x17EF3, offset: 0x17EF3, size: 0x8, addend: 0x0, symName: __ZNSt3__16vectorIbNS_9allocatorIbEEEC1EmRKb, symObjAddr: 0xF30, symBinAddr: 0x100002B20, symSize: 0x30 }
  - { offsetInCU: 0x17F3D, offset: 0x17F3D, size: 0x8, addend: 0x0, symName: __ZNSt3__16vectorIbNS_9allocatorIbEEEixB7v160006Em, symObjAddr: 0xF60, symBinAddr: 0x100002B50, symSize: 0x40 }
  - { offsetInCU: 0x17F72, offset: 0x17F72, size: 0x8, addend: 0x0, symName: __ZNSt3__115__bit_referenceINS_6vectorIbNS_9allocatorIbEEEELb1EEaSB7v160006Eb, symObjAddr: 0xFA0, symBinAddr: 0x100002B90, symSize: 0x60 }
  - { offsetInCU: 0x17FA6, offset: 0x17FA6, size: 0x8, addend: 0x0, symName: __ZNSt3__16vectorIiNS_9allocatorIiEEEC1EmRKi, symObjAddr: 0x1000, symBinAddr: 0x100002BF0, symSize: 0x30 }
  - { offsetInCU: 0x17FF0, offset: 0x17FF0, size: 0x8, addend: 0x0, symName: __ZNSt3__16vectorIiNS_9allocatorIiEEEixB7v160006Em, symObjAddr: 0x1030, symBinAddr: 0x100002C20, symSize: 0x20 }
  - { offsetInCU: 0x18027, offset: 0x18027, size: 0x8, addend: 0x0, symName: __ZNKSt3__16vectorI4EdgeNS_9allocatorIS1_EEE5emptyB7v160006Ev, symObjAddr: 0x1050, symBinAddr: 0x100002C40, symSize: 0x20 }
  - { offsetInCU: 0x180CC, offset: 0x180CC, size: 0x8, addend: 0x0, symName: __ZNSt3__114priority_queueINS_4pairIiiEENS_6vectorIS2_NS_9allocatorIS2_EEEE10ComparatorEC1B7v160006Ev, symObjAddr: 0x1070, symBinAddr: 0x100002C60, symSize: 0x20 }
  - { offsetInCU: 0x180F6, offset: 0x180F6, size: 0x8, addend: 0x0, symName: __ZNSt3__15dequeIiNS_9allocatorIiEEEC1B7v160006Ev, symObjAddr: 0x1090, symBinAddr: 0x100002C80, symSize: 0x20 }
  - { offsetInCU: 0x18120, offset: 0x18120, size: 0x8, addend: 0x0, symName: __ZNSt3__15dequeIiNS_9allocatorIiEEE9push_backERKi, symObjAddr: 0x10B0, symBinAddr: 0x100002CA0, symSize: 0x90 }
  - { offsetInCU: 0x18166, offset: 0x18166, size: 0x8, addend: 0x0, symName: __ZNKSt3__15dequeIiNS_9allocatorIiEEE5emptyB7v160006Ev, symObjAddr: 0x1140, symBinAddr: 0x100002D30, symSize: 0x30 }
  - { offsetInCU: 0x1818C, offset: 0x1818C, size: 0x8, addend: 0x0, symName: __ZNSt3__15dequeIiNS_9allocatorIiEEE5frontEv, symObjAddr: 0x1170, symBinAddr: 0x100002D60, symSize: 0x50 }
  - { offsetInCU: 0x181B4, offset: 0x181B4, size: 0x8, addend: 0x0, symName: __ZNSt3__16vectorI4EdgeNS_9allocatorIS1_EEE5beginB7v160006Ev, symObjAddr: 0x11C0, symBinAddr: 0x100002DB0, symSize: 0x30 }
  - { offsetInCU: 0x181DC, offset: 0x181DC, size: 0x8, addend: 0x0, symName: __ZNSt3__16vectorI4EdgeNS_9allocatorIS1_EEE3endB7v160006Ev, symObjAddr: 0x11F0, symBinAddr: 0x100002DE0, symSize: 0x30 }
  - { offsetInCU: 0x18204, offset: 0x18204, size: 0x8, addend: 0x0, symName: __ZNKSt3__111__wrap_iterIP4EdgeEdeB7v160006Ev, symObjAddr: 0x1250, symBinAddr: 0x100002E40, symSize: 0x20 }
  - { offsetInCU: 0x1822A, offset: 0x1822A, size: 0x8, addend: 0x0, symName: __ZNSt3__111__wrap_iterIP4EdgeEppB7v160006Ev, symObjAddr: 0x1270, symBinAddr: 0x100002E60, symSize: 0x20 }
  - { offsetInCU: 0x18250, offset: 0x18250, size: 0x8, addend: 0x0, symName: __ZNSt3__15dequeIiNS_9allocatorIiEEE9pop_frontEv, symObjAddr: 0x1290, symBinAddr: 0x100002E80, symSize: 0xA0 }
  - { offsetInCU: 0x18287, offset: 0x18287, size: 0x8, addend: 0x0, symName: __ZNSt3__15dequeIiNS_9allocatorIiEEED1B7v160006Ev, symObjAddr: 0x1330, symBinAddr: 0x100002F20, symSize: 0x20 }
  - { offsetInCU: 0x182B1, offset: 0x182B1, size: 0x8, addend: 0x0, symName: __ZNSt3__16vectorIiNS_9allocatorIiEEED1B7v160006Ev, symObjAddr: 0x1350, symBinAddr: 0x100002F40, symSize: 0x20 }
  - { offsetInCU: 0x182DB, offset: 0x182DB, size: 0x8, addend: 0x0, symName: __ZNSt3__114priority_queueINS_4pairIiiEENS_6vectorIS2_NS_9allocatorIS2_EEEE10ComparatorED1Ev, symObjAddr: 0x1370, symBinAddr: 0x100002F60, symSize: 0x20 }
  - { offsetInCU: 0x18308, offset: 0x18308, size: 0x8, addend: 0x0, symName: __ZNSt3__16vectorIbNS_9allocatorIbEEED1B7v160006Ev, symObjAddr: 0x1390, symBinAddr: 0x100002F80, symSize: 0x20 }
  - { offsetInCU: 0x18331, offset: 0x18331, size: 0x8, addend: 0x0, symName: __Z12MainDijkstraRNSt3__16vectorINS0_I4EdgeNS_9allocatorIS1_EEEENS2_IS4_EEEE, symObjAddr: 0x13B0, symBinAddr: 0x100002FA0, symSize: 0x60 }
  - { offsetInCU: 0x18376, offset: 0x18376, size: 0x8, addend: 0x0, symName: _main, symObjAddr: 0x1410, symBinAddr: 0x100003000, symSize: 0x70 }
  - { offsetInCU: 0x1839F, offset: 0x1839F, size: 0x8, addend: 0x0, symName: __ZNKSt3__16vectorIiNS_9allocatorIiEEE11__make_iterB7v160006EPKi, symObjAddr: 0x1480, symBinAddr: 0x100003070, symSize: 0x30 }
  - { offsetInCU: 0x183D4, offset: 0x183D4, size: 0x8, addend: 0x0, symName: __ZNSt3__111__wrap_iterIPKiEC1B7v160006EPKvS2_, symObjAddr: 0x14B0, symBinAddr: 0x1000030A0, symSize: 0x30 }
  - { offsetInCU: 0x1841A, offset: 0x1841A, size: 0x8, addend: 0x0, symName: __ZNSt3__111__wrap_iterIPKiEC2B7v160006EPKvS2_, symObjAddr: 0x14E0, symBinAddr: 0x1000030D0, symSize: 0x20 }
  - { offsetInCU: 0x18460, offset: 0x18460, size: 0x8, addend: 0x0, symName: __ZNKSt3__111__wrap_iterIPKiE4baseB7v160006Ev, symObjAddr: 0x1540, symBinAddr: 0x100003130, symSize: 0x20 }
  - { offsetInCU: 0x18486, offset: 0x18486, size: 0x8, addend: 0x0, symName: __ZNSt3__123__libcpp_numeric_limitsIiLb1EE3maxB7v160006Ev, symObjAddr: 0x1560, symBinAddr: 0x100003150, symSize: 0x10 }
  - { offsetInCU: 0x1849A, offset: 0x1849A, size: 0x8, addend: 0x0, symName: __ZNSt3__16vectorINS0_I4EdgeNS_9allocatorIS1_EEEENS2_IS4_EEEC2Em, symObjAddr: 0x1570, symBinAddr: 0x100003160, symSize: 0xE0 }
  - { offsetInCU: 0x184F6, offset: 0x184F6, size: 0x8, addend: 0x0, symName: __ZNSt3__117__compressed_pairIPNS_6vectorI4EdgeNS_9allocatorIS2_EEEENS3_IS5_EEEC1B7v160006IDnNS_18__default_init_tagEEEOT_OT0_, symObjAddr: 0x1650, symBinAddr: 0x100003240, symSize: 0x30 }
  - { offsetInCU: 0x1854E, offset: 0x1854E, size: 0x8, addend: 0x0, symName: __ZNSt3__16vectorINS0_I4EdgeNS_9allocatorIS1_EEEENS2_IS4_EEE16__destroy_vectorC1ERS6_, symObjAddr: 0x16C0, symBinAddr: 0x1000032B0, symSize: 0x30 }
  - { offsetInCU: 0x18587, offset: 0x18587, size: 0x8, addend: 0x0, symName: __ZNSt3__16vectorINS0_I4EdgeNS_9allocatorIS1_EEEENS2_IS4_EEE11__vallocateB7v160006Em, symObjAddr: 0x1700, symBinAddr: 0x1000032F0, symSize: 0xA0 }
  - { offsetInCU: 0x185CB, offset: 0x185CB, size: 0x8, addend: 0x0, symName: __ZNSt3__16vectorINS0_I4EdgeNS_9allocatorIS1_EEEENS2_IS4_EEE18__construct_at_endEm, symObjAddr: 0x17A0, symBinAddr: 0x100003390, symSize: 0xC0 }
  - { offsetInCU: 0x1863D, offset: 0x1863D, size: 0x8, addend: 0x0, symName: __ZNSt3__128__exception_guard_exceptionsINS_6vectorINS1_I4EdgeNS_9allocatorIS2_EEEENS3_IS5_EEE16__destroy_vectorEE10__completeB7v160006Ev, symObjAddr: 0x1860, symBinAddr: 0x100003450, symSize: 0x20 }
  - { offsetInCU: 0x18663, offset: 0x18663, size: 0x8, addend: 0x0, symName: __ZNSt3__128__exception_guard_exceptionsINS_6vectorINS1_I4EdgeNS_9allocatorIS2_EEEENS3_IS5_EEE16__destroy_vectorEED1B7v160006Ev, symObjAddr: 0x1880, symBinAddr: 0x100003470, symSize: 0x20 }
  - { offsetInCU: 0x1868D, offset: 0x1868D, size: 0x8, addend: 0x0, symName: __ZNSt3__117__compressed_pairIPNS_6vectorI4EdgeNS_9allocatorIS2_EEEENS3_IS5_EEEC2B7v160006IDnNS_18__default_init_tagEEEOT_OT0_, symObjAddr: 0x18A0, symBinAddr: 0x100003490, symSize: 0x40 }
  - { offsetInCU: 0x186E5, offset: 0x186E5, size: 0x8, addend: 0x0, symName: __ZNSt3__122__compressed_pair_elemIPNS_6vectorI4EdgeNS_9allocatorIS2_EEEELi0ELb0EEC2B7v160006IDnvEEOT_, symObjAddr: 0x18E0, symBinAddr: 0x1000034D0, symSize: 0x20 }
  - { offsetInCU: 0x18727, offset: 0x18727, size: 0x8, addend: 0x0, symName: __ZNSt3__122__compressed_pair_elemINS_9allocatorINS_6vectorI4EdgeNS1_IS3_EEEEEELi1ELb1EEC2B7v160006ENS_18__default_init_tagE, symObjAddr: 0x1900, symBinAddr: 0x1000034F0, symSize: 0x20 }
  - { offsetInCU: 0x1875B, offset: 0x1875B, size: 0x8, addend: 0x0, symName: __ZNSt3__19allocatorINS_6vectorI4EdgeNS0_IS2_EEEEEC2B7v160006Ev, symObjAddr: 0x1920, symBinAddr: 0x100003510, symSize: 0x20 }
  - { offsetInCU: 0x18785, offset: 0x18785, size: 0x8, addend: 0x0, symName: __ZNSt3__116__non_trivial_ifILb1ENS_9allocatorINS_6vectorI4EdgeNS1_IS3_EEEEEEEC2B7v160006Ev, symObjAddr: 0x1940, symBinAddr: 0x100003530, symSize: 0x10 }
  - { offsetInCU: 0x187AF, offset: 0x187AF, size: 0x8, addend: 0x0, symName: __ZNSt3__128__exception_guard_exceptionsINS_6vectorINS1_I4EdgeNS_9allocatorIS2_EEEENS3_IS5_EEE16__destroy_vectorEEC1B7v160006ES8_, symObjAddr: 0x1950, symBinAddr: 0x100003540, symSize: 0x30 }
  - { offsetInCU: 0x187E7, offset: 0x187E7, size: 0x8, addend: 0x0, symName: __ZNSt3__128__exception_guard_exceptionsINS_6vectorINS1_I4EdgeNS_9allocatorIS2_EEEENS3_IS5_EEE16__destroy_vectorEEC2B7v160006ES8_, symObjAddr: 0x1980, symBinAddr: 0x100003570, symSize: 0x20 }
  - { offsetInCU: 0x1881F, offset: 0x1881F, size: 0x8, addend: 0x0, symName: __ZNSt3__16vectorINS0_I4EdgeNS_9allocatorIS1_EEEENS2_IS4_EEE16__destroy_vectorC2ERS6_, symObjAddr: 0x19A0, symBinAddr: 0x100003590, symSize: 0x20 }
  - { offsetInCU: 0x18858, offset: 0x18858, size: 0x8, addend: 0x0, symName: __ZNKSt3__16vectorINS0_I4EdgeNS_9allocatorIS1_EEEENS2_IS4_EEE8max_sizeEv, symObjAddr: 0x19C0, symBinAddr: 0x1000035B0, symSize: 0x60 }
  - { offsetInCU: 0x18880, offset: 0x18880, size: 0x8, addend: 0x0, symName: __ZNKSt3__16vectorINS0_I4EdgeNS_9allocatorIS1_EEEENS2_IS4_EEE20__throw_length_errorB7v160006Ev, symObjAddr: 0x1A20, symBinAddr: 0x100003610, symSize: 0x20 }
  - { offsetInCU: 0x188A6, offset: 0x188A6, size: 0x8, addend: 0x0, symName: __ZNSt3__16vectorINS0_I4EdgeNS_9allocatorIS1_EEEENS2_IS4_EEE7__allocB7v160006Ev, symObjAddr: 0x1A80, symBinAddr: 0x100003670, symSize: 0x20 }
  - { offsetInCU: 0x188CC, offset: 0x188CC, size: 0x8, addend: 0x0, symName: __ZNSt3__16vectorINS0_I4EdgeNS_9allocatorIS1_EEEENS2_IS4_EEE9__end_capB7v160006Ev, symObjAddr: 0x1AA0, symBinAddr: 0x100003690, symSize: 0x20 }
  - { offsetInCU: 0x188F2, offset: 0x188F2, size: 0x8, addend: 0x0, symName: __ZNKSt3__16vectorINS0_I4EdgeNS_9allocatorIS1_EEEENS2_IS4_EEE14__annotate_newB7v160006Em, symObjAddr: 0x1AC0, symBinAddr: 0x1000036B0, symSize: 0xA0 }
  - { offsetInCU: 0x18932, offset: 0x18932, size: 0x8, addend: 0x0, symName: __ZNSt3__116allocator_traitsINS_9allocatorINS_6vectorI4EdgeNS1_IS3_EEEEEEE8max_sizeB7v160006IS6_vvEEmRKS6_, symObjAddr: 0x1B90, symBinAddr: 0x100003780, symSize: 0x30 }
  - { offsetInCU: 0x1895D, offset: 0x1895D, size: 0x8, addend: 0x0, symName: __ZNKSt3__16vectorINS0_I4EdgeNS_9allocatorIS1_EEEENS2_IS4_EEE7__allocB7v160006Ev, symObjAddr: 0x1BC0, symBinAddr: 0x1000037B0, symSize: 0x20 }
  - { offsetInCU: 0x18983, offset: 0x18983, size: 0x8, addend: 0x0, symName: __ZNSt3__114numeric_limitsIlE3maxB7v160006Ev, symObjAddr: 0x1BE0, symBinAddr: 0x1000037D0, symSize: 0x10 }
  - { offsetInCU: 0x189A2, offset: 0x189A2, size: 0x8, addend: 0x0, symName: __ZNKSt3__16__lessImmEclB7v160006ERKmS3_, symObjAddr: 0x1C50, symBinAddr: 0x100003840, symSize: 0x30 }
  - { offsetInCU: 0x189E4, offset: 0x189E4, size: 0x8, addend: 0x0, symName: __ZNSt3__114numeric_limitsImE3maxB7v160006Ev, symObjAddr: 0x1C80, symBinAddr: 0x100003870, symSize: 0x10 }
  - { offsetInCU: 0x189F8, offset: 0x189F8, size: 0x8, addend: 0x0, symName: __ZNSt3__123__libcpp_numeric_limitsImLb1EE3maxB7v160006Ev, symObjAddr: 0x1C90, symBinAddr: 0x100003880, symSize: 0x10 }
  - { offsetInCU: 0x18A0C, offset: 0x18A0C, size: 0x8, addend: 0x0, symName: __ZNKSt3__117__compressed_pairIPNS_6vectorI4EdgeNS_9allocatorIS2_EEEENS3_IS5_EEE6secondB7v160006Ev, symObjAddr: 0x1CA0, symBinAddr: 0x100003890, symSize: 0x20 }
  - { offsetInCU: 0x18A32, offset: 0x18A32, size: 0x8, addend: 0x0, symName: __ZNKSt3__122__compressed_pair_elemINS_9allocatorINS_6vectorI4EdgeNS1_IS3_EEEEEELi1ELb1EE5__getB7v160006Ev, symObjAddr: 0x1CC0, symBinAddr: 0x1000038B0, symSize: 0x10 }
  - { offsetInCU: 0x18A58, offset: 0x18A58, size: 0x8, addend: 0x0, symName: __ZNSt3__123__libcpp_numeric_limitsIlLb1EE3maxB7v160006Ev, symObjAddr: 0x1CD0, symBinAddr: 0x1000038C0, symSize: 0x10 }
  - { offsetInCU: 0x18A6C, offset: 0x18A6C, size: 0x8, addend: 0x0, symName: __ZNSt12length_errorC1B7v160006EPKc, symObjAddr: 0x1D50, symBinAddr: 0x100003940, symSize: 0x30 }
  - { offsetInCU: 0x18AA4, offset: 0x18AA4, size: 0x8, addend: 0x0, symName: __ZNSt12length_errorC2B7v160006EPKc, symObjAddr: 0x1D80, symBinAddr: 0x100003970, symSize: 0x40 }
  - { offsetInCU: 0x18ADC, offset: 0x18ADC, size: 0x8, addend: 0x0, symName: __ZNSt3__19allocatorINS_6vectorI4EdgeNS0_IS2_EEEEE17allocate_at_leastB7v160006Em, symObjAddr: 0x1E00, symBinAddr: 0x1000039F0, symSize: 0x40 }
  - { offsetInCU: 0x18B10, offset: 0x18B10, size: 0x8, addend: 0x0, symName: __ZNSt3__19allocatorINS_6vectorI4EdgeNS0_IS2_EEEEE8allocateB7v160006Em, symObjAddr: 0x1E40, symBinAddr: 0x100003A30, symSize: 0x50 }
  - { offsetInCU: 0x18B44, offset: 0x18B44, size: 0x8, addend: 0x0, symName: __ZNSt3__117__compressed_pairIPNS_6vectorI4EdgeNS_9allocatorIS2_EEEENS3_IS5_EEE6secondB7v160006Ev, symObjAddr: 0x1FA0, symBinAddr: 0x100003B90, symSize: 0x20 }
  - { offsetInCU: 0x18B6A, offset: 0x18B6A, size: 0x8, addend: 0x0, symName: __ZNSt3__122__compressed_pair_elemINS_9allocatorINS_6vectorI4EdgeNS1_IS3_EEEEEELi1ELb1EE5__getB7v160006Ev, symObjAddr: 0x1FC0, symBinAddr: 0x100003BB0, symSize: 0x10 }
  - { offsetInCU: 0x18B90, offset: 0x18B90, size: 0x8, addend: 0x0, symName: __ZNSt3__117__compressed_pairIPNS_6vectorI4EdgeNS_9allocatorIS2_EEEENS3_IS5_EEE5firstB7v160006Ev, symObjAddr: 0x1FD0, symBinAddr: 0x100003BC0, symSize: 0x20 }
  - { offsetInCU: 0x18BB6, offset: 0x18BB6, size: 0x8, addend: 0x0, symName: __ZNSt3__122__compressed_pair_elemIPNS_6vectorI4EdgeNS_9allocatorIS2_EEEELi0ELb0EE5__getB7v160006Ev, symObjAddr: 0x1FF0, symBinAddr: 0x100003BE0, symSize: 0x10 }
  - { offsetInCU: 0x18BDC, offset: 0x18BDC, size: 0x8, addend: 0x0, symName: __ZNKSt3__16vectorINS0_I4EdgeNS_9allocatorIS1_EEEENS2_IS4_EEE31__annotate_contiguous_containerB7v160006EPKvS8_S8_S8_, symObjAddr: 0x2000, symBinAddr: 0x100003BF0, symSize: 0x20 }
  - { offsetInCU: 0x18C2E, offset: 0x18C2E, size: 0x8, addend: 0x0, symName: __ZNKSt3__16vectorINS0_I4EdgeNS_9allocatorIS1_EEEENS2_IS4_EEE4dataB7v160006Ev, symObjAddr: 0x2020, symBinAddr: 0x100003C10, symSize: 0x20 }
  - { offsetInCU: 0x18C54, offset: 0x18C54, size: 0x8, addend: 0x0, symName: __ZNKSt3__16vectorINS0_I4EdgeNS_9allocatorIS1_EEEENS2_IS4_EEE8capacityB7v160006Ev, symObjAddr: 0x2040, symBinAddr: 0x100003C30, symSize: 0x40 }
  - { offsetInCU: 0x18C7A, offset: 0x18C7A, size: 0x8, addend: 0x0, symName: __ZNKSt3__16vectorINS0_I4EdgeNS_9allocatorIS1_EEEENS2_IS4_EEE9__end_capB7v160006Ev, symObjAddr: 0x2090, symBinAddr: 0x100003C80, symSize: 0x20 }
  - { offsetInCU: 0x18CA0, offset: 0x18CA0, size: 0x8, addend: 0x0, symName: __ZNKSt3__117__compressed_pairIPNS_6vectorI4EdgeNS_9allocatorIS2_EEEENS3_IS5_EEE5firstB7v160006Ev, symObjAddr: 0x20B0, symBinAddr: 0x100003CA0, symSize: 0x20 }
  - { offsetInCU: 0x18CC6, offset: 0x18CC6, size: 0x8, addend: 0x0, symName: __ZNKSt3__122__compressed_pair_elemIPNS_6vectorI4EdgeNS_9allocatorIS2_EEEELi0ELb0EE5__getB7v160006Ev, symObjAddr: 0x20D0, symBinAddr: 0x100003CC0, symSize: 0x10 }
  - { offsetInCU: 0x18D08, offset: 0x18D08, size: 0x8, addend: 0x0, symName: __ZNSt3__16vectorINS0_I4EdgeNS_9allocatorIS1_EEEENS2_IS4_EEE21_ConstructTransactionC1B7v160006ERS6_m, symObjAddr: 0x20E0, symBinAddr: 0x100003CD0, symSize: 0x30 }
  - { offsetInCU: 0x18D50, offset: 0x18D50, size: 0x8, addend: 0x0, symName: __ZNSt3__116allocator_traitsINS_9allocatorINS_6vectorI4EdgeNS1_IS3_EEEEEEE9constructB7v160006IS5_JEvvEEvRS6_PT_DpOT0_, symObjAddr: 0x2110, symBinAddr: 0x100003D00, symSize: 0x20 }
  - { offsetInCU: 0x18D8F, offset: 0x18D8F, size: 0x8, addend: 0x0, symName: __ZNSt3__16vectorINS0_I4EdgeNS_9allocatorIS1_EEEENS2_IS4_EEE21_ConstructTransactionD1B7v160006Ev, symObjAddr: 0x2130, symBinAddr: 0x100003D20, symSize: 0x20 }
  - { offsetInCU: 0x18DB9, offset: 0x18DB9, size: 0x8, addend: 0x0, symName: __ZNSt3__16vectorINS0_I4EdgeNS_9allocatorIS1_EEEENS2_IS4_EEE21_ConstructTransactionC2B7v160006ERS6_m, symObjAddr: 0x2150, symBinAddr: 0x100003D40, symSize: 0x40 }
  - { offsetInCU: 0x18E01, offset: 0x18E01, size: 0x8, addend: 0x0, symName: __ZNSt3__16vectorI4EdgeNS_9allocatorIS1_EEEC1B7v160006Ev, symObjAddr: 0x21C0, symBinAddr: 0x100003DB0, symSize: 0x20 }
  - { offsetInCU: 0x18E2B, offset: 0x18E2B, size: 0x8, addend: 0x0, symName: __ZNSt3__16vectorI4EdgeNS_9allocatorIS1_EEEC2B7v160006Ev, symObjAddr: 0x21E0, symBinAddr: 0x100003DD0, symSize: 0x60 }
  - { offsetInCU: 0x18E55, offset: 0x18E55, size: 0x8, addend: 0x0, symName: __ZNSt3__117__compressed_pairIP4EdgeNS_9allocatorIS1_EEEC1B7v160006IDnNS_18__default_init_tagEEEOT_OT0_, symObjAddr: 0x2240, symBinAddr: 0x100003E30, symSize: 0x30 }
  - { offsetInCU: 0x18EAD, offset: 0x18EAD, size: 0x8, addend: 0x0, symName: __ZNSt3__117__compressed_pairIP4EdgeNS_9allocatorIS1_EEEC2B7v160006IDnNS_18__default_init_tagEEEOT_OT0_, symObjAddr: 0x2280, symBinAddr: 0x100003E70, symSize: 0x40 }
  - { offsetInCU: 0x18F05, offset: 0x18F05, size: 0x8, addend: 0x0, symName: __ZNSt3__122__compressed_pair_elemIP4EdgeLi0ELb0EEC2B7v160006IDnvEEOT_, symObjAddr: 0x22C0, symBinAddr: 0x100003EB0, symSize: 0x20 }
  - { offsetInCU: 0x18F47, offset: 0x18F47, size: 0x8, addend: 0x0, symName: __ZNSt3__122__compressed_pair_elemINS_9allocatorI4EdgeEELi1ELb1EEC2B7v160006ENS_18__default_init_tagE, symObjAddr: 0x22E0, symBinAddr: 0x100003ED0, symSize: 0x20 }
  - { offsetInCU: 0x18F7B, offset: 0x18F7B, size: 0x8, addend: 0x0, symName: __ZNSt3__19allocatorI4EdgeEC2B7v160006Ev, symObjAddr: 0x2300, symBinAddr: 0x100003EF0, symSize: 0x20 }
  - { offsetInCU: 0x18FA5, offset: 0x18FA5, size: 0x8, addend: 0x0, symName: __ZNSt3__116__non_trivial_ifILb1ENS_9allocatorI4EdgeEEEC2B7v160006Ev, symObjAddr: 0x2320, symBinAddr: 0x100003F10, symSize: 0x10 }
  - { offsetInCU: 0x18FCF, offset: 0x18FCF, size: 0x8, addend: 0x0, symName: __ZNSt3__16vectorINS0_I4EdgeNS_9allocatorIS1_EEEENS2_IS4_EEE21_ConstructTransactionD2B7v160006Ev, symObjAddr: 0x2330, symBinAddr: 0x100003F20, symSize: 0x20 }
  - { offsetInCU: 0x18FF9, offset: 0x18FF9, size: 0x8, addend: 0x0, symName: __ZNSt3__128__exception_guard_exceptionsINS_6vectorINS1_I4EdgeNS_9allocatorIS2_EEEENS3_IS5_EEE16__destroy_vectorEED2B7v160006Ev, symObjAddr: 0x2350, symBinAddr: 0x100003F40, symSize: 0x40 }
  - { offsetInCU: 0x19023, offset: 0x19023, size: 0x8, addend: 0x0, symName: __ZNSt3__16vectorINS0_I4EdgeNS_9allocatorIS1_EEEENS2_IS4_EEE16__destroy_vectorclB7v160006Ev, symObjAddr: 0x2390, symBinAddr: 0x100003F80, symSize: 0x90 }
  - { offsetInCU: 0x19049, offset: 0x19049, size: 0x8, addend: 0x0, symName: __ZNKSt3__16vectorINS0_I4EdgeNS_9allocatorIS1_EEEENS2_IS4_EEE17__annotate_deleteB7v160006Ev, symObjAddr: 0x2420, symBinAddr: 0x100004010, symSize: 0xB0 }
  - { offsetInCU: 0x1906F, offset: 0x1906F, size: 0x8, addend: 0x0, symName: __ZNSt3__16vectorINS0_I4EdgeNS_9allocatorIS1_EEEENS2_IS4_EEE7__clearB7v160006Ev, symObjAddr: 0x24E0, symBinAddr: 0x1000040D0, symSize: 0x20 }
  - { offsetInCU: 0x19095, offset: 0x19095, size: 0x8, addend: 0x0, symName: __ZNSt3__116allocator_traitsINS_9allocatorINS_6vectorI4EdgeNS1_IS3_EEEEEEE10deallocateB7v160006ERS6_PS5_m, symObjAddr: 0x2500, symBinAddr: 0x1000040F0, symSize: 0x30 }
  - { offsetInCU: 0x190D7, offset: 0x190D7, size: 0x8, addend: 0x0, symName: __ZNSt3__16vectorINS0_I4EdgeNS_9allocatorIS1_EEEENS2_IS4_EEE22__base_destruct_at_endB7v160006EPS4_, symObjAddr: 0x2530, symBinAddr: 0x100004120, symSize: 0x80 }
  - { offsetInCU: 0x1911B, offset: 0x1911B, size: 0x8, addend: 0x0, symName: __ZNSt3__116allocator_traitsINS_9allocatorINS_6vectorI4EdgeNS1_IS3_EEEEEEE7destroyB7v160006IS5_vvEEvRS6_PT_, symObjAddr: 0x25B0, symBinAddr: 0x1000041A0, symSize: 0x20 }
  - { offsetInCU: 0x19155, offset: 0x19155, size: 0x8, addend: 0x0, symName: __ZNSt3__16vectorI4EdgeNS_9allocatorIS1_EEED1B7v160006Ev, symObjAddr: 0x2610, symBinAddr: 0x100004200, symSize: 0x20 }
  - { offsetInCU: 0x1917F, offset: 0x1917F, size: 0x8, addend: 0x0, symName: __ZNSt3__16vectorI4EdgeNS_9allocatorIS1_EEED2B7v160006Ev, symObjAddr: 0x2630, symBinAddr: 0x100004220, symSize: 0x40 }
  - { offsetInCU: 0x191A9, offset: 0x191A9, size: 0x8, addend: 0x0, symName: __ZNSt3__16vectorI4EdgeNS_9allocatorIS1_EEE16__destroy_vectorC1ERS4_, symObjAddr: 0x2670, symBinAddr: 0x100004260, symSize: 0x30 }
  - { offsetInCU: 0x191E2, offset: 0x191E2, size: 0x8, addend: 0x0, symName: __ZNSt3__16vectorI4EdgeNS_9allocatorIS1_EEE16__destroy_vectorclB7v160006Ev, symObjAddr: 0x26A0, symBinAddr: 0x100004290, symSize: 0x90 }
  - { offsetInCU: 0x19208, offset: 0x19208, size: 0x8, addend: 0x0, symName: __ZNSt3__16vectorI4EdgeNS_9allocatorIS1_EEE16__destroy_vectorC2ERS4_, symObjAddr: 0x2730, symBinAddr: 0x100004320, symSize: 0x20 }
  - { offsetInCU: 0x19241, offset: 0x19241, size: 0x8, addend: 0x0, symName: __ZNKSt3__16vectorI4EdgeNS_9allocatorIS1_EEE17__annotate_deleteB7v160006Ev, symObjAddr: 0x2750, symBinAddr: 0x100004340, symSize: 0xB0 }
  - { offsetInCU: 0x19267, offset: 0x19267, size: 0x8, addend: 0x0, symName: __ZNSt3__16vectorI4EdgeNS_9allocatorIS1_EEE7__clearB7v160006Ev, symObjAddr: 0x2810, symBinAddr: 0x100004400, symSize: 0x20 }
  - { offsetInCU: 0x1928D, offset: 0x1928D, size: 0x8, addend: 0x0, symName: __ZNSt3__116allocator_traitsINS_9allocatorI4EdgeEEE10deallocateB7v160006ERS3_PS2_m, symObjAddr: 0x2830, symBinAddr: 0x100004420, symSize: 0x30 }
  - { offsetInCU: 0x192CF, offset: 0x192CF, size: 0x8, addend: 0x0, symName: __ZNSt3__16vectorI4EdgeNS_9allocatorIS1_EEE7__allocB7v160006Ev, symObjAddr: 0x2860, symBinAddr: 0x100004450, symSize: 0x20 }
  - { offsetInCU: 0x192F5, offset: 0x192F5, size: 0x8, addend: 0x0, symName: __ZNKSt3__16vectorI4EdgeNS_9allocatorIS1_EEE8capacityB7v160006Ev, symObjAddr: 0x2880, symBinAddr: 0x100004470, symSize: 0x30 }
  - { offsetInCU: 0x1931B, offset: 0x1931B, size: 0x8, addend: 0x0, symName: __ZNKSt3__16vectorI4EdgeNS_9allocatorIS1_EEE31__annotate_contiguous_containerB7v160006EPKvS6_S6_S6_, symObjAddr: 0x28B0, symBinAddr: 0x1000044A0, symSize: 0x20 }
  - { offsetInCU: 0x1936D, offset: 0x1936D, size: 0x8, addend: 0x0, symName: __ZNKSt3__16vectorI4EdgeNS_9allocatorIS1_EEE4dataB7v160006Ev, symObjAddr: 0x28D0, symBinAddr: 0x1000044C0, symSize: 0x20 }
  - { offsetInCU: 0x19393, offset: 0x19393, size: 0x8, addend: 0x0, symName: __ZNKSt3__16vectorI4EdgeNS_9allocatorIS1_EEE4sizeB7v160006Ev, symObjAddr: 0x28F0, symBinAddr: 0x1000044E0, symSize: 0x20 }
  - { offsetInCU: 0x193B9, offset: 0x193B9, size: 0x8, addend: 0x0, symName: __ZNSt3__16vectorI4EdgeNS_9allocatorIS1_EEE22__base_destruct_at_endB7v160006EPS1_, symObjAddr: 0x2920, symBinAddr: 0x100004510, symSize: 0x80 }
  - { offsetInCU: 0x193FD, offset: 0x193FD, size: 0x8, addend: 0x0, symName: __ZNSt3__116allocator_traitsINS_9allocatorI4EdgeEEE7destroyB7v160006IS2_vvEEvRS3_PT_, symObjAddr: 0x29A0, symBinAddr: 0x100004590, symSize: 0x20 }
  - { offsetInCU: 0x19437, offset: 0x19437, size: 0x8, addend: 0x0, symName: __ZNSt3__19allocatorI4EdgeE10deallocateB7v160006EPS1_m, symObjAddr: 0x29F0, symBinAddr: 0x1000045E0, symSize: 0x40 }
  - { offsetInCU: 0x19479, offset: 0x19479, size: 0x8, addend: 0x0, symName: __ZNSt3__117__compressed_pairIP4EdgeNS_9allocatorIS1_EEE6secondB7v160006Ev, symObjAddr: 0x2B30, symBinAddr: 0x100004720, symSize: 0x20 }
  - { offsetInCU: 0x1949F, offset: 0x1949F, size: 0x8, addend: 0x0, symName: __ZNSt3__122__compressed_pair_elemINS_9allocatorI4EdgeEELi1ELb1EE5__getB7v160006Ev, symObjAddr: 0x2B50, symBinAddr: 0x100004740, symSize: 0x10 }
  - { offsetInCU: 0x194C5, offset: 0x194C5, size: 0x8, addend: 0x0, symName: __ZNKSt3__16vectorI4EdgeNS_9allocatorIS1_EEE9__end_capB7v160006Ev, symObjAddr: 0x2B60, symBinAddr: 0x100004750, symSize: 0x20 }
  - { offsetInCU: 0x194EB, offset: 0x194EB, size: 0x8, addend: 0x0, symName: __ZNKSt3__117__compressed_pairIP4EdgeNS_9allocatorIS1_EEE5firstB7v160006Ev, symObjAddr: 0x2B80, symBinAddr: 0x100004770, symSize: 0x20 }
  - { offsetInCU: 0x19511, offset: 0x19511, size: 0x8, addend: 0x0, symName: __ZNKSt3__122__compressed_pair_elemIP4EdgeLi0ELb0EE5__getB7v160006Ev, symObjAddr: 0x2BA0, symBinAddr: 0x100004790, symSize: 0x10 }
  - { offsetInCU: 0x19537, offset: 0x19537, size: 0x8, addend: 0x0, symName: __ZNSt3__19allocatorINS_6vectorI4EdgeNS0_IS2_EEEEE10deallocateB7v160006EPS4_m, symObjAddr: 0x2BB0, symBinAddr: 0x1000047A0, symSize: 0x50 }
  - { offsetInCU: 0x19579, offset: 0x19579, size: 0x8, addend: 0x0, symName: __ZNSt3__16vectorI4EdgeNS_9allocatorIS1_EEE9__end_capB7v160006Ev, symObjAddr: 0x2C00, symBinAddr: 0x1000047F0, symSize: 0x20 }
  - { offsetInCU: 0x1959F, offset: 0x1959F, size: 0x8, addend: 0x0, symName: __ZNSt3__16vectorI4EdgeNS_9allocatorIS1_EEE22__construct_one_at_endB7v160006IJiRiEEEvDpOT_, symObjAddr: 0x2C20, symBinAddr: 0x100004810, symSize: 0xA0 }
  - { offsetInCU: 0x19602, offset: 0x19602, size: 0x8, addend: 0x0, symName: __ZNSt3__16vectorI4EdgeNS_9allocatorIS1_EEE24__emplace_back_slow_pathIJiRiEEEvDpOT_, symObjAddr: 0x2CC0, symBinAddr: 0x1000048B0, symSize: 0xE0 }
  - { offsetInCU: 0x19677, offset: 0x19677, size: 0x8, addend: 0x0, symName: __ZNSt3__16vectorI4EdgeNS_9allocatorIS1_EEE4backB7v160006Ev, symObjAddr: 0x2DA0, symBinAddr: 0x100004990, symSize: 0x20 }
  - { offsetInCU: 0x1969D, offset: 0x1969D, size: 0x8, addend: 0x0, symName: __ZNSt3__117__compressed_pairIP4EdgeNS_9allocatorIS1_EEE5firstB7v160006Ev, symObjAddr: 0x2DC0, symBinAddr: 0x1000049B0, symSize: 0x20 }
  - { offsetInCU: 0x196C3, offset: 0x196C3, size: 0x8, addend: 0x0, symName: __ZNSt3__122__compressed_pair_elemIP4EdgeLi0ELb0EE5__getB7v160006Ev, symObjAddr: 0x2DE0, symBinAddr: 0x1000049D0, symSize: 0x10 }
  - { offsetInCU: 0x19705, offset: 0x19705, size: 0x8, addend: 0x0, symName: __ZNSt3__16vectorI4EdgeNS_9allocatorIS1_EEE21_ConstructTransactionC1B7v160006ERS4_m, symObjAddr: 0x2DF0, symBinAddr: 0x1000049E0, symSize: 0x30 }
  - { offsetInCU: 0x1974D, offset: 0x1974D, size: 0x8, addend: 0x0, symName: __ZNSt3__116allocator_traitsINS_9allocatorI4EdgeEEE9constructB7v160006IS2_JiRiEvvEEvRS3_PT_DpOT0_, symObjAddr: 0x2E20, symBinAddr: 0x100004A10, symSize: 0x30 }
  - { offsetInCU: 0x197B5, offset: 0x197B5, size: 0x8, addend: 0x0, symName: __ZNSt3__16vectorI4EdgeNS_9allocatorIS1_EEE21_ConstructTransactionD1B7v160006Ev, symObjAddr: 0x2E50, symBinAddr: 0x100004A40, symSize: 0x20 }
  - { offsetInCU: 0x197DF, offset: 0x197DF, size: 0x8, addend: 0x0, symName: __ZNSt3__16vectorI4EdgeNS_9allocatorIS1_EEE21_ConstructTransactionC2B7v160006ERS4_m, symObjAddr: 0x2E70, symBinAddr: 0x100004A60, symSize: 0x40 }
  - { offsetInCU: 0x19827, offset: 0x19827, size: 0x8, addend: 0x0, symName: __ZN4EdgeC1Eii, symObjAddr: 0x2EF0, symBinAddr: 0x100004AE0, symSize: 0x30 }
  - { offsetInCU: 0x1986D, offset: 0x1986D, size: 0x8, addend: 0x0, symName: __ZN4EdgeC2Eii, symObjAddr: 0x2F20, symBinAddr: 0x100004B10, symSize: 0x20 }
  - { offsetInCU: 0x198B3, offset: 0x198B3, size: 0x8, addend: 0x0, symName: __ZNSt3__16vectorI4EdgeNS_9allocatorIS1_EEE21_ConstructTransactionD2B7v160006Ev, symObjAddr: 0x2F40, symBinAddr: 0x100004B30, symSize: 0x20 }
  - { offsetInCU: 0x198DD, offset: 0x198DD, size: 0x8, addend: 0x0, symName: __ZNKSt3__16vectorI4EdgeNS_9allocatorIS1_EEE11__recommendB7v160006Em, symObjAddr: 0x2F60, symBinAddr: 0x100004B50, symSize: 0xA0 }
  - { offsetInCU: 0x19932, offset: 0x19932, size: 0x8, addend: 0x0, symName: __ZNSt3__114__split_bufferI4EdgeRNS_9allocatorIS1_EEEC1EmmS4_, symObjAddr: 0x3000, symBinAddr: 0x100004BF0, symSize: 0x40 }
  - { offsetInCU: 0x19988, offset: 0x19988, size: 0x8, addend: 0x0, symName: __ZNSt3__114__split_bufferI4EdgeRNS_9allocatorIS1_EEED1Ev, symObjAddr: 0x3170, symBinAddr: 0x100004D60, symSize: 0x20 }
  - { offsetInCU: 0x199B4, offset: 0x199B4, size: 0x8, addend: 0x0, symName: __ZNKSt3__16vectorI4EdgeNS_9allocatorIS1_EEE8max_sizeEv, symObjAddr: 0x3190, symBinAddr: 0x100004D80, symSize: 0x60 }
  - { offsetInCU: 0x199DC, offset: 0x199DC, size: 0x8, addend: 0x0, symName: __ZNKSt3__16vectorI4EdgeNS_9allocatorIS1_EEE20__throw_length_errorB7v160006Ev, symObjAddr: 0x31F0, symBinAddr: 0x100004DE0, symSize: 0x20 }
  - { offsetInCU: 0x19A0D, offset: 0x19A0D, size: 0x8, addend: 0x0, symName: __ZNSt3__116allocator_traitsINS_9allocatorI4EdgeEEE8max_sizeB7v160006IS3_vvEEmRKS3_, symObjAddr: 0x3240, symBinAddr: 0x100004E30, symSize: 0x20 }
  - { offsetInCU: 0x19A38, offset: 0x19A38, size: 0x8, addend: 0x0, symName: __ZNKSt3__16vectorI4EdgeNS_9allocatorIS1_EEE7__allocB7v160006Ev, symObjAddr: 0x3260, symBinAddr: 0x100004E50, symSize: 0x20 }
  - { offsetInCU: 0x19A5E, offset: 0x19A5E, size: 0x8, addend: 0x0, symName: __ZNKSt3__117__compressed_pairIP4EdgeNS_9allocatorIS1_EEE6secondB7v160006Ev, symObjAddr: 0x3280, symBinAddr: 0x100004E70, symSize: 0x20 }
  - { offsetInCU: 0x19A84, offset: 0x19A84, size: 0x8, addend: 0x0, symName: __ZNKSt3__122__compressed_pair_elemINS_9allocatorI4EdgeEELi1ELb1EE5__getB7v160006Ev, symObjAddr: 0x32A0, symBinAddr: 0x100004E90, symSize: 0x10 }
  - { offsetInCU: 0x19AAA, offset: 0x19AAA, size: 0x8, addend: 0x0, symName: __ZNSt3__114__split_bufferI4EdgeRNS_9allocatorIS1_EEEC2EmmS4_, symObjAddr: 0x3300, symBinAddr: 0x100004EF0, symSize: 0xD0 }
  - { offsetInCU: 0x19B1D, offset: 0x19B1D, size: 0x8, addend: 0x0, symName: __ZNSt3__117__compressed_pairIP4EdgeRNS_9allocatorIS1_EEEC1B7v160006IDnS5_EEOT_OT0_, symObjAddr: 0x33D0, symBinAddr: 0x100004FC0, symSize: 0x30 }
  - { offsetInCU: 0x19B75, offset: 0x19B75, size: 0x8, addend: 0x0, symName: __ZNSt3__114__split_bufferI4EdgeRNS_9allocatorIS1_EEE7__allocB7v160006Ev, symObjAddr: 0x3440, symBinAddr: 0x100005030, symSize: 0x20 }
  - { offsetInCU: 0x19B9B, offset: 0x19B9B, size: 0x8, addend: 0x0, symName: __ZNSt3__114__split_bufferI4EdgeRNS_9allocatorIS1_EEE9__end_capB7v160006Ev, symObjAddr: 0x3460, symBinAddr: 0x100005050, symSize: 0x20 }
  - { offsetInCU: 0x19BC1, offset: 0x19BC1, size: 0x8, addend: 0x0, symName: __ZNSt3__117__compressed_pairIP4EdgeRNS_9allocatorIS1_EEEC2B7v160006IDnS5_EEOT_OT0_, symObjAddr: 0x3480, symBinAddr: 0x100005070, symSize: 0x40 }
  - { offsetInCU: 0x19C19, offset: 0x19C19, size: 0x8, addend: 0x0, symName: __ZNSt3__122__compressed_pair_elemIRNS_9allocatorI4EdgeEELi1ELb0EEC2B7v160006IS4_vEEOT_, symObjAddr: 0x34C0, symBinAddr: 0x1000050B0, symSize: 0x20 }
  - { offsetInCU: 0x19C5B, offset: 0x19C5B, size: 0x8, addend: 0x0, symName: __ZNSt3__19allocatorI4EdgeE17allocate_at_leastB7v160006Em, symObjAddr: 0x3520, symBinAddr: 0x100005110, symSize: 0x40 }
  - { offsetInCU: 0x19C8F, offset: 0x19C8F, size: 0x8, addend: 0x0, symName: __ZNSt3__19allocatorI4EdgeE8allocateB7v160006Em, symObjAddr: 0x3560, symBinAddr: 0x100005150, symSize: 0x50 }
  - { offsetInCU: 0x19CC3, offset: 0x19CC3, size: 0x8, addend: 0x0, symName: __ZNSt3__117__compressed_pairIP4EdgeRNS_9allocatorIS1_EEE6secondB7v160006Ev, symObjAddr: 0x35B0, symBinAddr: 0x1000051A0, symSize: 0x20 }
  - { offsetInCU: 0x19CE9, offset: 0x19CE9, size: 0x8, addend: 0x0, symName: __ZNSt3__122__compressed_pair_elemIRNS_9allocatorI4EdgeEELi1ELb0EE5__getB7v160006Ev, symObjAddr: 0x35D0, symBinAddr: 0x1000051C0, symSize: 0x20 }
  - { offsetInCU: 0x19D0F, offset: 0x19D0F, size: 0x8, addend: 0x0, symName: __ZNSt3__117__compressed_pairIP4EdgeRNS_9allocatorIS1_EEE5firstB7v160006Ev, symObjAddr: 0x35F0, symBinAddr: 0x1000051E0, symSize: 0x20 }
  - { offsetInCU: 0x19D35, offset: 0x19D35, size: 0x8, addend: 0x0, symName: __ZNSt3__116reverse_iteratorIP4EdgeEC1B7v160006ES2_, symObjAddr: 0x3680, symBinAddr: 0x100005270, symSize: 0x30 }
  - { offsetInCU: 0x19D6D, offset: 0x19D6D, size: 0x8, addend: 0x0, symName: __ZNKSt3__116reverse_iteratorIP4EdgeE4baseB7v160006Ev, symObjAddr: 0x36B0, symBinAddr: 0x1000052A0, symSize: 0x20 }
  - { offsetInCU: 0x19D93, offset: 0x19D93, size: 0x8, addend: 0x0, symName: __ZNKSt3__16vectorI4EdgeNS_9allocatorIS1_EEE14__annotate_newB7v160006Em, symObjAddr: 0x3710, symBinAddr: 0x100005300, symSize: 0xB0 }
  - { offsetInCU: 0x19DF6, offset: 0x19DF6, size: 0x8, addend: 0x0, symName: __ZNKSt3__111__move_loopINS_17_ClassicAlgPolicyEEclB7v160006INS_16reverse_iteratorIP4EdgeEES7_S7_EENS_4pairIT_T1_EES9_T0_SA_, symObjAddr: 0x3BE0, symBinAddr: 0x1000057D0, symSize: 0xA0 }
  - { offsetInCU: 0x19E61, offset: 0x19E61, size: 0x8, addend: 0x0, symName: __ZNSt3__119__unwrap_range_implINS_16reverse_iteratorIP4EdgeEES4_E8__unwrapB7v160006ES4_S4_, symObjAddr: 0x3DC0, symBinAddr: 0x1000059B0, symSize: 0x90 }
  - { offsetInCU: 0x19E98, offset: 0x19E98, size: 0x8, addend: 0x0, symName: __ZNSt3__14pairINS_16reverse_iteratorIP4EdgeEES4_EC1B7v160006IS4_S4_LPv0EEEOT_OT0_, symObjAddr: 0x3E50, symBinAddr: 0x100005A40, symSize: 0x30 }
  - { offsetInCU: 0x19EF6, offset: 0x19EF6, size: 0x8, addend: 0x0, symName: __ZNSt3__14pairINS_16reverse_iteratorIP4EdgeEES4_EC2B7v160006IS4_S4_LPv0EEEOT_OT0_, symObjAddr: 0x3E80, symBinAddr: 0x100005A70, symSize: 0x40 }
  - { offsetInCU: 0x19F5A, offset: 0x19F5A, size: 0x8, addend: 0x0, symName: __ZNSt3__18_IterOpsINS_17_ClassicAlgPolicyEE11__iter_moveB7v160006IRNS_16reverse_iteratorIP4EdgeEEEENS_9enable_ifIXsr12is_referenceIDTdeclsr3stdE7declvalIRT_EEEEE5valueEDTclsr3stdE4movedeclsr3stdE7declvalISB_EEEEE4typeEOSA_, symObjAddr: 0x3F00, symBinAddr: 0x100005AF0, symSize: 0x20 }
  - { offsetInCU: 0x19F86, offset: 0x19F86, size: 0x8, addend: 0x0, symName: __ZNKSt3__116reverse_iteratorIP4EdgeEdeB7v160006Ev, symObjAddr: 0x3F20, symBinAddr: 0x100005B10, symSize: 0x30 }
  - { offsetInCU: 0x19FBA, offset: 0x19FBA, size: 0x8, addend: 0x0, symName: __ZNSt3__116reverse_iteratorIP4EdgeEppB7v160006Ev, symObjAddr: 0x3F50, symBinAddr: 0x100005B40, symSize: 0x20 }
  - { offsetInCU: 0x19FE0, offset: 0x19FE0, size: 0x8, addend: 0x0, symName: __ZNSt3__18_IterOpsINS_17_ClassicAlgPolicyEE25__validate_iter_referenceB7v160006IRNS_16reverse_iteratorIP4EdgeEEEEvv, symObjAddr: 0x3F70, symBinAddr: 0x100005B60, symSize: 0x10 }
  - { offsetInCU: 0x19FFE, offset: 0x19FFE, size: 0x8, addend: 0x0, symName: __ZNSt3__118__unwrap_iter_implINS_16reverse_iteratorIP4EdgeEELb0EE8__unwrapB7v160006ES4_, symObjAddr: 0x3F80, symBinAddr: 0x100005B70, symSize: 0x20 }
  - { offsetInCU: 0x1A021, offset: 0x1A021, size: 0x8, addend: 0x0, symName: __ZNSt3__119__unwrap_range_implINS_16reverse_iteratorIP4EdgeEES4_E8__rewrapB7v160006ES4_S4_, symObjAddr: 0x3FA0, symBinAddr: 0x100005B90, symSize: 0x60 }
  - { offsetInCU: 0x1A052, offset: 0x1A052, size: 0x8, addend: 0x0, symName: __ZNSt3__118__unwrap_iter_implINS_16reverse_iteratorIP4EdgeEELb0EE8__rewrapB7v160006ES4_S4_, symObjAddr: 0x4000, symBinAddr: 0x100005BF0, symSize: 0x30 }
  - { offsetInCU: 0x1A07F, offset: 0x1A07F, size: 0x8, addend: 0x0, symName: __ZNSt3__116reverse_iteratorIP4EdgeEC2B7v160006ES2_, symObjAddr: 0x4030, symBinAddr: 0x100005C20, symSize: 0x30 }
  - { offsetInCU: 0x1A0B7, offset: 0x1A0B7, size: 0x8, addend: 0x0, symName: __ZNSt3__114__split_bufferI4EdgeRNS_9allocatorIS1_EEED2Ev, symObjAddr: 0x4060, symBinAddr: 0x100005C50, symSize: 0x70 }
  - { offsetInCU: 0x1A0E3, offset: 0x1A0E3, size: 0x8, addend: 0x0, symName: __ZNSt3__114__split_bufferI4EdgeRNS_9allocatorIS1_EEE5clearB7v160006Ev, symObjAddr: 0x40D0, symBinAddr: 0x100005CC0, symSize: 0x20 }
  - { offsetInCU: 0x1A109, offset: 0x1A109, size: 0x8, addend: 0x0, symName: __ZNKSt3__114__split_bufferI4EdgeRNS_9allocatorIS1_EEE8capacityB7v160006Ev, symObjAddr: 0x40F0, symBinAddr: 0x100005CE0, symSize: 0x30 }
  - { offsetInCU: 0x1A12F, offset: 0x1A12F, size: 0x8, addend: 0x0, symName: __ZNSt3__114__split_bufferI4EdgeRNS_9allocatorIS1_EEE17__destruct_at_endB7v160006EPS1_, symObjAddr: 0x4120, symBinAddr: 0x100005D10, symSize: 0x30 }
  - { offsetInCU: 0x1A163, offset: 0x1A163, size: 0x8, addend: 0x0, symName: __ZNSt3__114__split_bufferI4EdgeRNS_9allocatorIS1_EEE17__destruct_at_endB7v160006EPS1_NS_17integral_constantIbLb0EEE, symObjAddr: 0x4150, symBinAddr: 0x100005D40, symSize: 0x80 }
  - { offsetInCU: 0x1A1A3, offset: 0x1A1A3, size: 0x8, addend: 0x0, symName: __ZNKSt3__114__split_bufferI4EdgeRNS_9allocatorIS1_EEE9__end_capB7v160006Ev, symObjAddr: 0x41D0, symBinAddr: 0x100005DC0, symSize: 0x20 }
  - { offsetInCU: 0x1A1C9, offset: 0x1A1C9, size: 0x8, addend: 0x0, symName: __ZNKSt3__117__compressed_pairIP4EdgeRNS_9allocatorIS1_EEE5firstB7v160006Ev, symObjAddr: 0x41F0, symBinAddr: 0x100005DE0, symSize: 0x20 }
  - { offsetInCU: 0x1A1EF, offset: 0x1A1EF, size: 0x8, addend: 0x0, symName: __ZNSt3__16vectorINS0_I4EdgeNS_9allocatorIS1_EEEENS2_IS4_EEED2B7v160006Ev, symObjAddr: 0x4210, symBinAddr: 0x100005E00, symSize: 0x40 }
  - { offsetInCU: 0x1A219, offset: 0x1A219, size: 0x8, addend: 0x0, symName: __ZNSt3__16vectorINS_4pairImiEENS_9allocatorIS2_EEEC2B7v160006Ev, symObjAddr: 0x4250, symBinAddr: 0x100005E40, symSize: 0x60 }
  - { offsetInCU: 0x1A243, offset: 0x1A243, size: 0x8, addend: 0x0, symName: __ZNSt3__117__compressed_pairIPNS_4pairImiEENS_9allocatorIS2_EEEC1B7v160006IDnNS_18__default_init_tagEEEOT_OT0_, symObjAddr: 0x42B0, symBinAddr: 0x100005EA0, symSize: 0x30 }
  - { offsetInCU: 0x1A29B, offset: 0x1A29B, size: 0x8, addend: 0x0, symName: __ZNSt3__117__compressed_pairIPNS_4pairImiEENS_9allocatorIS2_EEEC2B7v160006IDnNS_18__default_init_tagEEEOT_OT0_, symObjAddr: 0x42F0, symBinAddr: 0x100005EE0, symSize: 0x40 }
  - { offsetInCU: 0x1A2F3, offset: 0x1A2F3, size: 0x8, addend: 0x0, symName: __ZNSt3__122__compressed_pair_elemIPNS_4pairImiEELi0ELb0EEC2B7v160006IDnvEEOT_, symObjAddr: 0x4330, symBinAddr: 0x100005F20, symSize: 0x20 }
  - { offsetInCU: 0x1A335, offset: 0x1A335, size: 0x8, addend: 0x0, symName: __ZNSt3__122__compressed_pair_elemINS_9allocatorINS_4pairImiEEEELi1ELb1EEC2B7v160006ENS_18__default_init_tagE, symObjAddr: 0x4350, symBinAddr: 0x100005F40, symSize: 0x20 }
  - { offsetInCU: 0x1A369, offset: 0x1A369, size: 0x8, addend: 0x0, symName: __ZNSt3__19allocatorINS_4pairImiEEEC2B7v160006Ev, symObjAddr: 0x4370, symBinAddr: 0x100005F60, symSize: 0x20 }
  - { offsetInCU: 0x1A393, offset: 0x1A393, size: 0x8, addend: 0x0, symName: __ZNSt3__116__non_trivial_ifILb1ENS_9allocatorINS_4pairImiEEEEEC2B7v160006Ev, symObjAddr: 0x4390, symBinAddr: 0x100005F80, symSize: 0x10 }
  - { offsetInCU: 0x1A3BD, offset: 0x1A3BD, size: 0x8, addend: 0x0, symName: __ZNKSt3__16vectorINS_4pairImiEENS_9allocatorIS2_EEE8capacityB7v160006Ev, symObjAddr: 0x43A0, symBinAddr: 0x100005F90, symSize: 0x30 }
  - { offsetInCU: 0x1A3E3, offset: 0x1A3E3, size: 0x8, addend: 0x0, symName: __ZNKSt3__16vectorINS_4pairImiEENS_9allocatorIS2_EEE8max_sizeEv, symObjAddr: 0x43D0, symBinAddr: 0x100005FC0, symSize: 0x60 }
  - { offsetInCU: 0x1A40B, offset: 0x1A40B, size: 0x8, addend: 0x0, symName: __ZNKSt3__16vectorINS_4pairImiEENS_9allocatorIS2_EEE20__throw_length_errorB7v160006Ev, symObjAddr: 0x4430, symBinAddr: 0x100006020, symSize: 0x20 }
  - { offsetInCU: 0x1A431, offset: 0x1A431, size: 0x8, addend: 0x0, symName: __ZNSt3__16vectorINS_4pairImiEENS_9allocatorIS2_EEE7__allocB7v160006Ev, symObjAddr: 0x4450, symBinAddr: 0x100006040, symSize: 0x20 }
  - { offsetInCU: 0x1A457, offset: 0x1A457, size: 0x8, addend: 0x0, symName: __ZNKSt3__16vectorINS_4pairImiEENS_9allocatorIS2_EEE4sizeB7v160006Ev, symObjAddr: 0x4470, symBinAddr: 0x100006060, symSize: 0x20 }
  - { offsetInCU: 0x1A47D, offset: 0x1A47D, size: 0x8, addend: 0x0, symName: __ZNSt3__114__split_bufferINS_4pairImiEERNS_9allocatorIS2_EEEC1EmmS5_, symObjAddr: 0x4490, symBinAddr: 0x100006080, symSize: 0x40 }
  - { offsetInCU: 0x1A4D3, offset: 0x1A4D3, size: 0x8, addend: 0x0, symName: __ZNSt3__114__split_bufferINS_4pairImiEERNS_9allocatorIS2_EEED1Ev, symObjAddr: 0x4600, symBinAddr: 0x1000061F0, symSize: 0x20 }
  - { offsetInCU: 0x1A4FF, offset: 0x1A4FF, size: 0x8, addend: 0x0, symName: __ZNKSt3__16vectorINS_4pairImiEENS_9allocatorIS2_EEE9__end_capB7v160006Ev, symObjAddr: 0x4620, symBinAddr: 0x100006210, symSize: 0x20 }
  - { offsetInCU: 0x1A525, offset: 0x1A525, size: 0x8, addend: 0x0, symName: __ZNKSt3__117__compressed_pairIPNS_4pairImiEENS_9allocatorIS2_EEE5firstB7v160006Ev, symObjAddr: 0x4640, symBinAddr: 0x100006230, symSize: 0x20 }
  - { offsetInCU: 0x1A54B, offset: 0x1A54B, size: 0x8, addend: 0x0, symName: __ZNKSt3__122__compressed_pair_elemIPNS_4pairImiEELi0ELb0EE5__getB7v160006Ev, symObjAddr: 0x4660, symBinAddr: 0x100006250, symSize: 0x10 }
  - { offsetInCU: 0x1A57C, offset: 0x1A57C, size: 0x8, addend: 0x0, symName: __ZNSt3__116allocator_traitsINS_9allocatorINS_4pairImiEEEEE8max_sizeB7v160006IS4_vvEEmRKS4_, symObjAddr: 0x4670, symBinAddr: 0x100006260, symSize: 0x20 }
  - { offsetInCU: 0x1A5A7, offset: 0x1A5A7, size: 0x8, addend: 0x0, symName: __ZNKSt3__16vectorINS_4pairImiEENS_9allocatorIS2_EEE7__allocB7v160006Ev, symObjAddr: 0x4690, symBinAddr: 0x100006280, symSize: 0x20 }
  - { offsetInCU: 0x1A5CD, offset: 0x1A5CD, size: 0x8, addend: 0x0, symName: __ZNKSt3__117__compressed_pairIPNS_4pairImiEENS_9allocatorIS2_EEE6secondB7v160006Ev, symObjAddr: 0x46B0, symBinAddr: 0x1000062A0, symSize: 0x20 }
  - { offsetInCU: 0x1A5F3, offset: 0x1A5F3, size: 0x8, addend: 0x0, symName: __ZNKSt3__122__compressed_pair_elemINS_9allocatorINS_4pairImiEEEELi1ELb1EE5__getB7v160006Ev, symObjAddr: 0x46D0, symBinAddr: 0x1000062C0, symSize: 0x10 }
  - { offsetInCU: 0x1A619, offset: 0x1A619, size: 0x8, addend: 0x0, symName: __ZNSt3__117__compressed_pairIPNS_4pairImiEENS_9allocatorIS2_EEE6secondB7v160006Ev, symObjAddr: 0x46E0, symBinAddr: 0x1000062D0, symSize: 0x20 }
  - { offsetInCU: 0x1A63F, offset: 0x1A63F, size: 0x8, addend: 0x0, symName: __ZNSt3__122__compressed_pair_elemINS_9allocatorINS_4pairImiEEEELi1ELb1EE5__getB7v160006Ev, symObjAddr: 0x4700, symBinAddr: 0x1000062F0, symSize: 0x10 }
  - { offsetInCU: 0x1A665, offset: 0x1A665, size: 0x8, addend: 0x0, symName: __ZNSt3__114__split_bufferINS_4pairImiEERNS_9allocatorIS2_EEEC2EmmS5_, symObjAddr: 0x4710, symBinAddr: 0x100006300, symSize: 0xD0 }
  - { offsetInCU: 0x1A6D8, offset: 0x1A6D8, size: 0x8, addend: 0x0, symName: __ZNSt3__117__compressed_pairIPNS_4pairImiEERNS_9allocatorIS2_EEEC1B7v160006IDnS6_EEOT_OT0_, symObjAddr: 0x47E0, symBinAddr: 0x1000063D0, symSize: 0x30 }
  - { offsetInCU: 0x1A730, offset: 0x1A730, size: 0x8, addend: 0x0, symName: __ZNSt3__114__split_bufferINS_4pairImiEERNS_9allocatorIS2_EEE7__allocB7v160006Ev, symObjAddr: 0x4850, symBinAddr: 0x100006440, symSize: 0x20 }
  - { offsetInCU: 0x1A756, offset: 0x1A756, size: 0x8, addend: 0x0, symName: __ZNSt3__114__split_bufferINS_4pairImiEERNS_9allocatorIS2_EEE9__end_capB7v160006Ev, symObjAddr: 0x4870, symBinAddr: 0x100006460, symSize: 0x20 }
  - { offsetInCU: 0x1A77C, offset: 0x1A77C, size: 0x8, addend: 0x0, symName: __ZNSt3__117__compressed_pairIPNS_4pairImiEERNS_9allocatorIS2_EEEC2B7v160006IDnS6_EEOT_OT0_, symObjAddr: 0x4890, symBinAddr: 0x100006480, symSize: 0x40 }
  - { offsetInCU: 0x1A7D4, offset: 0x1A7D4, size: 0x8, addend: 0x0, symName: __ZNSt3__122__compressed_pair_elemIRNS_9allocatorINS_4pairImiEEEELi1ELb0EEC2B7v160006IS5_vEEOT_, symObjAddr: 0x48D0, symBinAddr: 0x1000064C0, symSize: 0x20 }
  - { offsetInCU: 0x1A816, offset: 0x1A816, size: 0x8, addend: 0x0, symName: __ZNSt3__19allocatorINS_4pairImiEEE17allocate_at_leastB7v160006Em, symObjAddr: 0x4930, symBinAddr: 0x100006520, symSize: 0x40 }
  - { offsetInCU: 0x1A84A, offset: 0x1A84A, size: 0x8, addend: 0x0, symName: __ZNSt3__19allocatorINS_4pairImiEEE8allocateB7v160006Em, symObjAddr: 0x4970, symBinAddr: 0x100006560, symSize: 0x50 }
  - { offsetInCU: 0x1A87E, offset: 0x1A87E, size: 0x8, addend: 0x0, symName: __ZNSt3__117__compressed_pairIPNS_4pairImiEERNS_9allocatorIS2_EEE6secondB7v160006Ev, symObjAddr: 0x49C0, symBinAddr: 0x1000065B0, symSize: 0x20 }
  - { offsetInCU: 0x1A8A4, offset: 0x1A8A4, size: 0x8, addend: 0x0, symName: __ZNSt3__122__compressed_pair_elemIRNS_9allocatorINS_4pairImiEEEELi1ELb0EE5__getB7v160006Ev, symObjAddr: 0x49E0, symBinAddr: 0x1000065D0, symSize: 0x20 }
  - { offsetInCU: 0x1A8CA, offset: 0x1A8CA, size: 0x8, addend: 0x0, symName: __ZNSt3__117__compressed_pairIPNS_4pairImiEERNS_9allocatorIS2_EEE5firstB7v160006Ev, symObjAddr: 0x4A00, symBinAddr: 0x1000065F0, symSize: 0x20 }
  - { offsetInCU: 0x1A8F0, offset: 0x1A8F0, size: 0x8, addend: 0x0, symName: __ZNSt3__122__compressed_pair_elemIPNS_4pairImiEELi0ELb0EE5__getB7v160006Ev, symObjAddr: 0x4A20, symBinAddr: 0x100006610, symSize: 0x10 }
  - { offsetInCU: 0x1A916, offset: 0x1A916, size: 0x8, addend: 0x0, symName: __ZNKSt3__16vectorINS_4pairImiEENS_9allocatorIS2_EEE17__annotate_deleteB7v160006Ev, symObjAddr: 0x4A30, symBinAddr: 0x100006620, symSize: 0xB0 }
  - { offsetInCU: 0x1A93C, offset: 0x1A93C, size: 0x8, addend: 0x0, symName: __ZNSt3__116reverse_iteratorIPNS_4pairImiEEEC1B7v160006ES3_, symObjAddr: 0x4C60, symBinAddr: 0x100006850, symSize: 0x30 }
  - { offsetInCU: 0x1A974, offset: 0x1A974, size: 0x8, addend: 0x0, symName: __ZNKSt3__116reverse_iteratorIPNS_4pairImiEEE4baseB7v160006Ev, symObjAddr: 0x4C90, symBinAddr: 0x100006880, symSize: 0x20 }
  - { offsetInCU: 0x1A99A, offset: 0x1A99A, size: 0x8, addend: 0x0, symName: __ZNSt3__16vectorINS_4pairImiEENS_9allocatorIS2_EEE9__end_capB7v160006Ev, symObjAddr: 0x4CF0, symBinAddr: 0x1000068E0, symSize: 0x20 }
  - { offsetInCU: 0x1A9C0, offset: 0x1A9C0, size: 0x8, addend: 0x0, symName: __ZNKSt3__16vectorINS_4pairImiEENS_9allocatorIS2_EEE14__annotate_newB7v160006Em, symObjAddr: 0x4D10, symBinAddr: 0x100006900, symSize: 0xB0 }
  - { offsetInCU: 0x1A9F5, offset: 0x1A9F5, size: 0x8, addend: 0x0, symName: __ZNKSt3__16vectorINS_4pairImiEENS_9allocatorIS2_EEE31__annotate_contiguous_containerB7v160006EPKvS7_S7_S7_, symObjAddr: 0x4DD0, symBinAddr: 0x1000069C0, symSize: 0x20 }
  - { offsetInCU: 0x1AA47, offset: 0x1AA47, size: 0x8, addend: 0x0, symName: __ZNKSt3__16vectorINS_4pairImiEENS_9allocatorIS2_EEE4dataB7v160006Ev, symObjAddr: 0x4DF0, symBinAddr: 0x1000069E0, symSize: 0x20 }
  - { offsetInCU: 0x1AA6D, offset: 0x1AA6D, size: 0x8, addend: 0x0, symName: __ZNSt3__129_AllocatorDestroyRangeReverseINS_9allocatorINS_4pairImiEEEENS_16reverse_iteratorIPS3_EEEC1B7v160006ERS4_RS7_SA_, symObjAddr: 0x4E80, symBinAddr: 0x100006A70, symSize: 0x40 }
  - { offsetInCU: 0x1AAC4, offset: 0x1AAC4, size: 0x8, addend: 0x0, symName: __ZNSt3__116allocator_traitsINS_9allocatorINS_4pairImiEEEEE9constructB7v160006IS3_JS3_EvvEEvRS4_PT_DpOT0_, symObjAddr: 0x4F00, symBinAddr: 0x100006AF0, symSize: 0x30 }
  - { offsetInCU: 0x1AB18, offset: 0x1AB18, size: 0x8, addend: 0x0, symName: __ZNKSt3__116reverse_iteratorIPNS_4pairImiEEEdeB7v160006Ev, symObjAddr: 0x4F50, symBinAddr: 0x100006B40, symSize: 0x30 }
  - { offsetInCU: 0x1AB4C, offset: 0x1AB4C, size: 0x8, addend: 0x0, symName: __ZNSt3__116reverse_iteratorIPNS_4pairImiEEEppB7v160006Ev, symObjAddr: 0x4F80, symBinAddr: 0x100006B70, symSize: 0x20 }
  - { offsetInCU: 0x1AB72, offset: 0x1AB72, size: 0x8, addend: 0x0, symName: __ZNSt3__128__exception_guard_exceptionsINS_29_AllocatorDestroyRangeReverseINS_9allocatorINS_4pairImiEEEENS_16reverse_iteratorIPS4_EEEEE10__completeB7v160006Ev, symObjAddr: 0x4FA0, symBinAddr: 0x100006B90, symSize: 0x20 }
  - { offsetInCU: 0x1AB98, offset: 0x1AB98, size: 0x8, addend: 0x0, symName: __ZNSt3__128__exception_guard_exceptionsINS_29_AllocatorDestroyRangeReverseINS_9allocatorINS_4pairImiEEEENS_16reverse_iteratorIPS4_EEEEED1B7v160006Ev, symObjAddr: 0x4FC0, symBinAddr: 0x100006BB0, symSize: 0x20 }
  - { offsetInCU: 0x1ABC2, offset: 0x1ABC2, size: 0x8, addend: 0x0, symName: __ZNSt3__128__exception_guard_exceptionsINS_29_AllocatorDestroyRangeReverseINS_9allocatorINS_4pairImiEEEENS_16reverse_iteratorIPS4_EEEEEC1B7v160006ES9_, symObjAddr: 0x4FE0, symBinAddr: 0x100006BD0, symSize: 0x40 }
  - { offsetInCU: 0x1ABFA, offset: 0x1ABFA, size: 0x8, addend: 0x0, symName: __ZNSt3__128__exception_guard_exceptionsINS_29_AllocatorDestroyRangeReverseINS_9allocatorINS_4pairImiEEEENS_16reverse_iteratorIPS4_EEEEEC2B7v160006ES9_, symObjAddr: 0x5020, symBinAddr: 0x100006C10, symSize: 0x30 }
  - { offsetInCU: 0x1AC32, offset: 0x1AC32, size: 0x8, addend: 0x0, symName: __ZNSt3__129_AllocatorDestroyRangeReverseINS_9allocatorINS_4pairImiEEEENS_16reverse_iteratorIPS3_EEEC2B7v160006ERS4_RS7_SA_, symObjAddr: 0x5050, symBinAddr: 0x100006C40, symSize: 0x40 }
  - { offsetInCU: 0x1AC8F, offset: 0x1AC8F, size: 0x8, addend: 0x0, symName: __ZNSt3__119__to_address_helperINS_16reverse_iteratorIPNS_4pairImiEEEEvE6__callB7v160006ERKS5_, symObjAddr: 0x50C0, symBinAddr: 0x100006CB0, symSize: 0x40 }
  - { offsetInCU: 0x1ACB2, offset: 0x1ACB2, size: 0x8, addend: 0x0, symName: __ZNKSt3__116reverse_iteratorIPNS_4pairImiEEEptB7v160006Ev, symObjAddr: 0x5100, symBinAddr: 0x100006CF0, symSize: 0x30 }
  - { offsetInCU: 0x1ACD8, offset: 0x1ACD8, size: 0x8, addend: 0x0, symName: __ZNSt3__128__exception_guard_exceptionsINS_29_AllocatorDestroyRangeReverseINS_9allocatorINS_4pairImiEEEENS_16reverse_iteratorIPS4_EEEEED2B7v160006Ev, symObjAddr: 0x5200, symBinAddr: 0x100006DF0, symSize: 0x40 }
  - { offsetInCU: 0x1AD02, offset: 0x1AD02, size: 0x8, addend: 0x0, symName: __ZNKSt3__129_AllocatorDestroyRangeReverseINS_9allocatorINS_4pairImiEEEENS_16reverse_iteratorIPS3_EEEclB7v160006Ev, symObjAddr: 0x5240, symBinAddr: 0x100006E30, symSize: 0xF0 }
  - { offsetInCU: 0x1AD29, offset: 0x1AD29, size: 0x8, addend: 0x0, symName: __ZNSt3__116reverse_iteratorINS0_IPNS_4pairImiEEEEEC1B7v160006ES4_, symObjAddr: 0x53A0, symBinAddr: 0x100006F90, symSize: 0x30 }
  - { offsetInCU: 0x1AD61, offset: 0x1AD61, size: 0x8, addend: 0x0, symName: __ZNSt3__116allocator_traitsINS_9allocatorINS_4pairImiEEEEE7destroyB7v160006IS3_vvEEvRS4_PT_, symObjAddr: 0x5420, symBinAddr: 0x100007010, symSize: 0x20 }
  - { offsetInCU: 0x1AD9B, offset: 0x1AD9B, size: 0x8, addend: 0x0, symName: __ZNSt3__116reverse_iteratorINS0_IPNS_4pairImiEEEEEppB7v160006Ev, symObjAddr: 0x5460, symBinAddr: 0x100007050, symSize: 0x30 }
  - { offsetInCU: 0x1ADC1, offset: 0x1ADC1, size: 0x8, addend: 0x0, symName: __ZNKSt3__116reverse_iteratorINS0_IPNS_4pairImiEEEEE4baseB7v160006Ev, symObjAddr: 0x5490, symBinAddr: 0x100007080, symSize: 0x20 }
  - { offsetInCU: 0x1ADED, offset: 0x1ADED, size: 0x8, addend: 0x0, symName: __ZNSt3__119__to_address_helperINS_16reverse_iteratorINS1_IPNS_4pairImiEEEEEEvE6__callB7v160006ERKS6_, symObjAddr: 0x54E0, symBinAddr: 0x1000070D0, symSize: 0x40 }
  - { offsetInCU: 0x1AE10, offset: 0x1AE10, size: 0x8, addend: 0x0, symName: __ZNKSt3__116reverse_iteratorINS0_IPNS_4pairImiEEEEEptB7v160006Ev, symObjAddr: 0x5520, symBinAddr: 0x100007110, symSize: 0x50 }
  - { offsetInCU: 0x1AE36, offset: 0x1AE36, size: 0x8, addend: 0x0, symName: __ZNSt3__116reverse_iteratorIPNS_4pairImiEEEpLB7v160006El, symObjAddr: 0x5650, symBinAddr: 0x100007240, symSize: 0x30 }
  - { offsetInCU: 0x1AE6A, offset: 0x1AE6A, size: 0x8, addend: 0x0, symName: __ZNSt3__116reverse_iteratorIPNS_4pairImiEEEmmB7v160006Ev, symObjAddr: 0x5680, symBinAddr: 0x100007270, symSize: 0x20 }
  - { offsetInCU: 0x1AE90, offset: 0x1AE90, size: 0x8, addend: 0x0, symName: __ZNSt3__116reverse_iteratorINS0_IPNS_4pairImiEEEEEC2B7v160006ES4_, symObjAddr: 0x56A0, symBinAddr: 0x100007290, symSize: 0x40 }
  - { offsetInCU: 0x1AEC8, offset: 0x1AEC8, size: 0x8, addend: 0x0, symName: __ZNSt3__116reverse_iteratorIPNS_4pairImiEEEC2B7v160006ES3_, symObjAddr: 0x56E0, symBinAddr: 0x1000072D0, symSize: 0x30 }
  - { offsetInCU: 0x1AF00, offset: 0x1AF00, size: 0x8, addend: 0x0, symName: __ZNSt3__117__compressed_pairIPNS_4pairImiEENS_9allocatorIS2_EEE5firstB7v160006Ev, symObjAddr: 0x5710, symBinAddr: 0x100007300, symSize: 0x20 }
  - { offsetInCU: 0x1AF26, offset: 0x1AF26, size: 0x8, addend: 0x0, symName: __ZNSt3__114__split_bufferINS_4pairImiEERNS_9allocatorIS2_EEED2Ev, symObjAddr: 0x5730, symBinAddr: 0x100007320, symSize: 0x70 }
  - { offsetInCU: 0x1AF52, offset: 0x1AF52, size: 0x8, addend: 0x0, symName: __ZNSt3__114__split_bufferINS_4pairImiEERNS_9allocatorIS2_EEE5clearB7v160006Ev, symObjAddr: 0x57A0, symBinAddr: 0x100007390, symSize: 0x20 }
  - { offsetInCU: 0x1AF78, offset: 0x1AF78, size: 0x8, addend: 0x0, symName: __ZNSt3__116allocator_traitsINS_9allocatorINS_4pairImiEEEEE10deallocateB7v160006ERS4_PS3_m, symObjAddr: 0x57C0, symBinAddr: 0x1000073B0, symSize: 0x30 }
  - { offsetInCU: 0x1AFBA, offset: 0x1AFBA, size: 0x8, addend: 0x0, symName: __ZNKSt3__114__split_bufferINS_4pairImiEERNS_9allocatorIS2_EEE8capacityB7v160006Ev, symObjAddr: 0x57F0, symBinAddr: 0x1000073E0, symSize: 0x30 }
  - { offsetInCU: 0x1AFE0, offset: 0x1AFE0, size: 0x8, addend: 0x0, symName: __ZNSt3__114__split_bufferINS_4pairImiEERNS_9allocatorIS2_EEE17__destruct_at_endB7v160006EPS2_, symObjAddr: 0x5820, symBinAddr: 0x100007410, symSize: 0x30 }
  - { offsetInCU: 0x1B014, offset: 0x1B014, size: 0x8, addend: 0x0, symName: __ZNSt3__114__split_bufferINS_4pairImiEERNS_9allocatorIS2_EEE17__destruct_at_endB7v160006EPS2_NS_17integral_constantIbLb0EEE, symObjAddr: 0x5850, symBinAddr: 0x100007440, symSize: 0x80 }
  - { offsetInCU: 0x1B054, offset: 0x1B054, size: 0x8, addend: 0x0, symName: __ZNSt3__19allocatorINS_4pairImiEEE10deallocateB7v160006EPS2_m, symObjAddr: 0x58D0, symBinAddr: 0x1000074C0, symSize: 0x40 }
  - { offsetInCU: 0x1B096, offset: 0x1B096, size: 0x8, addend: 0x0, symName: __ZNKSt3__114__split_bufferINS_4pairImiEERNS_9allocatorIS2_EEE9__end_capB7v160006Ev, symObjAddr: 0x5910, symBinAddr: 0x100007500, symSize: 0x20 }
  - { offsetInCU: 0x1B0BC, offset: 0x1B0BC, size: 0x8, addend: 0x0, symName: __ZNKSt3__117__compressed_pairIPNS_4pairImiEERNS_9allocatorIS2_EEE5firstB7v160006Ev, symObjAddr: 0x5930, symBinAddr: 0x100007520, symSize: 0x20 }
  - { offsetInCU: 0x1B0E2, offset: 0x1B0E2, size: 0x8, addend: 0x0, symName: __ZNSt3__16vectorINS_4pairImiEENS_9allocatorIS2_EEE22__construct_one_at_endB7v160006IJS2_EEEvDpOT_, symObjAddr: 0x5950, symBinAddr: 0x100007540, symSize: 0x90 }
  - { offsetInCU: 0x1B131, offset: 0x1B131, size: 0x8, addend: 0x0, symName: __ZNSt3__16vectorINS_4pairImiEENS_9allocatorIS2_EEE21__push_back_slow_pathIS2_EEvOT_, symObjAddr: 0x59E0, symBinAddr: 0x1000075D0, symSize: 0xD0 }
  - { offsetInCU: 0x1B1AB, offset: 0x1B1AB, size: 0x8, addend: 0x0, symName: __ZNSt3__16vectorINS_4pairImiEENS_9allocatorIS2_EEE21_ConstructTransactionC1B7v160006ERS5_m, symObjAddr: 0x5AB0, symBinAddr: 0x1000076A0, symSize: 0x30 }
  - { offsetInCU: 0x1B1F3, offset: 0x1B1F3, size: 0x8, addend: 0x0, symName: __ZNSt3__16vectorINS_4pairImiEENS_9allocatorIS2_EEE21_ConstructTransactionD1B7v160006Ev, symObjAddr: 0x5AE0, symBinAddr: 0x1000076D0, symSize: 0x20 }
  - { offsetInCU: 0x1B21D, offset: 0x1B21D, size: 0x8, addend: 0x0, symName: __ZNSt3__16vectorINS_4pairImiEENS_9allocatorIS2_EEE21_ConstructTransactionC2B7v160006ERS5_m, symObjAddr: 0x5B00, symBinAddr: 0x1000076F0, symSize: 0x40 }
  - { offsetInCU: 0x1B265, offset: 0x1B265, size: 0x8, addend: 0x0, symName: __ZNSt3__16vectorINS_4pairImiEENS_9allocatorIS2_EEE21_ConstructTransactionD2B7v160006Ev, symObjAddr: 0x5B40, symBinAddr: 0x100007730, symSize: 0x20 }
  - { offsetInCU: 0x1B28F, offset: 0x1B28F, size: 0x8, addend: 0x0, symName: __ZNKSt3__16vectorINS_4pairImiEENS_9allocatorIS2_EEE11__recommendB7v160006Em, symObjAddr: 0x5B60, symBinAddr: 0x100007750, symSize: 0xA0 }
  - { offsetInCU: 0x1B2E4, offset: 0x1B2E4, size: 0x8, addend: 0x0, symName: __ZNSt3__14pairImiEC2B7v160006IRmRKiLPv0EEEOT_OT0_, symObjAddr: 0x5C00, symBinAddr: 0x1000077F0, symSize: 0x30 }
  - { offsetInCU: 0x1B348, offset: 0x1B348, size: 0x8, addend: 0x0, symName: '__ZNSt3__116_UnwrapAlgPolicyIRZ13GetNextVertexRKNS_6vectorIiNS_9allocatorIiEEEERKNS1_IbNS2_IbEEEEE3$_0E10__get_compB7v160006ESC_', symObjAddr: 0x5DA0, symBinAddr: 0x100007990, symSize: 0x10 }
  - { offsetInCU: 0x1B376, offset: 0x1B376, size: 0x8, addend: 0x0, symName: '__ZZ13GetNextVertexRKNSt3__16vectorIiNS_9allocatorIiEEEERKNS0_IbNS1_IbEEEEENK3$_0clINS_4pairImiEESD_EEDaRKT_RKT0_', symObjAddr: 0x6460, symBinAddr: 0x100008050, symSize: 0x30 }
  - { offsetInCU: 0x1B3CE, offset: 0x1B3CE, size: 0x8, addend: 0x0, symName: __ZNSt3__18_IterOpsINS_17_ClassicAlgPolicyEE9iter_swapB7v160006IRPNS_4pairImiEES7_EEvOT_OT0_, symObjAddr: 0x6490, symBinAddr: 0x100008080, symSize: 0x30 }
  - { offsetInCU: 0x1B411, offset: 0x1B411, size: 0x8, addend: 0x0, symName: __ZNSt3__14pairImiE4swapB7v160006ERS1_, symObjAddr: 0x6BD0, symBinAddr: 0x1000087C0, symSize: 0x40 }
  - { offsetInCU: 0x1B446, offset: 0x1B446, size: 0x8, addend: 0x0, symName: __ZNSt3__18_IterOpsINS_17_ClassicAlgPolicyEE11__iter_moveB7v160006IRPNS_4pairImiEEEENS_9enable_ifIXsr12is_referenceIDTdeclsr3stdE7declvalIRT_EEEEE5valueEDTclsr3stdE4movedeclsr3stdE7declvalISA_EEEEE4typeEOS9_, symObjAddr: 0x6D70, symBinAddr: 0x100008960, symSize: 0x20 }
  - { offsetInCU: 0x1B472, offset: 0x1B472, size: 0x8, addend: 0x0, symName: __ZNSt3__14pairImiEaSB7v160006EOS1_, symObjAddr: 0x6D90, symBinAddr: 0x100008980, symSize: 0x30 }
  - { offsetInCU: 0x1B4A7, offset: 0x1B4A7, size: 0x8, addend: 0x0, symName: __ZNSt3__18_IterOpsINS_17_ClassicAlgPolicyEE25__validate_iter_referenceB7v160006IRPNS_4pairImiEEEEvv, symObjAddr: 0x6DC0, symBinAddr: 0x1000089B0, symSize: 0x10 }
  - { offsetInCU: 0x1B4C5, offset: 0x1B4C5, size: 0x8, addend: 0x0, symName: __ZNSt3__18_IterOpsINS_17_ClassicAlgPolicyEE4nextB7v160006IPNS_4pairImiEEEET_S7_S7_, symObjAddr: 0x6DD0, symBinAddr: 0x1000089C0, symSize: 0x20 }
  - { offsetInCU: 0x1B4FB, offset: 0x1B4FB, size: 0x8, addend: 0x0, symName: __ZNSt3__118__unwrap_iter_implINS_11__wrap_iterIPNS_4pairImiEEEELb1EE8__unwrapB7v160006ES5_, symObjAddr: 0x7640, symBinAddr: 0x100009230, symSize: 0x20 }
  - { offsetInCU: 0x1B52A, offset: 0x1B52A, size: 0x8, addend: 0x0, symName: __ZNSt3__119__to_address_helperINS_11__wrap_iterIPNS_4pairImiEEEEvE6__callB7v160006ERKS5_, symObjAddr: 0x7680, symBinAddr: 0x100009270, symSize: 0x30 }
  - { offsetInCU: 0x1B54D, offset: 0x1B54D, size: 0x8, addend: 0x0, symName: __ZNSt3__114pointer_traitsINS_11__wrap_iterIPNS_4pairImiEEEEE10to_addressB7v160006ES5_, symObjAddr: 0x76B0, symBinAddr: 0x1000092A0, symSize: 0x30 }
  - { offsetInCU: 0x1B571, offset: 0x1B571, size: 0x8, addend: 0x0, symName: __ZNKSt3__111__wrap_iterIPNS_4pairImiEEE4baseB7v160006Ev, symObjAddr: 0x76E0, symBinAddr: 0x1000092D0, symSize: 0x20 }
  - { offsetInCU: 0x1B597, offset: 0x1B597, size: 0x8, addend: 0x0, symName: __ZNSt3__16vectorINS_4pairImiEENS_9allocatorIS2_EEE11__make_iterB7v160006EPS2_, symObjAddr: 0x7700, symBinAddr: 0x1000092F0, symSize: 0x30 }
  - { offsetInCU: 0x1B5CC, offset: 0x1B5CC, size: 0x8, addend: 0x0, symName: __ZNSt3__111__wrap_iterIPNS_4pairImiEEEC1B7v160006EPKvS3_, symObjAddr: 0x7730, symBinAddr: 0x100009320, symSize: 0x30 }
  - { offsetInCU: 0x1B612, offset: 0x1B612, size: 0x8, addend: 0x0, symName: __ZNSt3__111__wrap_iterIPNS_4pairImiEEEC2B7v160006EPKvS3_, symObjAddr: 0x7760, symBinAddr: 0x100009350, symSize: 0x20 }
  - { offsetInCU: 0x1B658, offset: 0x1B658, size: 0x8, addend: 0x0, symName: __ZNKSt3__16vectorIbNS_9allocatorIbEEE10__make_refB7v160006Em, symObjAddr: 0x77C0, symBinAddr: 0x1000093B0, symSize: 0x50 }
  - { offsetInCU: 0x1B68D, offset: 0x1B68D, size: 0x8, addend: 0x0, symName: __ZNSt3__121__bit_const_referenceINS_6vectorIbNS_9allocatorIbEEEEEC1B7v160006EPKmm, symObjAddr: 0x7810, symBinAddr: 0x100009400, symSize: 0x30 }
  - { offsetInCU: 0x1B6D3, offset: 0x1B6D3, size: 0x8, addend: 0x0, symName: __ZNSt3__121__bit_const_referenceINS_6vectorIbNS_9allocatorIbEEEEEC2B7v160006EPKmm, symObjAddr: 0x7840, symBinAddr: 0x100009430, symSize: 0x30 }
  - { offsetInCU: 0x1B719, offset: 0x1B719, size: 0x8, addend: 0x0, symName: __ZNSt3__16vectorINS_4pairImiEENS_9allocatorIS2_EEED2B7v160006Ev, symObjAddr: 0x7870, symBinAddr: 0x100009460, symSize: 0x40 }
  - { offsetInCU: 0x1B743, offset: 0x1B743, size: 0x8, addend: 0x0, symName: __ZNSt3__16vectorINS_4pairImiEENS_9allocatorIS2_EEE16__destroy_vectorC1ERS5_, symObjAddr: 0x78B0, symBinAddr: 0x1000094A0, symSize: 0x30 }
  - { offsetInCU: 0x1B77C, offset: 0x1B77C, size: 0x8, addend: 0x0, symName: __ZNSt3__16vectorINS_4pairImiEENS_9allocatorIS2_EEE16__destroy_vectorclB7v160006Ev, symObjAddr: 0x78E0, symBinAddr: 0x1000094D0, symSize: 0x90 }
  - { offsetInCU: 0x1B7A2, offset: 0x1B7A2, size: 0x8, addend: 0x0, symName: __ZNSt3__16vectorINS_4pairImiEENS_9allocatorIS2_EEE16__destroy_vectorC2ERS5_, symObjAddr: 0x7970, symBinAddr: 0x100009560, symSize: 0x20 }
  - { offsetInCU: 0x1B7DB, offset: 0x1B7DB, size: 0x8, addend: 0x0, symName: __ZNSt3__16vectorINS_4pairImiEENS_9allocatorIS2_EEE7__clearB7v160006Ev, symObjAddr: 0x79A0, symBinAddr: 0x100009590, symSize: 0x20 }
  - { offsetInCU: 0x1B801, offset: 0x1B801, size: 0x8, addend: 0x0, symName: __ZNSt3__16vectorINS_4pairImiEENS_9allocatorIS2_EEE22__base_destruct_at_endB7v160006EPS2_, symObjAddr: 0x79C0, symBinAddr: 0x1000095B0, symSize: 0x80 }
  - { offsetInCU: 0x1B845, offset: 0x1B845, size: 0x8, addend: 0x0, symName: __ZNSt3__16vectorIbNS_9allocatorIbEEEC2EmRKb, symObjAddr: 0x7A40, symBinAddr: 0x100009630, symSize: 0x80 }
  - { offsetInCU: 0x1B88F, offset: 0x1B88F, size: 0x8, addend: 0x0, symName: __ZNSt3__117__compressed_pairImNS_9allocatorImEEEC1B7v160006IiNS_18__default_init_tagEEEOT_OT0_, symObjAddr: 0x7AC0, symBinAddr: 0x1000096B0, symSize: 0x30 }
  - { offsetInCU: 0x1B8E7, offset: 0x1B8E7, size: 0x8, addend: 0x0, symName: __ZNSt3__16vectorIbNS_9allocatorIbEEE11__vallocateB7v160006Em, symObjAddr: 0x7AF0, symBinAddr: 0x1000096E0, symSize: 0xA0 }
  - { offsetInCU: 0x1B92B, offset: 0x1B92B, size: 0x8, addend: 0x0, symName: __ZNSt3__16vectorIbNS_9allocatorIbEEE18__construct_at_endB7v160006Emb, symObjAddr: 0x7B90, symBinAddr: 0x100009780, symSize: 0xE0 }
  - { offsetInCU: 0x1B980, offset: 0x1B980, size: 0x8, addend: 0x0, symName: __ZNSt3__117__compressed_pairImNS_9allocatorImEEEC2B7v160006IiNS_18__default_init_tagEEEOT_OT0_, symObjAddr: 0x7C70, symBinAddr: 0x100009860, symSize: 0x40 }
  - { offsetInCU: 0x1B9D8, offset: 0x1B9D8, size: 0x8, addend: 0x0, symName: __ZNSt3__122__compressed_pair_elemImLi0ELb0EEC2B7v160006IivEEOT_, symObjAddr: 0x7CB0, symBinAddr: 0x1000098A0, symSize: 0x20 }
  - { offsetInCU: 0x1BA1A, offset: 0x1BA1A, size: 0x8, addend: 0x0, symName: __ZNSt3__122__compressed_pair_elemINS_9allocatorImEELi1ELb1EEC2B7v160006ENS_18__default_init_tagE, symObjAddr: 0x7CD0, symBinAddr: 0x1000098C0, symSize: 0x20 }
  - { offsetInCU: 0x1BA4E, offset: 0x1BA4E, size: 0x8, addend: 0x0, symName: __ZNSt3__19allocatorImEC2B7v160006Ev, symObjAddr: 0x7CF0, symBinAddr: 0x1000098E0, symSize: 0x20 }
  - { offsetInCU: 0x1BA78, offset: 0x1BA78, size: 0x8, addend: 0x0, symName: __ZNSt3__116__non_trivial_ifILb1ENS_9allocatorImEEEC2B7v160006Ev, symObjAddr: 0x7D10, symBinAddr: 0x100009900, symSize: 0x10 }
  - { offsetInCU: 0x1BAA2, offset: 0x1BAA2, size: 0x8, addend: 0x0, symName: __ZNKSt3__16vectorIbNS_9allocatorIbEEE8max_sizeEv, symObjAddr: 0x7D20, symBinAddr: 0x100009910, symSize: 0x70 }
  - { offsetInCU: 0x1BAE8, offset: 0x1BAE8, size: 0x8, addend: 0x0, symName: __ZNKSt3__16vectorIbNS_9allocatorIbEEE20__throw_length_errorB7v160006Ev, symObjAddr: 0x7D90, symBinAddr: 0x100009980, symSize: 0x20 }
  - { offsetInCU: 0x1BB0E, offset: 0x1BB0E, size: 0x8, addend: 0x0, symName: __ZNSt3__16vectorIbNS_9allocatorIbEEE7__allocB7v160006Ev, symObjAddr: 0x7DF0, symBinAddr: 0x1000099E0, symSize: 0x20 }
  - { offsetInCU: 0x1BB34, offset: 0x1BB34, size: 0x8, addend: 0x0, symName: __ZNSt3__16vectorIbNS_9allocatorIbEEE26__external_cap_to_internalB7v160006Em, symObjAddr: 0x7E10, symBinAddr: 0x100009A00, symSize: 0x20 }
  - { offsetInCU: 0x1BB58, offset: 0x1BB58, size: 0x8, addend: 0x0, symName: __ZNSt3__16vectorIbNS_9allocatorIbEEE5__capB7v160006Ev, symObjAddr: 0x7E30, symBinAddr: 0x100009A20, symSize: 0x20 }
  - { offsetInCU: 0x1BB89, offset: 0x1BB89, size: 0x8, addend: 0x0, symName: __ZNSt3__116allocator_traitsINS_9allocatorImEEE8max_sizeB7v160006IS2_vvEEmRKS2_, symObjAddr: 0x7E50, symBinAddr: 0x100009A40, symSize: 0x20 }
  - { offsetInCU: 0x1BBB4, offset: 0x1BBB4, size: 0x8, addend: 0x0, symName: __ZNKSt3__16vectorIbNS_9allocatorIbEEE7__allocB7v160006Ev, symObjAddr: 0x7E70, symBinAddr: 0x100009A60, symSize: 0x20 }
  - { offsetInCU: 0x1BBDA, offset: 0x1BBDA, size: 0x8, addend: 0x0, symName: __ZNSt3__16vectorIbNS_9allocatorIbEEE26__internal_cap_to_externalB7v160006Em, symObjAddr: 0x7E90, symBinAddr: 0x100009A80, symSize: 0x20 }
  - { offsetInCU: 0x1BBFE, offset: 0x1BBFE, size: 0x8, addend: 0x0, symName: __ZNKSt3__117__compressed_pairImNS_9allocatorImEEE6secondB7v160006Ev, symObjAddr: 0x7EB0, symBinAddr: 0x100009AA0, symSize: 0x20 }
  - { offsetInCU: 0x1BC24, offset: 0x1BC24, size: 0x8, addend: 0x0, symName: __ZNKSt3__122__compressed_pair_elemINS_9allocatorImEELi1ELb1EE5__getB7v160006Ev, symObjAddr: 0x7ED0, symBinAddr: 0x100009AC0, symSize: 0x10 }
  - { offsetInCU: 0x1BC4A, offset: 0x1BC4A, size: 0x8, addend: 0x0, symName: __ZNSt3__19allocatorImE17allocate_at_leastB7v160006Em, symObjAddr: 0x7F20, symBinAddr: 0x100009B10, symSize: 0x40 }
  - { offsetInCU: 0x1BC7E, offset: 0x1BC7E, size: 0x8, addend: 0x0, symName: __ZNSt3__19allocatorImE8allocateB7v160006Em, symObjAddr: 0x7F60, symBinAddr: 0x100009B50, symSize: 0x50 }
  - { offsetInCU: 0x1BCB2, offset: 0x1BCB2, size: 0x8, addend: 0x0, symName: __ZNSt3__117__compressed_pairImNS_9allocatorImEEE6secondB7v160006Ev, symObjAddr: 0x7FB0, symBinAddr: 0x100009BA0, symSize: 0x20 }
  - { offsetInCU: 0x1BCD8, offset: 0x1BCD8, size: 0x8, addend: 0x0, symName: __ZNSt3__122__compressed_pair_elemINS_9allocatorImEELi1ELb1EE5__getB7v160006Ev, symObjAddr: 0x7FD0, symBinAddr: 0x100009BC0, symSize: 0x10 }
  - { offsetInCU: 0x1BCFE, offset: 0x1BCFE, size: 0x8, addend: 0x0, symName: __ZNSt3__117__compressed_pairImNS_9allocatorImEEE5firstB7v160006Ev, symObjAddr: 0x7FE0, symBinAddr: 0x100009BD0, symSize: 0x20 }
  - { offsetInCU: 0x1BD24, offset: 0x1BD24, size: 0x8, addend: 0x0, symName: __ZNSt3__122__compressed_pair_elemImLi0ELb0EE5__getB7v160006Ev, symObjAddr: 0x8000, symBinAddr: 0x100009BF0, symSize: 0x10 }
  - { offsetInCU: 0x1BD4A, offset: 0x1BD4A, size: 0x8, addend: 0x0, symName: __ZNSt3__16vectorIbNS_9allocatorIbEEE11__make_iterB7v160006Em, symObjAddr: 0x8090, symBinAddr: 0x100009C80, symSize: 0x50 }
  - { offsetInCU: 0x1BD7F, offset: 0x1BD7F, size: 0x8, addend: 0x0, symName: __ZNSt3__114__bit_iteratorINS_6vectorIbNS_9allocatorIbEEEELb0ELm0EEC1B7v160006ERKS5_, symObjAddr: 0x8220, symBinAddr: 0x100009E10, symSize: 0x30 }
  - { offsetInCU: 0x1BDB8, offset: 0x1BDB8, size: 0x8, addend: 0x0, symName: __ZNSt3__114__bit_iteratorINS_6vectorIbNS_9allocatorIbEEEELb0ELm0EEC2B7v160006ERKS5_, symObjAddr: 0x8440, symBinAddr: 0x10000A030, symSize: 0x30 }
  - { offsetInCU: 0x1BDF1, offset: 0x1BDF1, size: 0x8, addend: 0x0, symName: __ZNSt3__114__bit_iteratorINS_6vectorIbNS_9allocatorIbEEEELb0ELm0EEC1B7v160006EPmj, symObjAddr: 0x8500, symBinAddr: 0x10000A0F0, symSize: 0x30 }
  - { offsetInCU: 0x1BE39, offset: 0x1BE39, size: 0x8, addend: 0x0, symName: __ZNSt3__114__bit_iteratorINS_6vectorIbNS_9allocatorIbEEEELb0ELm0EEC2B7v160006EPmj, symObjAddr: 0x8530, symBinAddr: 0x10000A120, symSize: 0x30 }
  - { offsetInCU: 0x1BE81, offset: 0x1BE81, size: 0x8, addend: 0x0, symName: __ZNSt3__16vectorIbNS_9allocatorIbEEE10__make_refB7v160006Em, symObjAddr: 0x8560, symBinAddr: 0x10000A150, symSize: 0x50 }
  - { offsetInCU: 0x1BEB6, offset: 0x1BEB6, size: 0x8, addend: 0x0, symName: __ZNSt3__115__bit_referenceINS_6vectorIbNS_9allocatorIbEEEELb1EEC1B7v160006EPmm, symObjAddr: 0x85B0, symBinAddr: 0x10000A1A0, symSize: 0x30 }
  - { offsetInCU: 0x1BEFC, offset: 0x1BEFC, size: 0x8, addend: 0x0, symName: __ZNSt3__115__bit_referenceINS_6vectorIbNS_9allocatorIbEEEELb1EEC2B7v160006EPmm, symObjAddr: 0x85E0, symBinAddr: 0x10000A1D0, symSize: 0x30 }
  - { offsetInCU: 0x1BF42, offset: 0x1BF42, size: 0x8, addend: 0x0, symName: __ZNSt3__16vectorIiNS_9allocatorIiEEEC2EmRKi, symObjAddr: 0x8610, symBinAddr: 0x10000A200, symSize: 0xE0 }
  - { offsetInCU: 0x1BFA1, offset: 0x1BFA1, size: 0x8, addend: 0x0, symName: __ZNSt3__117__compressed_pairIPiNS_9allocatorIiEEEC1B7v160006IDnNS_18__default_init_tagEEEOT_OT0_, symObjAddr: 0x86F0, symBinAddr: 0x10000A2E0, symSize: 0x30 }
  - { offsetInCU: 0x1BFF9, offset: 0x1BFF9, size: 0x8, addend: 0x0, symName: __ZNSt3__16vectorIiNS_9allocatorIiEEE16__destroy_vectorC1ERS3_, symObjAddr: 0x8760, symBinAddr: 0x10000A350, symSize: 0x30 }
  - { offsetInCU: 0x1C032, offset: 0x1C032, size: 0x8, addend: 0x0, symName: __ZNSt3__16vectorIiNS_9allocatorIiEEE11__vallocateB7v160006Em, symObjAddr: 0x87A0, symBinAddr: 0x10000A390, symSize: 0xA0 }
  - { offsetInCU: 0x1C076, offset: 0x1C076, size: 0x8, addend: 0x0, symName: __ZNSt3__16vectorIiNS_9allocatorIiEEE18__construct_at_endEmRKi, symObjAddr: 0x8840, symBinAddr: 0x10000A430, symSize: 0xC0 }
  - { offsetInCU: 0x1C0F7, offset: 0x1C0F7, size: 0x8, addend: 0x0, symName: __ZNSt3__128__exception_guard_exceptionsINS_6vectorIiNS_9allocatorIiEEE16__destroy_vectorEE10__completeB7v160006Ev, symObjAddr: 0x8900, symBinAddr: 0x10000A4F0, symSize: 0x20 }
  - { offsetInCU: 0x1C11D, offset: 0x1C11D, size: 0x8, addend: 0x0, symName: __ZNSt3__128__exception_guard_exceptionsINS_6vectorIiNS_9allocatorIiEEE16__destroy_vectorEED1B7v160006Ev, symObjAddr: 0x8920, symBinAddr: 0x10000A510, symSize: 0x20 }
  - { offsetInCU: 0x1C147, offset: 0x1C147, size: 0x8, addend: 0x0, symName: __ZNSt3__117__compressed_pairIPiNS_9allocatorIiEEEC2B7v160006IDnNS_18__default_init_tagEEEOT_OT0_, symObjAddr: 0x8940, symBinAddr: 0x10000A530, symSize: 0x40 }
  - { offsetInCU: 0x1C19F, offset: 0x1C19F, size: 0x8, addend: 0x0, symName: __ZNSt3__122__compressed_pair_elemIPiLi0ELb0EEC2B7v160006IDnvEEOT_, symObjAddr: 0x8980, symBinAddr: 0x10000A570, symSize: 0x20 }
  - { offsetInCU: 0x1C1E1, offset: 0x1C1E1, size: 0x8, addend: 0x0, symName: __ZNSt3__122__compressed_pair_elemINS_9allocatorIiEELi1ELb1EEC2B7v160006ENS_18__default_init_tagE, symObjAddr: 0x89A0, symBinAddr: 0x10000A590, symSize: 0x20 }
  - { offsetInCU: 0x1C215, offset: 0x1C215, size: 0x8, addend: 0x0, symName: __ZNSt3__19allocatorIiEC2B7v160006Ev, symObjAddr: 0x89C0, symBinAddr: 0x10000A5B0, symSize: 0x20 }
  - { offsetInCU: 0x1C23F, offset: 0x1C23F, size: 0x8, addend: 0x0, symName: __ZNSt3__116__non_trivial_ifILb1ENS_9allocatorIiEEEC2B7v160006Ev, symObjAddr: 0x89E0, symBinAddr: 0x10000A5D0, symSize: 0x10 }
  - { offsetInCU: 0x1C269, offset: 0x1C269, size: 0x8, addend: 0x0, symName: __ZNSt3__128__exception_guard_exceptionsINS_6vectorIiNS_9allocatorIiEEE16__destroy_vectorEEC1B7v160006ES5_, symObjAddr: 0x89F0, symBinAddr: 0x10000A5E0, symSize: 0x30 }
  - { offsetInCU: 0x1C2A1, offset: 0x1C2A1, size: 0x8, addend: 0x0, symName: __ZNSt3__128__exception_guard_exceptionsINS_6vectorIiNS_9allocatorIiEEE16__destroy_vectorEEC2B7v160006ES5_, symObjAddr: 0x8A20, symBinAddr: 0x10000A610, symSize: 0x20 }
  - { offsetInCU: 0x1C2D9, offset: 0x1C2D9, size: 0x8, addend: 0x0, symName: __ZNSt3__16vectorIiNS_9allocatorIiEEE16__destroy_vectorC2ERS3_, symObjAddr: 0x8A40, symBinAddr: 0x10000A630, symSize: 0x20 }
  - { offsetInCU: 0x1C312, offset: 0x1C312, size: 0x8, addend: 0x0, symName: __ZNKSt3__16vectorIiNS_9allocatorIiEEE8max_sizeEv, symObjAddr: 0x8A60, symBinAddr: 0x10000A650, symSize: 0x60 }
  - { offsetInCU: 0x1C33A, offset: 0x1C33A, size: 0x8, addend: 0x0, symName: __ZNKSt3__16vectorIiNS_9allocatorIiEEE20__throw_length_errorB7v160006Ev, symObjAddr: 0x8AC0, symBinAddr: 0x10000A6B0, symSize: 0x20 }
  - { offsetInCU: 0x1C360, offset: 0x1C360, size: 0x8, addend: 0x0, symName: __ZNSt3__16vectorIiNS_9allocatorIiEEE7__allocB7v160006Ev, symObjAddr: 0x8B20, symBinAddr: 0x10000A710, symSize: 0x20 }
  - { offsetInCU: 0x1C386, offset: 0x1C386, size: 0x8, addend: 0x0, symName: __ZNSt3__16vectorIiNS_9allocatorIiEEE9__end_capB7v160006Ev, symObjAddr: 0x8B40, symBinAddr: 0x10000A730, symSize: 0x20 }
  - { offsetInCU: 0x1C3AC, offset: 0x1C3AC, size: 0x8, addend: 0x0, symName: __ZNKSt3__16vectorIiNS_9allocatorIiEEE14__annotate_newB7v160006Em, symObjAddr: 0x8B60, symBinAddr: 0x10000A750, symSize: 0xB0 }
  - { offsetInCU: 0x1C3EC, offset: 0x1C3EC, size: 0x8, addend: 0x0, symName: __ZNSt3__116allocator_traitsINS_9allocatorIiEEE8max_sizeB7v160006IS2_vvEEmRKS2_, symObjAddr: 0x8C10, symBinAddr: 0x10000A800, symSize: 0x20 }
  - { offsetInCU: 0x1C417, offset: 0x1C417, size: 0x8, addend: 0x0, symName: __ZNKSt3__16vectorIiNS_9allocatorIiEEE7__allocB7v160006Ev, symObjAddr: 0x8C30, symBinAddr: 0x10000A820, symSize: 0x20 }
  - { offsetInCU: 0x1C43D, offset: 0x1C43D, size: 0x8, addend: 0x0, symName: __ZNKSt3__117__compressed_pairIPiNS_9allocatorIiEEE6secondB7v160006Ev, symObjAddr: 0x8C50, symBinAddr: 0x10000A840, symSize: 0x20 }
  - { offsetInCU: 0x1C463, offset: 0x1C463, size: 0x8, addend: 0x0, symName: __ZNKSt3__122__compressed_pair_elemINS_9allocatorIiEELi1ELb1EE5__getB7v160006Ev, symObjAddr: 0x8C70, symBinAddr: 0x10000A860, symSize: 0x10 }
  - { offsetInCU: 0x1C489, offset: 0x1C489, size: 0x8, addend: 0x0, symName: __ZNSt3__19allocatorIiE17allocate_at_leastB7v160006Em, symObjAddr: 0x8CC0, symBinAddr: 0x10000A8B0, symSize: 0x40 }
  - { offsetInCU: 0x1C4BD, offset: 0x1C4BD, size: 0x8, addend: 0x0, symName: __ZNSt3__19allocatorIiE8allocateB7v160006Em, symObjAddr: 0x8D00, symBinAddr: 0x10000A8F0, symSize: 0x50 }
  - { offsetInCU: 0x1C4F1, offset: 0x1C4F1, size: 0x8, addend: 0x0, symName: __ZNSt3__117__compressed_pairIPiNS_9allocatorIiEEE6secondB7v160006Ev, symObjAddr: 0x8D50, symBinAddr: 0x10000A940, symSize: 0x20 }
  - { offsetInCU: 0x1C517, offset: 0x1C517, size: 0x8, addend: 0x0, symName: __ZNSt3__122__compressed_pair_elemINS_9allocatorIiEELi1ELb1EE5__getB7v160006Ev, symObjAddr: 0x8D70, symBinAddr: 0x10000A960, symSize: 0x10 }
  - { offsetInCU: 0x1C53D, offset: 0x1C53D, size: 0x8, addend: 0x0, symName: __ZNSt3__117__compressed_pairIPiNS_9allocatorIiEEE5firstB7v160006Ev, symObjAddr: 0x8D80, symBinAddr: 0x10000A970, symSize: 0x20 }
  - { offsetInCU: 0x1C563, offset: 0x1C563, size: 0x8, addend: 0x0, symName: __ZNSt3__122__compressed_pair_elemIPiLi0ELb0EE5__getB7v160006Ev, symObjAddr: 0x8DA0, symBinAddr: 0x10000A990, symSize: 0x10 }
  - { offsetInCU: 0x1C589, offset: 0x1C589, size: 0x8, addend: 0x0, symName: __ZNKSt3__16vectorIiNS_9allocatorIiEEE31__annotate_contiguous_containerB7v160006EPKvS5_S5_S5_, symObjAddr: 0x8DB0, symBinAddr: 0x10000A9A0, symSize: 0x20 }
  - { offsetInCU: 0x1C5DB, offset: 0x1C5DB, size: 0x8, addend: 0x0, symName: __ZNKSt3__16vectorIiNS_9allocatorIiEEE4dataB7v160006Ev, symObjAddr: 0x8DD0, symBinAddr: 0x10000A9C0, symSize: 0x20 }
  - { offsetInCU: 0x1C601, offset: 0x1C601, size: 0x8, addend: 0x0, symName: __ZNKSt3__16vectorIiNS_9allocatorIiEEE8capacityB7v160006Ev, symObjAddr: 0x8DF0, symBinAddr: 0x10000A9E0, symSize: 0x30 }
  - { offsetInCU: 0x1C627, offset: 0x1C627, size: 0x8, addend: 0x0, symName: __ZNKSt3__16vectorIiNS_9allocatorIiEEE9__end_capB7v160006Ev, symObjAddr: 0x8E30, symBinAddr: 0x10000AA20, symSize: 0x20 }
  - { offsetInCU: 0x1C64D, offset: 0x1C64D, size: 0x8, addend: 0x0, symName: __ZNKSt3__117__compressed_pairIPiNS_9allocatorIiEEE5firstB7v160006Ev, symObjAddr: 0x8E50, symBinAddr: 0x10000AA40, symSize: 0x20 }
  - { offsetInCU: 0x1C673, offset: 0x1C673, size: 0x8, addend: 0x0, symName: __ZNKSt3__122__compressed_pair_elemIPiLi0ELb0EE5__getB7v160006Ev, symObjAddr: 0x8E70, symBinAddr: 0x10000AA60, symSize: 0x10 }
  - { offsetInCU: 0x1C6B5, offset: 0x1C6B5, size: 0x8, addend: 0x0, symName: __ZNSt3__16vectorIiNS_9allocatorIiEEE21_ConstructTransactionC1B7v160006ERS3_m, symObjAddr: 0x8E80, symBinAddr: 0x10000AA70, symSize: 0x30 }
  - { offsetInCU: 0x1C6FD, offset: 0x1C6FD, size: 0x8, addend: 0x0, symName: __ZNSt3__116allocator_traitsINS_9allocatorIiEEE9constructB7v160006IiJRKiEvvEEvRS2_PT_DpOT0_, symObjAddr: 0x8EB0, symBinAddr: 0x10000AAA0, symSize: 0x30 }
  - { offsetInCU: 0x1C751, offset: 0x1C751, size: 0x8, addend: 0x0, symName: __ZNSt3__16vectorIiNS_9allocatorIiEEE21_ConstructTransactionD1B7v160006Ev, symObjAddr: 0x8EE0, symBinAddr: 0x10000AAD0, symSize: 0x20 }
  - { offsetInCU: 0x1C77B, offset: 0x1C77B, size: 0x8, addend: 0x0, symName: __ZNSt3__16vectorIiNS_9allocatorIiEEE21_ConstructTransactionC2B7v160006ERS3_m, symObjAddr: 0x8F00, symBinAddr: 0x10000AAF0, symSize: 0x40 }
  - { offsetInCU: 0x1C7C3, offset: 0x1C7C3, size: 0x8, addend: 0x0, symName: __ZNSt3__16vectorIiNS_9allocatorIiEEE21_ConstructTransactionD2B7v160006Ev, symObjAddr: 0x8F70, symBinAddr: 0x10000AB60, symSize: 0x20 }
  - { offsetInCU: 0x1C7ED, offset: 0x1C7ED, size: 0x8, addend: 0x0, symName: __ZNSt3__128__exception_guard_exceptionsINS_6vectorIiNS_9allocatorIiEEE16__destroy_vectorEED2B7v160006Ev, symObjAddr: 0x8F90, symBinAddr: 0x10000AB80, symSize: 0x40 }
  - { offsetInCU: 0x1C817, offset: 0x1C817, size: 0x8, addend: 0x0, symName: __ZNSt3__16vectorIiNS_9allocatorIiEEE16__destroy_vectorclB7v160006Ev, symObjAddr: 0x8FD0, symBinAddr: 0x10000ABC0, symSize: 0x90 }
  - { offsetInCU: 0x1C83D, offset: 0x1C83D, size: 0x8, addend: 0x0, symName: __ZNKSt3__16vectorIiNS_9allocatorIiEEE17__annotate_deleteB7v160006Ev, symObjAddr: 0x9060, symBinAddr: 0x10000AC50, symSize: 0xB0 }
  - { offsetInCU: 0x1C863, offset: 0x1C863, size: 0x8, addend: 0x0, symName: __ZNSt3__16vectorIiNS_9allocatorIiEEE7__clearB7v160006Ev, symObjAddr: 0x9120, symBinAddr: 0x10000AD10, symSize: 0x20 }
  - { offsetInCU: 0x1C889, offset: 0x1C889, size: 0x8, addend: 0x0, symName: __ZNSt3__116allocator_traitsINS_9allocatorIiEEE10deallocateB7v160006ERS2_Pim, symObjAddr: 0x9140, symBinAddr: 0x10000AD30, symSize: 0x30 }
  - { offsetInCU: 0x1C8CB, offset: 0x1C8CB, size: 0x8, addend: 0x0, symName: __ZNSt3__16vectorIiNS_9allocatorIiEEE22__base_destruct_at_endB7v160006EPi, symObjAddr: 0x9170, symBinAddr: 0x10000AD60, symSize: 0x80 }
  - { offsetInCU: 0x1C90F, offset: 0x1C90F, size: 0x8, addend: 0x0, symName: __ZNSt3__116allocator_traitsINS_9allocatorIiEEE7destroyB7v160006IivvEEvRS2_PT_, symObjAddr: 0x91F0, symBinAddr: 0x10000ADE0, symSize: 0x20 }
  - { offsetInCU: 0x1C949, offset: 0x1C949, size: 0x8, addend: 0x0, symName: __ZNSt3__19allocatorIiE10deallocateB7v160006EPim, symObjAddr: 0x9240, symBinAddr: 0x10000AE30, symSize: 0x40 }
  - { offsetInCU: 0x1C98B, offset: 0x1C98B, size: 0x8, addend: 0x0, symName: __ZNSt3__16vectorI4EdgeNS_9allocatorIS1_EEE11__make_iterB7v160006EPS1_, symObjAddr: 0x9280, symBinAddr: 0x10000AE70, symSize: 0x30 }
  - { offsetInCU: 0x1C9C0, offset: 0x1C9C0, size: 0x8, addend: 0x0, symName: __ZNSt3__111__wrap_iterIP4EdgeEC1B7v160006EPKvS2_, symObjAddr: 0x92B0, symBinAddr: 0x10000AEA0, symSize: 0x30 }
  - { offsetInCU: 0x1CA06, offset: 0x1CA06, size: 0x8, addend: 0x0, symName: __ZNSt3__111__wrap_iterIP4EdgeEC2B7v160006EPKvS2_, symObjAddr: 0x92E0, symBinAddr: 0x10000AED0, symSize: 0x20 }
  - { offsetInCU: 0x1CA4C, offset: 0x1CA4C, size: 0x8, addend: 0x0, symName: __ZNKSt3__111__wrap_iterIP4EdgeE4baseB7v160006Ev, symObjAddr: 0x9340, symBinAddr: 0x10000AF30, symSize: 0x20 }
  - { offsetInCU: 0x1CA72, offset: 0x1CA72, size: 0x8, addend: 0x0, symName: __ZNSt3__16vectorIiNS_9allocatorIiEEED2B7v160006Ev, symObjAddr: 0x9360, symBinAddr: 0x10000AF50, symSize: 0x40 }
  - { offsetInCU: 0x1CA9C, offset: 0x1CA9C, size: 0x8, addend: 0x0, symName: __ZNSt3__114priority_queueINS_4pairIiiEENS_6vectorIS2_NS_9allocatorIS2_EEEE10ComparatorED2Ev, symObjAddr: 0x93A0, symBinAddr: 0x10000AF90, symSize: 0x20 }
  - { offsetInCU: 0x1CAC9, offset: 0x1CAC9, size: 0x8, addend: 0x0, symName: __ZNSt3__16vectorINS_4pairIiiEENS_9allocatorIS2_EEED1B7v160006Ev, symObjAddr: 0x93C0, symBinAddr: 0x10000AFB0, symSize: 0x20 }
  - { offsetInCU: 0x1CAF3, offset: 0x1CAF3, size: 0x8, addend: 0x0, symName: __ZNSt3__16vectorINS_4pairIiiEENS_9allocatorIS2_EEED2B7v160006Ev, symObjAddr: 0x93E0, symBinAddr: 0x10000AFD0, symSize: 0x40 }
  - { offsetInCU: 0x1CB1D, offset: 0x1CB1D, size: 0x8, addend: 0x0, symName: __ZNSt3__16vectorINS_4pairIiiEENS_9allocatorIS2_EEE16__destroy_vectorC1ERS5_, symObjAddr: 0x9420, symBinAddr: 0x10000B010, symSize: 0x30 }
  - { offsetInCU: 0x1CB56, offset: 0x1CB56, size: 0x8, addend: 0x0, symName: __ZNSt3__16vectorINS_4pairIiiEENS_9allocatorIS2_EEE16__destroy_vectorclB7v160006Ev, symObjAddr: 0x9450, symBinAddr: 0x10000B040, symSize: 0x90 }
  - { offsetInCU: 0x1CB7C, offset: 0x1CB7C, size: 0x8, addend: 0x0, symName: __ZNSt3__16vectorINS_4pairIiiEENS_9allocatorIS2_EEE16__destroy_vectorC2ERS5_, symObjAddr: 0x94E0, symBinAddr: 0x10000B0D0, symSize: 0x20 }
  - { offsetInCU: 0x1CBB5, offset: 0x1CBB5, size: 0x8, addend: 0x0, symName: __ZNKSt3__16vectorINS_4pairIiiEENS_9allocatorIS2_EEE17__annotate_deleteB7v160006Ev, symObjAddr: 0x9500, symBinAddr: 0x10000B0F0, symSize: 0xB0 }
  - { offsetInCU: 0x1CBDB, offset: 0x1CBDB, size: 0x8, addend: 0x0, symName: __ZNSt3__16vectorINS_4pairIiiEENS_9allocatorIS2_EEE7__clearB7v160006Ev, symObjAddr: 0x95C0, symBinAddr: 0x10000B1B0, symSize: 0x20 }
  - { offsetInCU: 0x1CC01, offset: 0x1CC01, size: 0x8, addend: 0x0, symName: __ZNSt3__116allocator_traitsINS_9allocatorINS_4pairIiiEEEEE10deallocateB7v160006ERS4_PS3_m, symObjAddr: 0x95E0, symBinAddr: 0x10000B1D0, symSize: 0x30 }
  - { offsetInCU: 0x1CC43, offset: 0x1CC43, size: 0x8, addend: 0x0, symName: __ZNSt3__16vectorINS_4pairIiiEENS_9allocatorIS2_EEE7__allocB7v160006Ev, symObjAddr: 0x9610, symBinAddr: 0x10000B200, symSize: 0x20 }
  - { offsetInCU: 0x1CC69, offset: 0x1CC69, size: 0x8, addend: 0x0, symName: __ZNKSt3__16vectorINS_4pairIiiEENS_9allocatorIS2_EEE8capacityB7v160006Ev, symObjAddr: 0x9630, symBinAddr: 0x10000B220, symSize: 0x30 }
  - { offsetInCU: 0x1CC8F, offset: 0x1CC8F, size: 0x8, addend: 0x0, symName: __ZNKSt3__16vectorINS_4pairIiiEENS_9allocatorIS2_EEE31__annotate_contiguous_containerB7v160006EPKvS7_S7_S7_, symObjAddr: 0x9660, symBinAddr: 0x10000B250, symSize: 0x20 }
  - { offsetInCU: 0x1CCE1, offset: 0x1CCE1, size: 0x8, addend: 0x0, symName: __ZNKSt3__16vectorINS_4pairIiiEENS_9allocatorIS2_EEE4dataB7v160006Ev, symObjAddr: 0x9680, symBinAddr: 0x10000B270, symSize: 0x20 }
  - { offsetInCU: 0x1CD07, offset: 0x1CD07, size: 0x8, addend: 0x0, symName: __ZNKSt3__16vectorINS_4pairIiiEENS_9allocatorIS2_EEE4sizeB7v160006Ev, symObjAddr: 0x96A0, symBinAddr: 0x10000B290, symSize: 0x20 }
  - { offsetInCU: 0x1CD2D, offset: 0x1CD2D, size: 0x8, addend: 0x0, symName: __ZNSt3__16vectorINS_4pairIiiEENS_9allocatorIS2_EEE22__base_destruct_at_endB7v160006EPS2_, symObjAddr: 0x96D0, symBinAddr: 0x10000B2C0, symSize: 0x80 }
  - { offsetInCU: 0x1CD71, offset: 0x1CD71, size: 0x8, addend: 0x0, symName: __ZNSt3__116allocator_traitsINS_9allocatorINS_4pairIiiEEEEE7destroyB7v160006IS3_vvEEvRS4_PT_, symObjAddr: 0x9750, symBinAddr: 0x10000B340, symSize: 0x20 }
  - { offsetInCU: 0x1CDAB, offset: 0x1CDAB, size: 0x8, addend: 0x0, symName: __ZNSt3__19allocatorINS_4pairIiiEEE10deallocateB7v160006EPS2_m, symObjAddr: 0x97A0, symBinAddr: 0x10000B390, symSize: 0x40 }
  - { offsetInCU: 0x1CDED, offset: 0x1CDED, size: 0x8, addend: 0x0, symName: __ZNSt3__117__compressed_pairIPNS_4pairIiiEENS_9allocatorIS2_EEE6secondB7v160006Ev, symObjAddr: 0x97E0, symBinAddr: 0x10000B3D0, symSize: 0x20 }
  - { offsetInCU: 0x1CE13, offset: 0x1CE13, size: 0x8, addend: 0x0, symName: __ZNSt3__122__compressed_pair_elemINS_9allocatorINS_4pairIiiEEEELi1ELb1EE5__getB7v160006Ev, symObjAddr: 0x9800, symBinAddr: 0x10000B3F0, symSize: 0x10 }
  - { offsetInCU: 0x1CE39, offset: 0x1CE39, size: 0x8, addend: 0x0, symName: __ZNKSt3__16vectorINS_4pairIiiEENS_9allocatorIS2_EEE9__end_capB7v160006Ev, symObjAddr: 0x9810, symBinAddr: 0x10000B400, symSize: 0x20 }
  - { offsetInCU: 0x1CE5F, offset: 0x1CE5F, size: 0x8, addend: 0x0, symName: __ZNKSt3__117__compressed_pairIPNS_4pairIiiEENS_9allocatorIS2_EEE5firstB7v160006Ev, symObjAddr: 0x9830, symBinAddr: 0x10000B420, symSize: 0x20 }
  - { offsetInCU: 0x1CE85, offset: 0x1CE85, size: 0x8, addend: 0x0, symName: __ZNKSt3__122__compressed_pair_elemIPNS_4pairIiiEELi0ELb0EE5__getB7v160006Ev, symObjAddr: 0x9850, symBinAddr: 0x10000B440, symSize: 0x10 }
  - { offsetInCU: 0x1CEAB, offset: 0x1CEAB, size: 0x8, addend: 0x0, symName: __ZNSt3__16vectorIbNS_9allocatorIbEEED2B7v160006Ev, symObjAddr: 0x9860, symBinAddr: 0x10000B450, symSize: 0x40 }
  - { offsetInCU: 0x1CED5, offset: 0x1CED5, size: 0x8, addend: 0x0, symName: __ZNSt3__16vectorIbNS_9allocatorIbEEE16__destroy_vectorC1ERS3_, symObjAddr: 0x98A0, symBinAddr: 0x10000B490, symSize: 0x30 }
  - { offsetInCU: 0x1CF0E, offset: 0x1CF0E, size: 0x8, addend: 0x0, symName: __ZNSt3__16vectorIbNS_9allocatorIbEEE16__destroy_vectorclB7v160006Ev, symObjAddr: 0x98D0, symBinAddr: 0x10000B4C0, symSize: 0x70 }
  - { offsetInCU: 0x1CF34, offset: 0x1CF34, size: 0x8, addend: 0x0, symName: __ZNSt3__16vectorIbNS_9allocatorIbEEE16__destroy_vectorC2ERS3_, symObjAddr: 0x9940, symBinAddr: 0x10000B530, symSize: 0x20 }
  - { offsetInCU: 0x1CF6D, offset: 0x1CF6D, size: 0x8, addend: 0x0, symName: __ZNSt3__116allocator_traitsINS_9allocatorImEEE10deallocateB7v160006ERS2_Pmm, symObjAddr: 0x9960, symBinAddr: 0x10000B550, symSize: 0x30 }
  - { offsetInCU: 0x1CFAF, offset: 0x1CFAF, size: 0x8, addend: 0x0, symName: __ZNSt3__19allocatorImE10deallocateB7v160006EPmm, symObjAddr: 0x99A0, symBinAddr: 0x10000B590, symSize: 0x40 }
  - { offsetInCU: 0x1CFF1, offset: 0x1CFF1, size: 0x8, addend: 0x0, symName: __ZNSt3__111char_traitsIcE6lengthEPKc, symObjAddr: 0x9BD0, symBinAddr: 0x10000B7C0, symSize: 0x30 }
  - { offsetInCU: 0x1D037, offset: 0x1D037, size: 0x8, addend: 0x0, symName: __ZNKSt3__113basic_ostreamIcNS_11char_traitsIcEEE6sentrycvbB7v160006Ev, symObjAddr: 0x9C00, symBinAddr: 0x10000B7F0, symSize: 0x20 }
  - { offsetInCU: 0x1D05D, offset: 0x1D05D, size: 0x8, addend: 0x0, symName: __ZNSt3__119ostreambuf_iteratorIcNS_11char_traitsIcEEEC1B7v160006ERNS_13basic_ostreamIcS2_EE, symObjAddr: 0x9E40, symBinAddr: 0x10000BA30, symSize: 0x30 }
  - { offsetInCU: 0x1D095, offset: 0x1D095, size: 0x8, addend: 0x0, symName: __ZNKSt3__18ios_base5flagsB7v160006Ev, symObjAddr: 0x9E70, symBinAddr: 0x10000BA60, symSize: 0x20 }
  - { offsetInCU: 0x1D0BD, offset: 0x1D0BD, size: 0x8, addend: 0x0, symName: __ZNKSt3__19basic_iosIcNS_11char_traitsIcEEE4fillB7v160006Ev, symObjAddr: 0x9E90, symBinAddr: 0x10000BA80, symSize: 0x70 }
  - { offsetInCU: 0x1D0E5, offset: 0x1D0E5, size: 0x8, addend: 0x0, symName: __ZNKSt3__119ostreambuf_iteratorIcNS_11char_traitsIcEEE6failedB7v160006Ev, symObjAddr: 0x9F00, symBinAddr: 0x10000BAF0, symSize: 0x20 }
  - { offsetInCU: 0x1D10B, offset: 0x1D10B, size: 0x8, addend: 0x0, symName: __ZNSt3__19basic_iosIcNS_11char_traitsIcEEE8setstateB7v160006Ej, symObjAddr: 0x9F20, symBinAddr: 0x10000BB10, symSize: 0x30 }
  - { offsetInCU: 0x1D140, offset: 0x1D140, size: 0x8, addend: 0x0, symName: __ZNKSt3__18ios_base5widthB7v160006Ev, symObjAddr: 0x9F50, symBinAddr: 0x10000BB40, symSize: 0x20 }
  - { offsetInCU: 0x1D168, offset: 0x1D168, size: 0x8, addend: 0x0, symName: __ZNSt3__115basic_streambufIcNS_11char_traitsIcEEE5sputnB7v160006EPKcl, symObjAddr: 0x9F70, symBinAddr: 0x10000BB60, symSize: 0x30 }
  - { offsetInCU: 0x1D1AA, offset: 0x1D1AA, size: 0x8, addend: 0x0, symName: __ZNSt3__112basic_stringIcNS_11char_traitsIcEENS_9allocatorIcEEEC1B7v160006Emc, symObjAddr: 0x9FA0, symBinAddr: 0x10000BB90, symSize: 0x30 }
  - { offsetInCU: 0x1D1F2, offset: 0x1D1F2, size: 0x8, addend: 0x0, symName: __ZNSt3__112basic_stringIcNS_11char_traitsIcEENS_9allocatorIcEEE4dataB7v160006Ev, symObjAddr: 0x9FD0, symBinAddr: 0x10000BBC0, symSize: 0x30 }
  - { offsetInCU: 0x1D218, offset: 0x1D218, size: 0x8, addend: 0x0, symName: __ZNSt3__18ios_base5widthB7v160006El, symObjAddr: 0xA000, symBinAddr: 0x10000BBF0, symSize: 0x30 }
  - { offsetInCU: 0x1D25E, offset: 0x1D25E, size: 0x8, addend: 0x0, symName: __ZNSt3__112basic_stringIcNS_11char_traitsIcEENS_9allocatorIcEEEC2B7v160006Emc, symObjAddr: 0xA030, symBinAddr: 0x10000BC20, symSize: 0x50 }
  - { offsetInCU: 0x1D2A6, offset: 0x1D2A6, size: 0x8, addend: 0x0, symName: __ZNSt3__117__compressed_pairINS_12basic_stringIcNS_11char_traitsIcEENS_9allocatorIcEEE5__repES5_EC1B7v160006INS_18__default_init_tagESA_EEOT_OT0_, symObjAddr: 0xA080, symBinAddr: 0x10000BC70, symSize: 0x30 }
  - { offsetInCU: 0x1D2FE, offset: 0x1D2FE, size: 0x8, addend: 0x0, symName: __ZNSt3__117__compressed_pairINS_12basic_stringIcNS_11char_traitsIcEENS_9allocatorIcEEE5__repES5_EC2B7v160006INS_18__default_init_tagESA_EEOT_OT0_, symObjAddr: 0xA0C0, symBinAddr: 0x10000BCB0, symSize: 0x30 }
  - { offsetInCU: 0x1D356, offset: 0x1D356, size: 0x8, addend: 0x0, symName: __ZNSt3__122__compressed_pair_elemINS_12basic_stringIcNS_11char_traitsIcEENS_9allocatorIcEEE5__repELi0ELb0EEC2B7v160006ENS_18__default_init_tagE, symObjAddr: 0xA0F0, symBinAddr: 0x10000BCE0, symSize: 0x10 }
  - { offsetInCU: 0x1D38A, offset: 0x1D38A, size: 0x8, addend: 0x0, symName: __ZNSt3__122__compressed_pair_elemINS_9allocatorIcEELi1ELb1EEC2B7v160006ENS_18__default_init_tagE, symObjAddr: 0xA100, symBinAddr: 0x10000BCF0, symSize: 0x20 }
  - { offsetInCU: 0x1D3BE, offset: 0x1D3BE, size: 0x8, addend: 0x0, symName: __ZNSt3__19allocatorIcEC2B7v160006Ev, symObjAddr: 0xA120, symBinAddr: 0x10000BD10, symSize: 0x20 }
  - { offsetInCU: 0x1D3E8, offset: 0x1D3E8, size: 0x8, addend: 0x0, symName: __ZNSt3__116__non_trivial_ifILb1ENS_9allocatorIcEEEC2B7v160006Ev, symObjAddr: 0xA140, symBinAddr: 0x10000BD30, symSize: 0x10 }
  - { offsetInCU: 0x1D412, offset: 0x1D412, size: 0x8, addend: 0x0, symName: __ZNSt3__112basic_stringIcNS_11char_traitsIcEENS_9allocatorIcEEE13__get_pointerB7v160006Ev, symObjAddr: 0xA160, symBinAddr: 0x10000BD50, symSize: 0x50 }
  - { offsetInCU: 0x1D438, offset: 0x1D438, size: 0x8, addend: 0x0, symName: __ZNKSt3__112basic_stringIcNS_11char_traitsIcEENS_9allocatorIcEEE9__is_longB7v160006Ev, symObjAddr: 0xA1B0, symBinAddr: 0x10000BDA0, symSize: 0x30 }
  - { offsetInCU: 0x1D45E, offset: 0x1D45E, size: 0x8, addend: 0x0, symName: __ZNSt3__112basic_stringIcNS_11char_traitsIcEENS_9allocatorIcEEE18__get_long_pointerB7v160006Ev, symObjAddr: 0xA1E0, symBinAddr: 0x10000BDD0, symSize: 0x20 }
  - { offsetInCU: 0x1D484, offset: 0x1D484, size: 0x8, addend: 0x0, symName: __ZNSt3__112basic_stringIcNS_11char_traitsIcEENS_9allocatorIcEEE19__get_short_pointerB7v160006Ev, symObjAddr: 0xA200, symBinAddr: 0x10000BDF0, symSize: 0x30 }
  - { offsetInCU: 0x1D4AA, offset: 0x1D4AA, size: 0x8, addend: 0x0, symName: __ZNKSt3__117__compressed_pairINS_12basic_stringIcNS_11char_traitsIcEENS_9allocatorIcEEE5__repES5_E5firstB7v160006Ev, symObjAddr: 0xA230, symBinAddr: 0x10000BE20, symSize: 0x20 }
  - { offsetInCU: 0x1D4D0, offset: 0x1D4D0, size: 0x8, addend: 0x0, symName: __ZNKSt3__122__compressed_pair_elemINS_12basic_stringIcNS_11char_traitsIcEENS_9allocatorIcEEE5__repELi0ELb0EE5__getB7v160006Ev, symObjAddr: 0xA250, symBinAddr: 0x10000BE40, symSize: 0x10 }
  - { offsetInCU: 0x1D4F6, offset: 0x1D4F6, size: 0x8, addend: 0x0, symName: __ZNSt3__117__compressed_pairINS_12basic_stringIcNS_11char_traitsIcEENS_9allocatorIcEEE5__repES5_E5firstB7v160006Ev, symObjAddr: 0xA260, symBinAddr: 0x10000BE50, symSize: 0x20 }
  - { offsetInCU: 0x1D51C, offset: 0x1D51C, size: 0x8, addend: 0x0, symName: __ZNSt3__122__compressed_pair_elemINS_12basic_stringIcNS_11char_traitsIcEENS_9allocatorIcEEE5__repELi0ELb0EE5__getB7v160006Ev, symObjAddr: 0xA280, symBinAddr: 0x10000BE70, symSize: 0x10 }
  - { offsetInCU: 0x1D542, offset: 0x1D542, size: 0x8, addend: 0x0, symName: __ZNSt3__114pointer_traitsIPcE10pointer_toB7v160006ERc, symObjAddr: 0xA290, symBinAddr: 0x10000BE80, symSize: 0x10 }
  - { offsetInCU: 0x1D565, offset: 0x1D565, size: 0x8, addend: 0x0, symName: __ZNSt3__119ostreambuf_iteratorIcNS_11char_traitsIcEEEC2B7v160006ERNS_13basic_ostreamIcS2_EE, symObjAddr: 0xA2A0, symBinAddr: 0x10000BE90, symSize: 0x50 }
  - { offsetInCU: 0x1D59D, offset: 0x1D59D, size: 0x8, addend: 0x0, symName: __ZNKSt3__19basic_iosIcNS_11char_traitsIcEEE5rdbufB7v160006Ev, symObjAddr: 0xA2F0, symBinAddr: 0x10000BEE0, symSize: 0x20 }
  - { offsetInCU: 0x1D5C5, offset: 0x1D5C5, size: 0x8, addend: 0x0, symName: __ZNKSt3__18ios_base5rdbufB7v160006Ev, symObjAddr: 0xA310, symBinAddr: 0x10000BF00, symSize: 0x20 }
  - { offsetInCU: 0x1D5EB, offset: 0x1D5EB, size: 0x8, addend: 0x0, symName: __ZNSt3__111char_traitsIcE11eq_int_typeEii, symObjAddr: 0xA330, symBinAddr: 0x10000BF20, symSize: 0x20 }
  - { offsetInCU: 0x1D61C, offset: 0x1D61C, size: 0x8, addend: 0x0, symName: __ZNSt3__111char_traitsIcE3eofEv, symObjAddr: 0xA350, symBinAddr: 0x10000BF40, symSize: 0x10 }
  - { offsetInCU: 0x1D630, offset: 0x1D630, size: 0x8, addend: 0x0, symName: __ZNKSt3__19basic_iosIcNS_11char_traitsIcEEE5widenB7v160006Ec, symObjAddr: 0xA360, symBinAddr: 0x10000BF50, symSize: 0x80 }
  - { offsetInCU: 0x1D6A5, offset: 0x1D6A5, size: 0x8, addend: 0x0, symName: __ZNKSt3__15ctypeIcE5widenB7v160006Ec, symObjAddr: 0xA410, symBinAddr: 0x10000C000, symSize: 0x30 }
  - { offsetInCU: 0x1D6DA, offset: 0x1D6DA, size: 0x8, addend: 0x0, symName: __ZNSt3__18ios_base8setstateB7v160006Ej, symObjAddr: 0xA440, symBinAddr: 0x10000C030, symSize: 0x30 }
  - { offsetInCU: 0x1D711, offset: 0x1D711, size: 0x8, addend: 0x0, symName: __ZNSt3__114priority_queueINS_4pairIiiEENS_6vectorIS2_NS_9allocatorIS2_EEEE10ComparatorEC2B7v160006Ev, symObjAddr: 0xA490, symBinAddr: 0x10000C080, symSize: 0x20 }
  - { offsetInCU: 0x1D73B, offset: 0x1D73B, size: 0x8, addend: 0x0, symName: __ZNSt3__16vectorINS_4pairIiiEENS_9allocatorIS2_EEEC1B7v160006Ev, symObjAddr: 0xA4B0, symBinAddr: 0x10000C0A0, symSize: 0x20 }
  - { offsetInCU: 0x1D765, offset: 0x1D765, size: 0x8, addend: 0x0, symName: __ZNSt3__16vectorINS_4pairIiiEENS_9allocatorIS2_EEEC2B7v160006Ev, symObjAddr: 0xA4D0, symBinAddr: 0x10000C0C0, symSize: 0x60 }
  - { offsetInCU: 0x1D78F, offset: 0x1D78F, size: 0x8, addend: 0x0, symName: __ZNSt3__117__compressed_pairIPNS_4pairIiiEENS_9allocatorIS2_EEEC1B7v160006IDnNS_18__default_init_tagEEEOT_OT0_, symObjAddr: 0xA530, symBinAddr: 0x10000C120, symSize: 0x30 }
  - { offsetInCU: 0x1D7E7, offset: 0x1D7E7, size: 0x8, addend: 0x0, symName: __ZNSt3__117__compressed_pairIPNS_4pairIiiEENS_9allocatorIS2_EEEC2B7v160006IDnNS_18__default_init_tagEEEOT_OT0_, symObjAddr: 0xA570, symBinAddr: 0x10000C160, symSize: 0x40 }
  - { offsetInCU: 0x1D83F, offset: 0x1D83F, size: 0x8, addend: 0x0, symName: __ZNSt3__122__compressed_pair_elemIPNS_4pairIiiEELi0ELb0EEC2B7v160006IDnvEEOT_, symObjAddr: 0xA5B0, symBinAddr: 0x10000C1A0, symSize: 0x20 }
  - { offsetInCU: 0x1D881, offset: 0x1D881, size: 0x8, addend: 0x0, symName: __ZNSt3__122__compressed_pair_elemINS_9allocatorINS_4pairIiiEEEELi1ELb1EEC2B7v160006ENS_18__default_init_tagE, symObjAddr: 0xA5D0, symBinAddr: 0x10000C1C0, symSize: 0x20 }
  - { offsetInCU: 0x1D8B5, offset: 0x1D8B5, size: 0x8, addend: 0x0, symName: __ZNSt3__19allocatorINS_4pairIiiEEEC2B7v160006Ev, symObjAddr: 0xA5F0, symBinAddr: 0x10000C1E0, symSize: 0x20 }
  - { offsetInCU: 0x1D8DF, offset: 0x1D8DF, size: 0x8, addend: 0x0, symName: __ZNSt3__116__non_trivial_ifILb1ENS_9allocatorINS_4pairIiiEEEEEC2B7v160006Ev, symObjAddr: 0xA610, symBinAddr: 0x10000C200, symSize: 0x10 }
  - { offsetInCU: 0x1D909, offset: 0x1D909, size: 0x8, addend: 0x0, symName: __ZNSt3__15dequeIiNS_9allocatorIiEEEC2B7v160006Ev, symObjAddr: 0xA620, symBinAddr: 0x10000C210, symSize: 0x50 }
  - { offsetInCU: 0x1D933, offset: 0x1D933, size: 0x8, addend: 0x0, symName: __ZNSt3__114__split_bufferIPiNS_9allocatorIS1_EEEC1Ev, symObjAddr: 0xA670, symBinAddr: 0x10000C260, symSize: 0x20 }
  - { offsetInCU: 0x1D95F, offset: 0x1D95F, size: 0x8, addend: 0x0, symName: __ZNSt3__117__compressed_pairImNS_9allocatorIiEEEC1B7v160006IiNS_18__default_init_tagEEEOT_OT0_, symObjAddr: 0xA690, symBinAddr: 0x10000C280, symSize: 0x30 }
  - { offsetInCU: 0x1D9B7, offset: 0x1D9B7, size: 0x8, addend: 0x0, symName: __ZNSt3__114__split_bufferIPiNS_9allocatorIS1_EEEC2Ev, symObjAddr: 0xA6C0, symBinAddr: 0x10000C2B0, symSize: 0x60 }
  - { offsetInCU: 0x1D9E3, offset: 0x1D9E3, size: 0x8, addend: 0x0, symName: __ZNSt3__117__compressed_pairIPPiNS_9allocatorIS1_EEEC1B7v160006IDnNS_18__default_init_tagEEEOT_OT0_, symObjAddr: 0xA720, symBinAddr: 0x10000C310, symSize: 0x30 }
  - { offsetInCU: 0x1DA3B, offset: 0x1DA3B, size: 0x8, addend: 0x0, symName: __ZNSt3__117__compressed_pairIPPiNS_9allocatorIS1_EEEC2B7v160006IDnNS_18__default_init_tagEEEOT_OT0_, symObjAddr: 0xA750, symBinAddr: 0x10000C340, symSize: 0x40 }
  - { offsetInCU: 0x1DA93, offset: 0x1DA93, size: 0x8, addend: 0x0, symName: __ZNSt3__122__compressed_pair_elemIPPiLi0ELb0EEC2B7v160006IDnvEEOT_, symObjAddr: 0xA790, symBinAddr: 0x10000C380, symSize: 0x20 }
  - { offsetInCU: 0x1DAD5, offset: 0x1DAD5, size: 0x8, addend: 0x0, symName: __ZNSt3__122__compressed_pair_elemINS_9allocatorIPiEELi1ELb1EEC2B7v160006ENS_18__default_init_tagE, symObjAddr: 0xA7B0, symBinAddr: 0x10000C3A0, symSize: 0x20 }
  - { offsetInCU: 0x1DB09, offset: 0x1DB09, size: 0x8, addend: 0x0, symName: __ZNSt3__19allocatorIPiEC2B7v160006Ev, symObjAddr: 0xA7D0, symBinAddr: 0x10000C3C0, symSize: 0x20 }
  - { offsetInCU: 0x1DB33, offset: 0x1DB33, size: 0x8, addend: 0x0, symName: __ZNSt3__116__non_trivial_ifILb1ENS_9allocatorIPiEEEC2B7v160006Ev, symObjAddr: 0xA7F0, symBinAddr: 0x10000C3E0, symSize: 0x10 }
  - { offsetInCU: 0x1DB5D, offset: 0x1DB5D, size: 0x8, addend: 0x0, symName: __ZNSt3__117__compressed_pairImNS_9allocatorIiEEEC2B7v160006IiNS_18__default_init_tagEEEOT_OT0_, symObjAddr: 0xA800, symBinAddr: 0x10000C3F0, symSize: 0x40 }
  - { offsetInCU: 0x1DBB5, offset: 0x1DBB5, size: 0x8, addend: 0x0, symName: __ZNSt3__15dequeIiNS_9allocatorIiEEED2B7v160006Ev, symObjAddr: 0xA840, symBinAddr: 0x10000C430, symSize: 0x80 }
  - { offsetInCU: 0x1DC0B, offset: 0x1DC0B, size: 0x8, addend: 0x0, symName: __ZNSt3__15dequeIiNS_9allocatorIiEEE5clearEv, symObjAddr: 0xA8C0, symBinAddr: 0x10000C4B0, symSize: 0x180 }
  - { offsetInCU: 0x1DC66, offset: 0x1DC66, size: 0x8, addend: 0x0, symName: __ZNSt3__114__split_bufferIPiNS_9allocatorIS1_EEE5beginB7v160006Ev, symObjAddr: 0xAA40, symBinAddr: 0x10000C630, symSize: 0x20 }
  - { offsetInCU: 0x1DC8C, offset: 0x1DC8C, size: 0x8, addend: 0x0, symName: __ZNSt3__114__split_bufferIPiNS_9allocatorIS1_EEE3endB7v160006Ev, symObjAddr: 0xAA60, symBinAddr: 0x10000C650, symSize: 0x20 }
  - { offsetInCU: 0x1DCB2, offset: 0x1DCB2, size: 0x8, addend: 0x0, symName: __ZNSt3__15dequeIiNS_9allocatorIiEEE7__allocB7v160006Ev, symObjAddr: 0xAA80, symBinAddr: 0x10000C670, symSize: 0x20 }
  - { offsetInCU: 0x1DCD8, offset: 0x1DCD8, size: 0x8, addend: 0x0, symName: __ZNSt3__114__split_bufferIPiNS_9allocatorIS1_EEED1Ev, symObjAddr: 0xAAA0, symBinAddr: 0x10000C690, symSize: 0x20 }
  - { offsetInCU: 0x1DD04, offset: 0x1DD04, size: 0x8, addend: 0x0, symName: __ZNSt3__15dequeIiNS_9allocatorIiEEE5beginB7v160006Ev, symObjAddr: 0xAAC0, symBinAddr: 0x10000C6B0, symSize: 0xB0 }
  - { offsetInCU: 0x1DD39, offset: 0x1DD39, size: 0x8, addend: 0x0, symName: __ZNSt3__15dequeIiNS_9allocatorIiEEE3endB7v160006Ev, symObjAddr: 0xAB70, symBinAddr: 0x10000C760, symSize: 0xB0 }
  - { offsetInCU: 0x1DD7D, offset: 0x1DD7D, size: 0x8, addend: 0x0, symName: __ZNKSt3__116__deque_iteratorIiPiRiPS1_lLl1024EEdeB7v160006Ev, symObjAddr: 0xAC50, symBinAddr: 0x10000C840, symSize: 0x20 }
  - { offsetInCU: 0x1DDA3, offset: 0x1DDA3, size: 0x8, addend: 0x0, symName: __ZNSt3__116__deque_iteratorIiPiRiPS1_lLl1024EEppB7v160006Ev, symObjAddr: 0xAC70, symBinAddr: 0x10000C860, symSize: 0x60 }
  - { offsetInCU: 0x1DDC9, offset: 0x1DDC9, size: 0x8, addend: 0x0, symName: __ZNSt3__15dequeIiNS_9allocatorIiEEE6__sizeB7v160006Ev, symObjAddr: 0xACD0, symBinAddr: 0x10000C8C0, symSize: 0x20 }
  - { offsetInCU: 0x1DDEF, offset: 0x1DDEF, size: 0x8, addend: 0x0, symName: __ZNKSt3__114__split_bufferIPiNS_9allocatorIS1_EEE4sizeB7v160006Ev, symObjAddr: 0xACF0, symBinAddr: 0x10000C8E0, symSize: 0x20 }
  - { offsetInCU: 0x1DE15, offset: 0x1DE15, size: 0x8, addend: 0x0, symName: __ZNSt3__114__split_bufferIPiNS_9allocatorIS1_EEE5frontB7v160006Ev, symObjAddr: 0xAD10, symBinAddr: 0x10000C900, symSize: 0x20 }
  - { offsetInCU: 0x1DE3B, offset: 0x1DE3B, size: 0x8, addend: 0x0, symName: __ZNSt3__114__split_bufferIPiNS_9allocatorIS1_EEE9pop_frontB7v160006Ev, symObjAddr: 0xAD30, symBinAddr: 0x10000C920, symSize: 0x30 }
  - { offsetInCU: 0x1DE61, offset: 0x1DE61, size: 0x8, addend: 0x0, symName: __ZNKSt3__114__split_bufferIPiNS_9allocatorIS1_EEE5emptyB7v160006Ev, symObjAddr: 0xAD60, symBinAddr: 0x10000C950, symSize: 0x20 }
  - { offsetInCU: 0x1DE87, offset: 0x1DE87, size: 0x8, addend: 0x0, symName: __ZNSt3__116__deque_iteratorIiPiRiPS1_lLl1024EEC1B7v160006ES3_S1_, symObjAddr: 0xAD80, symBinAddr: 0x10000C970, symSize: 0x30 }
  - { offsetInCU: 0x1DECF, offset: 0x1DECF, size: 0x8, addend: 0x0, symName: __ZNSt3__116__deque_iteratorIiPiRiPS1_lLl1024EEC2B7v160006ES3_S1_, symObjAddr: 0xADB0, symBinAddr: 0x10000C9A0, symSize: 0x30 }
  - { offsetInCU: 0x1DF17, offset: 0x1DF17, size: 0x8, addend: 0x0, symName: __ZNKSt3__15dequeIiNS_9allocatorIiEEE4sizeB7v160006Ev, symObjAddr: 0xADE0, symBinAddr: 0x10000C9D0, symSize: 0x20 }
  - { offsetInCU: 0x1DF3D, offset: 0x1DF3D, size: 0x8, addend: 0x0, symName: __ZNKSt3__15dequeIiNS_9allocatorIiEEE6__sizeB7v160006Ev, symObjAddr: 0xAE00, symBinAddr: 0x10000C9F0, symSize: 0x20 }
  - { offsetInCU: 0x1DF63, offset: 0x1DF63, size: 0x8, addend: 0x0, symName: __ZNKSt3__117__compressed_pairImNS_9allocatorIiEEE5firstB7v160006Ev, symObjAddr: 0xAE20, symBinAddr: 0x10000CA10, symSize: 0x20 }
  - { offsetInCU: 0x1DF89, offset: 0x1DF89, size: 0x8, addend: 0x0, symName: __ZNKSt3__122__compressed_pair_elemImLi0ELb0EE5__getB7v160006Ev, symObjAddr: 0xAE40, symBinAddr: 0x10000CA30, symSize: 0x10 }
  - { offsetInCU: 0x1DFAF, offset: 0x1DFAF, size: 0x8, addend: 0x0, symName: __ZNSt3__117__compressed_pairImNS_9allocatorIiEEE5firstB7v160006Ev, symObjAddr: 0xAE80, symBinAddr: 0x10000CA70, symSize: 0x20 }
  - { offsetInCU: 0x1DFD5, offset: 0x1DFD5, size: 0x8, addend: 0x0, symName: __ZNSt3__114__split_bufferIPiNS_9allocatorIS1_EEE19__destruct_at_beginB7v160006EPS1_, symObjAddr: 0xAEA0, symBinAddr: 0x10000CA90, symSize: 0x30 }
  - { offsetInCU: 0x1E009, offset: 0x1E009, size: 0x8, addend: 0x0, symName: __ZNSt3__114__split_bufferIPiNS_9allocatorIS1_EEE19__destruct_at_beginEPS1_NS_17integral_constantIbLb1EEE, symObjAddr: 0xAED0, symBinAddr: 0x10000CAC0, symSize: 0x20 }
  - { offsetInCU: 0x1E049, offset: 0x1E049, size: 0x8, addend: 0x0, symName: __ZNSt3__117__compressed_pairImNS_9allocatorIiEEE6secondB7v160006Ev, symObjAddr: 0xAEF0, symBinAddr: 0x10000CAE0, symSize: 0x20 }
  - { offsetInCU: 0x1E06F, offset: 0x1E06F, size: 0x8, addend: 0x0, symName: __ZNSt3__114__split_bufferIPiNS_9allocatorIS1_EEED2Ev, symObjAddr: 0xAF10, symBinAddr: 0x10000CB00, symSize: 0x70 }
  - { offsetInCU: 0x1E09B, offset: 0x1E09B, size: 0x8, addend: 0x0, symName: __ZNSt3__114__split_bufferIPiNS_9allocatorIS1_EEE5clearB7v160006Ev, symObjAddr: 0xAF80, symBinAddr: 0x10000CB70, symSize: 0x20 }
  - { offsetInCU: 0x1E0C1, offset: 0x1E0C1, size: 0x8, addend: 0x0, symName: __ZNSt3__116allocator_traitsINS_9allocatorIPiEEE10deallocateB7v160006ERS3_PS2_m, symObjAddr: 0xAFA0, symBinAddr: 0x10000CB90, symSize: 0x30 }
  - { offsetInCU: 0x1E103, offset: 0x1E103, size: 0x8, addend: 0x0, symName: __ZNSt3__114__split_bufferIPiNS_9allocatorIS1_EEE7__allocB7v160006Ev, symObjAddr: 0xAFD0, symBinAddr: 0x10000CBC0, symSize: 0x20 }
  - { offsetInCU: 0x1E129, offset: 0x1E129, size: 0x8, addend: 0x0, symName: __ZNKSt3__114__split_bufferIPiNS_9allocatorIS1_EEE8capacityB7v160006Ev, symObjAddr: 0xAFF0, symBinAddr: 0x10000CBE0, symSize: 0x30 }
  - { offsetInCU: 0x1E14F, offset: 0x1E14F, size: 0x8, addend: 0x0, symName: __ZNSt3__114__split_bufferIPiNS_9allocatorIS1_EEE17__destruct_at_endB7v160006EPS1_, symObjAddr: 0xB020, symBinAddr: 0x10000CC10, symSize: 0x30 }
  - { offsetInCU: 0x1E183, offset: 0x1E183, size: 0x8, addend: 0x0, symName: __ZNSt3__114__split_bufferIPiNS_9allocatorIS1_EEE17__destruct_at_endB7v160006EPS1_NS_17integral_constantIbLb0EEE, symObjAddr: 0xB050, symBinAddr: 0x10000CC40, symSize: 0x80 }
  - { offsetInCU: 0x1E1C3, offset: 0x1E1C3, size: 0x8, addend: 0x0, symName: __ZNSt3__116allocator_traitsINS_9allocatorIPiEEE7destroyB7v160006IS2_vvEEvRS3_PT_, symObjAddr: 0xB0D0, symBinAddr: 0x10000CCC0, symSize: 0x20 }
  - { offsetInCU: 0x1E1FD, offset: 0x1E1FD, size: 0x8, addend: 0x0, symName: __ZNSt3__19allocatorIPiE10deallocateB7v160006EPS1_m, symObjAddr: 0xB130, symBinAddr: 0x10000CD20, symSize: 0x40 }
  - { offsetInCU: 0x1E23F, offset: 0x1E23F, size: 0x8, addend: 0x0, symName: __ZNSt3__117__compressed_pairIPPiNS_9allocatorIS1_EEE6secondB7v160006Ev, symObjAddr: 0xB170, symBinAddr: 0x10000CD60, symSize: 0x20 }
  - { offsetInCU: 0x1E265, offset: 0x1E265, size: 0x8, addend: 0x0, symName: __ZNSt3__122__compressed_pair_elemINS_9allocatorIPiEELi1ELb1EE5__getB7v160006Ev, symObjAddr: 0xB190, symBinAddr: 0x10000CD80, symSize: 0x10 }
  - { offsetInCU: 0x1E28B, offset: 0x1E28B, size: 0x8, addend: 0x0, symName: __ZNKSt3__114__split_bufferIPiNS_9allocatorIS1_EEE9__end_capB7v160006Ev, symObjAddr: 0xB1A0, symBinAddr: 0x10000CD90, symSize: 0x20 }
  - { offsetInCU: 0x1E2B1, offset: 0x1E2B1, size: 0x8, addend: 0x0, symName: __ZNKSt3__117__compressed_pairIPPiNS_9allocatorIS1_EEE5firstB7v160006Ev, symObjAddr: 0xB1C0, symBinAddr: 0x10000CDB0, symSize: 0x20 }
  - { offsetInCU: 0x1E2D7, offset: 0x1E2D7, size: 0x8, addend: 0x0, symName: __ZNKSt3__122__compressed_pair_elemIPPiLi0ELb0EE5__getB7v160006Ev, symObjAddr: 0xB1E0, symBinAddr: 0x10000CDD0, symSize: 0x10 }
  - { offsetInCU: 0x1E2FD, offset: 0x1E2FD, size: 0x8, addend: 0x0, symName: __ZNKSt3__15dequeIiNS_9allocatorIiEEE12__back_spareB7v160006Ev, symObjAddr: 0xB1F0, symBinAddr: 0x10000CDE0, symSize: 0x50 }
  - { offsetInCU: 0x1E323, offset: 0x1E323, size: 0x8, addend: 0x0, symName: __ZNSt3__15dequeIiNS_9allocatorIiEEE19__add_back_capacityEv, symObjAddr: 0xB240, symBinAddr: 0x10000CE30, symSize: 0x380 }
  - { offsetInCU: 0x1E3D8, offset: 0x1E3D8, size: 0x8, addend: 0x0, symName: __ZNKSt3__15dequeIiNS_9allocatorIiEEE10__capacityB7v160006Ev, symObjAddr: 0xB5C0, symBinAddr: 0x10000D1B0, symSize: 0x50 }
  - { offsetInCU: 0x1E3FE, offset: 0x1E3FE, size: 0x8, addend: 0x0, symName: __ZNKSt3__15dequeIiNS_9allocatorIiEEE13__front_spareB7v160006Ev, symObjAddr: 0xB610, symBinAddr: 0x10000D200, symSize: 0x20 }
  - { offsetInCU: 0x1E424, offset: 0x1E424, size: 0x8, addend: 0x0, symName: __ZNSt3__114__split_bufferIPiNS_9allocatorIS1_EEE9push_backB7v160006ERKS1_, symObjAddr: 0xB630, symBinAddr: 0x10000D220, symSize: 0x290 }
  - { offsetInCU: 0x1E49C, offset: 0x1E49C, size: 0x8, addend: 0x0, symName: __ZNKSt3__114__split_bufferIPiNS_9allocatorIS1_EEE12__back_spareB7v160006Ev, symObjAddr: 0xB8C0, symBinAddr: 0x10000D4B0, symSize: 0x40 }
  - { offsetInCU: 0x1E4C2, offset: 0x1E4C2, size: 0x8, addend: 0x0, symName: __ZNSt3__114__split_bufferIPiNS_9allocatorIS1_EEE9push_backEOS1_, symObjAddr: 0xB900, symBinAddr: 0x10000D4F0, symSize: 0x290 }
  - { offsetInCU: 0x1E53A, offset: 0x1E53A, size: 0x8, addend: 0x0, symName: __ZNSt3__116allocator_traitsINS_9allocatorIiEEE8allocateB7v160006ERS2_m, symObjAddr: 0xBB90, symBinAddr: 0x10000D780, symSize: 0x30 }
  - { offsetInCU: 0x1E56D, offset: 0x1E56D, size: 0x8, addend: 0x0, symName: __ZNSt3__114__split_bufferIPiNS_9allocatorIS1_EEE10push_frontEOS1_, symObjAddr: 0xBBC0, symBinAddr: 0x10000D7B0, symSize: 0x270 }
  - { offsetInCU: 0x1E5E5, offset: 0x1E5E5, size: 0x8, addend: 0x0, symName: __ZNSt3__114__split_bufferIPiRNS_9allocatorIS1_EEEC1EmmS4_, symObjAddr: 0xBE30, symBinAddr: 0x10000DA20, symSize: 0x40 }
  - { offsetInCU: 0x1E641, offset: 0x1E641, size: 0x8, addend: 0x0, symName: __ZNSt3__122__allocator_destructorINS_9allocatorIiEEEC1B7v160006ERS2_m, symObjAddr: 0xBE70, symBinAddr: 0x10000DA60, symSize: 0x30 }
  - { offsetInCU: 0x1E700, offset: 0x1E700, size: 0x8, addend: 0x0, symName: __ZNSt3__110unique_ptrIPiNS_22__allocator_destructorINS_9allocatorIiEEEEEC1B7v160006ILb1EvEES1_NS_16__dependent_typeINS_27__unique_ptr_deleter_sfinaeIS5_EEXT_EE20__good_rval_ref_typeE, symObjAddr: 0xBEA0, symBinAddr: 0x10000DA90, symSize: 0x30 }
  - { offsetInCU: 0x1E751, offset: 0x1E751, size: 0x8, addend: 0x0, symName: __ZNSt3__114__split_bufferIPiRNS_9allocatorIS1_EEE9push_backEOS1_, symObjAddr: 0xBED0, symBinAddr: 0x10000DAC0, symSize: 0x290 }
  - { offsetInCU: 0x1E7C9, offset: 0x1E7C9, size: 0x8, addend: 0x0, symName: __ZNKSt3__110unique_ptrIPiNS_22__allocator_destructorINS_9allocatorIiEEEEE3getB7v160006Ev, symObjAddr: 0xC160, symBinAddr: 0x10000DD50, symSize: 0x20 }
  - { offsetInCU: 0x1E7EF, offset: 0x1E7EF, size: 0x8, addend: 0x0, symName: __ZNSt3__110unique_ptrIPiNS_22__allocator_destructorINS_9allocatorIiEEEEE7releaseB7v160006Ev, symObjAddr: 0xC180, symBinAddr: 0x10000DD70, symSize: 0x40 }
  - { offsetInCU: 0x1E824, offset: 0x1E824, size: 0x8, addend: 0x0, symName: __ZNSt3__114__split_bufferIPiRNS_9allocatorIS1_EEE10push_frontERKS1_, symObjAddr: 0xC1C0, symBinAddr: 0x10000DDB0, symSize: 0x270 }
  - { offsetInCU: 0x1E89C, offset: 0x1E89C, size: 0x8, addend: 0x0, symName: __ZNSt3__114__split_bufferIPiNS_9allocatorIS1_EEE9__end_capB7v160006Ev, symObjAddr: 0xC470, symBinAddr: 0x10000E060, symSize: 0x20 }
  - { offsetInCU: 0x1E8C2, offset: 0x1E8C2, size: 0x8, addend: 0x0, symName: __ZNSt3__114__split_bufferIPiRNS_9allocatorIS1_EEE9__end_capB7v160006Ev, symObjAddr: 0xC490, symBinAddr: 0x10000E080, symSize: 0x20 }
  - { offsetInCU: 0x1E8E8, offset: 0x1E8E8, size: 0x8, addend: 0x0, symName: __ZNSt3__110unique_ptrIPiNS_22__allocator_destructorINS_9allocatorIiEEEEED1B7v160006Ev, symObjAddr: 0xC4B0, symBinAddr: 0x10000E0A0, symSize: 0x20 }
  - { offsetInCU: 0x1E912, offset: 0x1E912, size: 0x8, addend: 0x0, symName: __ZNSt3__114__split_bufferIPiRNS_9allocatorIS1_EEED1Ev, symObjAddr: 0xC4D0, symBinAddr: 0x10000E0C0, symSize: 0x20 }
  - { offsetInCU: 0x1E93E, offset: 0x1E93E, size: 0x8, addend: 0x0, symName: __ZNSt3__114__split_bufferIPiRNS_9allocatorIS1_EEE18__construct_at_endINS_13move_iteratorIPS1_EEEENS_9enable_ifIXsr27__is_cpp17_forward_iteratorIT_EE5valueEvE4typeESB_SB_, symObjAddr: 0xC530, symBinAddr: 0x10000E120, symSize: 0x100 }
  - { offsetInCU: 0x1E99A, offset: 0x1E99A, size: 0x8, addend: 0x0, symName: __ZNSt3__113move_iteratorIPPiEC1B7v160006ES2_, symObjAddr: 0xC630, symBinAddr: 0x10000E220, symSize: 0x30 }
  - { offsetInCU: 0x1E9D2, offset: 0x1E9D2, size: 0x8, addend: 0x0, symName: __ZNSt3__116allocator_traitsINS_9allocatorIPiEEE9constructB7v160006IS2_JRKS2_EvvEEvRS3_PT_DpOT0_, symObjAddr: 0xC660, symBinAddr: 0x10000E250, symSize: 0x30 }
  - { offsetInCU: 0x1EA54, offset: 0x1EA54, size: 0x8, addend: 0x0, symName: __ZNKSt3__114__move_trivialclB7v160006IPiS2_Li0EEENS_4pairIPT_PT0_EES5_S5_S7_, symObjAddr: 0xC800, symBinAddr: 0x10000E3F0, symSize: 0x40 }
  - { offsetInCU: 0x1EABC, offset: 0x1EABC, size: 0x8, addend: 0x0, symName: __ZNSt3__119__unwrap_range_implIPPiS2_E8__unwrapB7v160006ES2_S2_, symObjAddr: 0xC900, symBinAddr: 0x10000E4F0, symSize: 0x50 }
  - { offsetInCU: 0x1EAF3, offset: 0x1EAF3, size: 0x8, addend: 0x0, symName: __ZNSt3__14pairIPPiS2_EC1B7v160006IS2_S2_LPv0EEEOT_OT0_, symObjAddr: 0xC950, symBinAddr: 0x10000E540, symSize: 0x30 }
  - { offsetInCU: 0x1EB51, offset: 0x1EB51, size: 0x8, addend: 0x0, symName: __ZNSt3__14pairIPPiS2_EC2B7v160006IS2_S2_LPv0EEEOT_OT0_, symObjAddr: 0xC980, symBinAddr: 0x10000E570, symSize: 0x30 }
  - { offsetInCU: 0x1EBAF, offset: 0x1EBAF, size: 0x8, addend: 0x0, symName: __ZNSt3__14pairIPPiS2_EC1B7v160006IRS2_S2_LPv0EEEOT_OT0_, symObjAddr: 0xCA50, symBinAddr: 0x10000E640, symSize: 0x30 }
  - { offsetInCU: 0x1EC0D, offset: 0x1EC0D, size: 0x8, addend: 0x0, symName: __ZNSt3__14pairIPPiS2_EC2B7v160006IRS2_S2_LPv0EEEOT_OT0_, symObjAddr: 0xCA80, symBinAddr: 0x10000E670, symSize: 0x30 }
  - { offsetInCU: 0x1EC6B, offset: 0x1EC6B, size: 0x8, addend: 0x0, symName: __ZNSt3__118__unwrap_iter_implIPPiLb1EE8__unwrapB7v160006ES2_, symObjAddr: 0xCAB0, symBinAddr: 0x10000E6A0, symSize: 0x20 }
  - { offsetInCU: 0x1EC8E, offset: 0x1EC8E, size: 0x8, addend: 0x0, symName: __ZNSt3__119__unwrap_range_implIPPiS2_E8__rewrapB7v160006ES2_S2_, symObjAddr: 0xCAD0, symBinAddr: 0x10000E6C0, symSize: 0x30 }
  - { offsetInCU: 0x1ECBF, offset: 0x1ECBF, size: 0x8, addend: 0x0, symName: __ZNSt3__118__unwrap_iter_implIPPiLb1EE8__rewrapB7v160006ES2_S2_, symObjAddr: 0xCB00, symBinAddr: 0x10000E6F0, symSize: 0x50 }
  - { offsetInCU: 0x1ECFC, offset: 0x1ECFC, size: 0x8, addend: 0x0, symName: __ZNSt3__114__split_bufferIPiRNS_9allocatorIS1_EEE21_ConstructTransactionC1B7v160006EPPS1_m, symObjAddr: 0xCB90, symBinAddr: 0x10000E780, symSize: 0x30 }
  - { offsetInCU: 0x1ED48, offset: 0x1ED48, size: 0x8, addend: 0x0, symName: __ZNSt3__116allocator_traitsINS_9allocatorIPiEEE9constructB7v160006IS2_JS2_EvvEEvRS3_PT_DpOT0_, symObjAddr: 0xCBC0, symBinAddr: 0x10000E7B0, symSize: 0x30 }
  - { offsetInCU: 0x1ED9C, offset: 0x1ED9C, size: 0x8, addend: 0x0, symName: __ZNSt3__114__split_bufferIPiRNS_9allocatorIS1_EEE7__allocB7v160006Ev, symObjAddr: 0xCBF0, symBinAddr: 0x10000E7E0, symSize: 0x20 }
  - { offsetInCU: 0x1EDC2, offset: 0x1EDC2, size: 0x8, addend: 0x0, symName: __ZNKSt3__113move_iteratorIPPiEdeB7v160006Ev, symObjAddr: 0xCC10, symBinAddr: 0x10000E800, symSize: 0x30 }
  - { offsetInCU: 0x1EDE8, offset: 0x1EDE8, size: 0x8, addend: 0x0, symName: __ZNSt3__113move_iteratorIPPiEppB7v160006Ev, symObjAddr: 0xCC40, symBinAddr: 0x10000E830, symSize: 0x20 }
  - { offsetInCU: 0x1EE0E, offset: 0x1EE0E, size: 0x8, addend: 0x0, symName: __ZNSt3__114__split_bufferIPiRNS_9allocatorIS1_EEE21_ConstructTransactionD1B7v160006Ev, symObjAddr: 0xCC60, symBinAddr: 0x10000E850, symSize: 0x20 }
  - { offsetInCU: 0x1EE38, offset: 0x1EE38, size: 0x8, addend: 0x0, symName: __ZNKRSt3__113move_iteratorIPPiE4baseB7v160006Ev, symObjAddr: 0xCCF0, symBinAddr: 0x10000E8E0, symSize: 0x10 }
  - { offsetInCU: 0x1EE5E, offset: 0x1EE5E, size: 0x8, addend: 0x0, symName: __ZNSt3__114__split_bufferIPiRNS_9allocatorIS1_EEE21_ConstructTransactionC2B7v160006EPPS1_m, symObjAddr: 0xCD00, symBinAddr: 0x10000E8F0, symSize: 0x40 }
  - { offsetInCU: 0x1EEA4, offset: 0x1EEA4, size: 0x8, addend: 0x0, symName: __ZNSt3__117__compressed_pairIPPiRNS_9allocatorIS1_EEE6secondB7v160006Ev, symObjAddr: 0xCD70, symBinAddr: 0x10000E960, symSize: 0x20 }
  - { offsetInCU: 0x1EECA, offset: 0x1EECA, size: 0x8, addend: 0x0, symName: __ZNSt3__122__compressed_pair_elemIRNS_9allocatorIPiEELi1ELb0EE5__getB7v160006Ev, symObjAddr: 0xCD90, symBinAddr: 0x10000E980, symSize: 0x20 }
  - { offsetInCU: 0x1EEF6, offset: 0x1EEF6, size: 0x8, addend: 0x0, symName: __ZNKSt3__16ranges11__iter_move4__fnclB7v160006IRKPPiEEDTclsr3stdE4movedeclsr3stdE7forwardIT_Efp_EEEOS8_, symObjAddr: 0xCDB0, symBinAddr: 0x10000E9A0, symSize: 0x20 }
  - { offsetInCU: 0x1EF33, offset: 0x1EF33, size: 0x8, addend: 0x0, symName: __ZNSt3__114__split_bufferIPiRNS_9allocatorIS1_EEE21_ConstructTransactionD2B7v160006Ev, symObjAddr: 0xCDD0, symBinAddr: 0x10000E9C0, symSize: 0x20 }
  - { offsetInCU: 0x1EF5D, offset: 0x1EF5D, size: 0x8, addend: 0x0, symName: __ZNSt3__113move_iteratorIPPiEC2B7v160006ES2_, symObjAddr: 0xCDF0, symBinAddr: 0x10000E9E0, symSize: 0x20 }
  - { offsetInCU: 0x1EFA0, offset: 0x1EFA0, size: 0x8, addend: 0x0, symName: __ZNKSt3__123__move_backward_trivialclB7v160006IPiS2_Li0EEENS_4pairIPT_PT0_EES5_S5_S7_, symObjAddr: 0xCFB0, symBinAddr: 0x10000EBA0, symSize: 0x40 }
  - { offsetInCU: 0x1F008, offset: 0x1F008, size: 0x8, addend: 0x0, symName: __ZNSt3__14pairIPPiS2_EC1B7v160006IRS2_S5_LPv0EEEOT_OT0_, symObjAddr: 0xD0A0, symBinAddr: 0x10000EC90, symSize: 0x30 }
  - { offsetInCU: 0x1F066, offset: 0x1F066, size: 0x8, addend: 0x0, symName: __ZNSt3__14pairIPPiS2_EC2B7v160006IRS2_S5_LPv0EEEOT_OT0_, symObjAddr: 0xD0D0, symBinAddr: 0x10000ECC0, symSize: 0x30 }
  - { offsetInCU: 0x1F0C4, offset: 0x1F0C4, size: 0x8, addend: 0x0, symName: __ZNSt3__114__split_bufferIPiRNS_9allocatorIS1_EEEC2EmmS4_, symObjAddr: 0xD100, symBinAddr: 0x10000ECF0, symSize: 0xD0 }
  - { offsetInCU: 0x1F137, offset: 0x1F137, size: 0x8, addend: 0x0, symName: __ZNSt3__117__compressed_pairIPPiRNS_9allocatorIS1_EEEC1B7v160006IDnS5_EEOT_OT0_, symObjAddr: 0xD1D0, symBinAddr: 0x10000EDC0, symSize: 0x30 }
  - { offsetInCU: 0x1F18F, offset: 0x1F18F, size: 0x8, addend: 0x0, symName: __ZNSt3__117__compressed_pairIPPiRNS_9allocatorIS1_EEEC2B7v160006IDnS5_EEOT_OT0_, symObjAddr: 0xD240, symBinAddr: 0x10000EE30, symSize: 0x40 }
  - { offsetInCU: 0x1F1E7, offset: 0x1F1E7, size: 0x8, addend: 0x0, symName: __ZNSt3__122__compressed_pair_elemIRNS_9allocatorIPiEELi1ELb0EEC2B7v160006IS4_vEEOT_, symObjAddr: 0xD280, symBinAddr: 0x10000EE70, symSize: 0x20 }
  - { offsetInCU: 0x1F229, offset: 0x1F229, size: 0x8, addend: 0x0, symName: __ZNSt3__19allocatorIPiE17allocate_at_leastB7v160006Em, symObjAddr: 0xD2E0, symBinAddr: 0x10000EED0, symSize: 0x40 }
  - { offsetInCU: 0x1F25D, offset: 0x1F25D, size: 0x8, addend: 0x0, symName: __ZNSt3__19allocatorIPiE8allocateB7v160006Em, symObjAddr: 0xD320, symBinAddr: 0x10000EF10, symSize: 0x50 }
  - { offsetInCU: 0x1F29C, offset: 0x1F29C, size: 0x8, addend: 0x0, symName: __ZNSt3__116allocator_traitsINS_9allocatorIPiEEE8max_sizeB7v160006IS3_vvEEmRKS3_, symObjAddr: 0xD370, symBinAddr: 0x10000EF60, symSize: 0x20 }
  - { offsetInCU: 0x1F2C7, offset: 0x1F2C7, size: 0x8, addend: 0x0, symName: __ZNSt3__122__allocator_destructorINS_9allocatorIiEEEC2B7v160006ERS2_m, symObjAddr: 0xD390, symBinAddr: 0x10000EF80, symSize: 0x30 }
  - { offsetInCU: 0x1F30D, offset: 0x1F30D, size: 0x8, addend: 0x0, symName: __ZNSt3__110unique_ptrIPiNS_22__allocator_destructorINS_9allocatorIiEEEEEC2B7v160006ILb1EvEES1_NS_16__dependent_typeINS_27__unique_ptr_deleter_sfinaeIS5_EEXT_EE20__good_rval_ref_typeE, symObjAddr: 0xD3C0, symBinAddr: 0x10000EFB0, symSize: 0x40 }
  - { offsetInCU: 0x1F35E, offset: 0x1F35E, size: 0x8, addend: 0x0, symName: __ZNSt3__117__compressed_pairIPiNS_22__allocator_destructorINS_9allocatorIiEEEEEC1B7v160006IRS1_S5_EEOT_OT0_, symObjAddr: 0xD400, symBinAddr: 0x10000EFF0, symSize: 0x30 }
  - { offsetInCU: 0x1F3B6, offset: 0x1F3B6, size: 0x8, addend: 0x0, symName: __ZNSt3__117__compressed_pairIPiNS_22__allocator_destructorINS_9allocatorIiEEEEEC2B7v160006IRS1_S5_EEOT_OT0_, symObjAddr: 0xD430, symBinAddr: 0x10000F020, symSize: 0x40 }
  - { offsetInCU: 0x1F40E, offset: 0x1F40E, size: 0x8, addend: 0x0, symName: __ZNSt3__122__compressed_pair_elemIPiLi0ELb0EEC2B7v160006IRS1_vEEOT_, symObjAddr: 0xD470, symBinAddr: 0x10000F060, symSize: 0x20 }
  - { offsetInCU: 0x1F450, offset: 0x1F450, size: 0x8, addend: 0x0, symName: __ZNSt3__122__compressed_pair_elemINS_22__allocator_destructorINS_9allocatorIiEEEELi1ELb0EEC2B7v160006IS4_vEEOT_, symObjAddr: 0xD490, symBinAddr: 0x10000F080, symSize: 0x30 }
  - { offsetInCU: 0x1F492, offset: 0x1F492, size: 0x8, addend: 0x0, symName: __ZNKSt3__117__compressed_pairIPiNS_22__allocator_destructorINS_9allocatorIiEEEEE5firstB7v160006Ev, symObjAddr: 0xD4C0, symBinAddr: 0x10000F0B0, symSize: 0x20 }
  - { offsetInCU: 0x1F4B8, offset: 0x1F4B8, size: 0x8, addend: 0x0, symName: __ZNSt3__117__compressed_pairIPiNS_22__allocator_destructorINS_9allocatorIiEEEEE5firstB7v160006Ev, symObjAddr: 0xD4E0, symBinAddr: 0x10000F0D0, symSize: 0x20 }
  - { offsetInCU: 0x1F4DE, offset: 0x1F4DE, size: 0x8, addend: 0x0, symName: __ZNSt3__117__compressed_pairIPPiNS_9allocatorIS1_EEE5firstB7v160006Ev, symObjAddr: 0xD500, symBinAddr: 0x10000F0F0, symSize: 0x20 }
  - { offsetInCU: 0x1F504, offset: 0x1F504, size: 0x8, addend: 0x0, symName: __ZNSt3__122__compressed_pair_elemIPPiLi0ELb0EE5__getB7v160006Ev, symObjAddr: 0xD520, symBinAddr: 0x10000F110, symSize: 0x10 }
  - { offsetInCU: 0x1F52A, offset: 0x1F52A, size: 0x8, addend: 0x0, symName: __ZNSt3__117__compressed_pairIPPiRNS_9allocatorIS1_EEE5firstB7v160006Ev, symObjAddr: 0xD530, symBinAddr: 0x10000F120, symSize: 0x20 }
  - { offsetInCU: 0x1F550, offset: 0x1F550, size: 0x8, addend: 0x0, symName: __ZNSt3__110unique_ptrIPiNS_22__allocator_destructorINS_9allocatorIiEEEEED2B7v160006Ev, symObjAddr: 0xD550, symBinAddr: 0x10000F140, symSize: 0x20 }
  - { offsetInCU: 0x1F57A, offset: 0x1F57A, size: 0x8, addend: 0x0, symName: __ZNSt3__110unique_ptrIPiNS_22__allocator_destructorINS_9allocatorIiEEEEE5resetB7v160006ES1_, symObjAddr: 0xD570, symBinAddr: 0x10000F160, symSize: 0x70 }
  - { offsetInCU: 0x1F5BE, offset: 0x1F5BE, size: 0x8, addend: 0x0, symName: __ZNSt3__117__compressed_pairIPiNS_22__allocator_destructorINS_9allocatorIiEEEEE6secondB7v160006Ev, symObjAddr: 0xD5E0, symBinAddr: 0x10000F1D0, symSize: 0x20 }
  - { offsetInCU: 0x1F5E4, offset: 0x1F5E4, size: 0x8, addend: 0x0, symName: __ZNSt3__122__allocator_destructorINS_9allocatorIiEEEclB7v160006EPi, symObjAddr: 0xD600, symBinAddr: 0x10000F1F0, symSize: 0x30 }
  - { offsetInCU: 0x1F618, offset: 0x1F618, size: 0x8, addend: 0x0, symName: __ZNSt3__122__compressed_pair_elemINS_22__allocator_destructorINS_9allocatorIiEEEELi1ELb0EE5__getB7v160006Ev, symObjAddr: 0xD630, symBinAddr: 0x10000F220, symSize: 0x10 }
  - { offsetInCU: 0x1F63E, offset: 0x1F63E, size: 0x8, addend: 0x0, symName: __ZNSt3__114__split_bufferIPiRNS_9allocatorIS1_EEED2Ev, symObjAddr: 0xD640, symBinAddr: 0x10000F230, symSize: 0x70 }
  - { offsetInCU: 0x1F66A, offset: 0x1F66A, size: 0x8, addend: 0x0, symName: __ZNSt3__114__split_bufferIPiRNS_9allocatorIS1_EEE5clearB7v160006Ev, symObjAddr: 0xD6B0, symBinAddr: 0x10000F2A0, symSize: 0x20 }
  - { offsetInCU: 0x1F690, offset: 0x1F690, size: 0x8, addend: 0x0, symName: __ZNKSt3__114__split_bufferIPiRNS_9allocatorIS1_EEE8capacityB7v160006Ev, symObjAddr: 0xD6D0, symBinAddr: 0x10000F2C0, symSize: 0x30 }
  - { offsetInCU: 0x1F6B6, offset: 0x1F6B6, size: 0x8, addend: 0x0, symName: __ZNSt3__114__split_bufferIPiRNS_9allocatorIS1_EEE17__destruct_at_endB7v160006EPS1_, symObjAddr: 0xD700, symBinAddr: 0x10000F2F0, symSize: 0x30 }
  - { offsetInCU: 0x1F6EA, offset: 0x1F6EA, size: 0x8, addend: 0x0, symName: __ZNSt3__114__split_bufferIPiRNS_9allocatorIS1_EEE17__destruct_at_endB7v160006EPS1_NS_17integral_constantIbLb0EEE, symObjAddr: 0xD730, symBinAddr: 0x10000F320, symSize: 0x80 }
  - { offsetInCU: 0x1F72A, offset: 0x1F72A, size: 0x8, addend: 0x0, symName: __ZNKSt3__114__split_bufferIPiRNS_9allocatorIS1_EEE9__end_capB7v160006Ev, symObjAddr: 0xD7B0, symBinAddr: 0x10000F3A0, symSize: 0x20 }
  - { offsetInCU: 0x1F750, offset: 0x1F750, size: 0x8, addend: 0x0, symName: __ZNKSt3__117__compressed_pairIPPiRNS_9allocatorIS1_EEE5firstB7v160006Ev, symObjAddr: 0xD7D0, symBinAddr: 0x10000F3C0, symSize: 0x20 }
  - { offsetInCU: 0x1F776, offset: 0x1F776, size: 0x8, addend: 0x0, symName: __ZNSt3__15dequeIiNS_9allocatorIiEEE26__maybe_remove_front_spareB7v160006Eb, symObjAddr: 0xD7F0, symBinAddr: 0x10000F3E0, symSize: 0xB0 }
  - { offsetInCU: 0x1F7AB, offset: 0x1F7AB, size: 0x8, addend: 0x0, symName: __ZNKSt3__15dequeIiNS_9allocatorIiEEE20__front_spare_blocksB7v160006Ev, symObjAddr: 0xD8A0, symBinAddr: 0x10000F490, symSize: 0x1F }
...
