---
triple:          'x86_64-apple-darwin'
binary-path:     'Binaries/PackePrefix'
relocations:
  - { offsetInCU: 0x5748, offset: 0x5748, size: 0x8, addend: 0x0, symName: __ZNSt3__17advanceB8ne180100IPNS_12basic_stringIcNS_11char_traitsIcEENS_9allocatorIcEEEEllvEEvRT_T0_, symObjAddr: 0x3190, symBinAddr: 0x100006610, symSize: 0x30 }
  - { offsetInCU: 0x59C8, offset: 0x59C8, size: 0x8, addend: 0x0, symName: __ZNSt3__17advanceB8ne180100INS_16reverse_iteratorIPNS_12basic_stringIcNS_11char_traitsIcEENS_9allocatorIcEEEEEEllvEEvRT_T0_, symObjAddr: 0x3550, symBinAddr: 0x1000069D0, symSize: 0x30 }
  - { offsetInCU: 0x5FC4, offset: 0x5FC4, size: 0x8, addend: 0x0, symName: __ZNSt3__124__put_character_sequenceB8ne180100IcNS_11char_traitsIcEEEERNS_13basic_ostreamIT_T0_EES7_PKS4_m, symObjAddr: 0x3E50, symBinAddr: 0x1000072D0, symSize: 0x1F0 }
  - { offsetInCU: 0x7908, offset: 0x7908, size: 0x8, addend: 0x0, symName: __ZNSt3__1rsB8ne180100IcNS_11char_traitsIcEENS_9allocatorIcEEEERNS_13basic_istreamIT_T0_EES9_RNS_12basic_stringIS6_S7_T1_EE, symObjAddr: 0xE0, symBinAddr: 0x100003560, symSize: 0x2F0 }
  - { offsetInCU: 0x79D7, offset: 0x79D7, size: 0x8, addend: 0x0, symName: __ZNSt3__1neB8ne180100IPKNS_12basic_stringIcNS_11char_traitsIcEENS_9allocatorIcEEEEEEbRKNS_11__wrap_iterIT_EESD_, symObjAddr: 0xB50, symBinAddr: 0x100003FD0, symSize: 0x30 }
  - { offsetInCU: 0x7A1A, offset: 0x7A1A, size: 0x8, addend: 0x0, symName: __ZNSt3__13minB8ne180100ImEERKT_S3_S3_, symObjAddr: 0xBA0, symBinAddr: 0x100004020, symSize: 0x30 }
  - { offsetInCU: 0x7A5D, offset: 0x7A5D, size: 0x8, addend: 0x0, symName: '__ZNSt3__16any_ofB8ne180100INS_11__wrap_iterIPKNS_12basic_stringIcNS_11char_traitsIcEENS_9allocatorIcEEEEEEZ15GetCommonPrefixRKNS_6vectorIS7_NS5_IS7_EEEEE3$_0EEbT_SH_T0_', symObjAddr: 0xBF0, symBinAddr: 0x100004070, symSize: 0x90 }
  - { offsetInCU: 0x7AB7, offset: 0x7AB7, size: 0x8, addend: 0x0, symName: __ZNSt3__1neB8ne180100IPNS_12basic_stringIcNS_11char_traitsIcEENS_9allocatorIcEEEEEEbRKNS_11__wrap_iterIT_EESC_, symObjAddr: 0xE80, symBinAddr: 0x100004300, symSize: 0x30 }
  - { offsetInCU: 0x7AFA, offset: 0x7AFA, size: 0x8, addend: 0x0, symName: __ZNSt3__1lsB8ne180100IcNS_11char_traitsIcEENS_9allocatorIcEEEERNS_13basic_ostreamIT_T0_EES9_RKNS_12basic_stringIS6_S7_T1_EE, symObjAddr: 0xF70, symBinAddr: 0x1000043F0, symSize: 0x50 }
  - { offsetInCU: 0x7B52, offset: 0x7B52, size: 0x8, addend: 0x0, symName: __ZNSt3__122__make_exception_guardB8ne180100INS_6vectorINS_12basic_stringIcNS_11char_traitsIcEENS_9allocatorIcEEEENS5_IS7_EEE16__destroy_vectorEEENS_28__exception_guard_exceptionsIT_EESC_, symObjAddr: 0x10C0, symBinAddr: 0x100004540, symSize: 0x40 }
  - { offsetInCU: 0x7B87, offset: 0x7B87, size: 0x8, addend: 0x0, symName: __ZNSt3__119__allocate_at_leastB8ne180100INS_9allocatorINS_12basic_stringIcNS_11char_traitsIcEENS1_IcEEEEEEEEDaRT_m, symObjAddr: 0x1470, symBinAddr: 0x1000048F0, symSize: 0x40 }
  - { offsetInCU: 0x7FA0, offset: 0x7FA0, size: 0x8, addend: 0x0, symName: __ZNSt3__120__throw_length_errorB8ne180100EPKc, symObjAddr: 0x15D0, symBinAddr: 0x100004A50, symSize: 0x70 }
  - { offsetInCU: 0x7FC8, offset: 0x7FC8, size: 0x8, addend: 0x0, symName: __ZNSt3__117allocate_at_leastB8ne180100INS_9allocatorINS_12basic_stringIcNS_11char_traitsIcEENS1_IcEEEEEEEENS_17allocation_resultINS_16allocator_traitsIT_E7pointerEEERSA_m, symObjAddr: 0x16B0, symBinAddr: 0x100004B30, symSize: 0x40 }
  - { offsetInCU: 0x800B, offset: 0x800B, size: 0x8, addend: 0x0, symName: __ZNSt3__117__libcpp_allocateB8ne180100Emm, symObjAddr: 0x17C0, symBinAddr: 0x100004C40, symSize: 0x60 }
  - { offsetInCU: 0x8065, offset: 0x8065, size: 0x8, addend: 0x0, symName: __ZNSt3__124__is_overaligned_for_newB8ne180100Em, symObjAddr: 0x1820, symBinAddr: 0x100004CA0, symSize: 0x20 }
  - { offsetInCU: 0x8093, offset: 0x8093, size: 0x8, addend: 0x0, symName: __ZNSt3__121__libcpp_operator_newB8ne180100IJmSt11align_val_tEEEPvDpT_, symObjAddr: 0x1840, symBinAddr: 0x100004CC0, symSize: 0x30 }
  - { offsetInCU: 0x80E0, offset: 0x80E0, size: 0x8, addend: 0x0, symName: __ZNSt3__121__libcpp_operator_newB8ne180100IJmEEEPvDpT_, symObjAddr: 0x1870, symBinAddr: 0x100004CF0, symSize: 0x20 }
  - { offsetInCU: 0x8119, offset: 0x8119, size: 0x8, addend: 0x0, symName: __ZNSt3__112__to_addressB8ne180100INS_12basic_stringIcNS_11char_traitsIcEENS_9allocatorIcEEEEEEPT_S8_, symObjAddr: 0x1940, symBinAddr: 0x100004DC0, symSize: 0x10 }
  - { offsetInCU: 0x814E, offset: 0x814E, size: 0x8, addend: 0x0, symName: __ZNSt3__114__construct_atB8ne180100INS_12basic_stringIcNS_11char_traitsIcEENS_9allocatorIcEEEEJEPS6_EEPT_S9_DpOT0_, symObjAddr: 0x19B0, symBinAddr: 0x100004E30, symSize: 0x20 }
  - { offsetInCU: 0x818D, offset: 0x818D, size: 0x8, addend: 0x0, symName: __ZNSt3__112construct_atB8ne180100INS_12basic_stringIcNS_11char_traitsIcEENS_9allocatorIcEEEEJEPS6_EEPT_S9_DpOT0_, symObjAddr: 0x19D0, symBinAddr: 0x100004E50, symSize: 0x30 }
  - { offsetInCU: 0x81CC, offset: 0x81CC, size: 0x8, addend: 0x0, symName: __ZNSt3__112__destroy_atB8ne180100INS_12basic_stringIcNS_11char_traitsIcEENS_9allocatorIcEEEELi0EEEvPT_, symObjAddr: 0x1C20, symBinAddr: 0x1000050A0, symSize: 0x20 }
  - { offsetInCU: 0x8203, offset: 0x8203, size: 0x8, addend: 0x0, symName: __ZNSt3__119__libcpp_deallocateB8ne180100EPvmm, symObjAddr: 0x1C90, symBinAddr: 0x100005110, symSize: 0x60 }
  - { offsetInCU: 0x8268, offset: 0x8268, size: 0x8, addend: 0x0, symName: __ZNSt3__127__do_deallocate_handle_sizeB8ne180100IJSt11align_val_tEEEvPvmDpT_, symObjAddr: 0x1CF0, symBinAddr: 0x100005170, symSize: 0x30 }
  - { offsetInCU: 0x82BB, offset: 0x82BB, size: 0x8, addend: 0x0, symName: __ZNSt3__127__do_deallocate_handle_sizeB8ne180100IJEEEvPvmDpT_, symObjAddr: 0x1D20, symBinAddr: 0x1000051A0, symSize: 0x20 }
  - { offsetInCU: 0x82F9, offset: 0x82F9, size: 0x8, addend: 0x0, symName: __ZNSt3__124__libcpp_operator_deleteB8ne180100IJPvSt11align_val_tEEEvDpT_, symObjAddr: 0x1D40, symBinAddr: 0x1000051C0, symSize: 0x30 }
  - { offsetInCU: 0x8342, offset: 0x8342, size: 0x8, addend: 0x0, symName: __ZNSt3__124__libcpp_operator_deleteB8ne180100IJPvEEEvDpT_, symObjAddr: 0x1D70, symBinAddr: 0x1000051F0, symSize: 0x20 }
  - { offsetInCU: 0x8377, offset: 0x8377, size: 0x8, addend: 0x0, symName: __ZNSt3__112__to_addressB8ne180100IKcEEPT_S3_, symObjAddr: 0x2090, symBinAddr: 0x100005510, symSize: 0x10 }
  - { offsetInCU: 0x83DF, offset: 0x83DF, size: 0x8, addend: 0x0, symName: __ZNSt3__1eqB8ne180100IPKNS_12basic_stringIcNS_11char_traitsIcEENS_9allocatorIcEEEEEEbRKNS_11__wrap_iterIT_EESD_, symObjAddr: 0x2210, symBinAddr: 0x100005690, symSize: 0x40 }
  - { offsetInCU: 0x8422, offset: 0x8422, size: 0x8, addend: 0x0, symName: __ZNSt3__13minB8ne180100ImNS_6__lessIvvEEEERKT_S5_S5_T0_, symObjAddr: 0x2270, symBinAddr: 0x1000056F0, symSize: 0x50 }
  - { offsetInCU: 0x84C1, offset: 0x84C1, size: 0x8, addend: 0x0, symName: __ZNSt3__1eqB8ne180100IPNS_12basic_stringIcNS_11char_traitsIcEENS_9allocatorIcEEEEEEbRKNS_11__wrap_iterIT_EESC_, symObjAddr: 0x2400, symBinAddr: 0x100005880, symSize: 0x40 }
  - { offsetInCU: 0x8504, offset: 0x8504, size: 0x8, addend: 0x0, symName: __ZNSt3__114__construct_atB8ne180100INS_12basic_stringIcNS_11char_traitsIcEENS_9allocatorIcEEEEJS6_EPS6_EEPT_S9_DpOT0_, symObjAddr: 0x2600, symBinAddr: 0x100005A80, symSize: 0x30 }
  - { offsetInCU: 0x8557, offset: 0x8557, size: 0x8, addend: 0x0, symName: __ZNSt3__112construct_atB8ne180100INS_12basic_stringIcNS_11char_traitsIcEENS_9allocatorIcEEEEJS6_EPS6_EEPT_S9_DpOT0_, symObjAddr: 0x2630, symBinAddr: 0x100005AB0, symSize: 0x30 }
  - { offsetInCU: 0x85AA, offset: 0x85AA, size: 0x8, addend: 0x0, symName: __ZNSt3__13maxB8ne180100ImEERKT_S3_S3_, symObjAddr: 0x2A30, symBinAddr: 0x100005EB0, symSize: 0x30 }
  - { offsetInCU: 0x85ED, offset: 0x85ED, size: 0x8, addend: 0x0, symName: __ZNSt3__13maxB8ne180100ImNS_6__lessIvvEEEERKT_S5_S5_T0_, symObjAddr: 0x2A60, symBinAddr: 0x100005EE0, symSize: 0x50 }
  - { offsetInCU: 0x8647, offset: 0x8647, size: 0x8, addend: 0x0, symName: __ZNSt3__142__uninitialized_allocator_move_if_noexceptB8ne180100INS_9allocatorINS_12basic_stringIcNS_11char_traitsIcEENS1_IcEEEEEENS_16reverse_iteratorIPS6_EESA_SA_EET2_RT_T0_T1_SB_, symObjAddr: 0x2CA0, symBinAddr: 0x100006120, symSize: 0x180 }
  - { offsetInCU: 0x86E6, offset: 0x86E6, size: 0x8, addend: 0x0, symName: __ZNSt3__14swapB8ne180100IPNS_12basic_stringIcNS_11char_traitsIcEENS_9allocatorIcEEEEEENS_9enable_ifIXaasr21is_move_constructibleIT_EE5valuesr18is_move_assignableIS9_EE5valueEvE4typeERS9_SC_, symObjAddr: 0x2E70, symBinAddr: 0x1000062F0, symSize: 0x40 }
  - { offsetInCU: 0x8737, offset: 0x8737, size: 0x8, addend: 0x0, symName: __ZNSt3__122__make_exception_guardB8ne180100INS_29_AllocatorDestroyRangeReverseINS_9allocatorINS_12basic_stringIcNS_11char_traitsIcEENS2_IcEEEEEENS_16reverse_iteratorIPS7_EEEEEENS_28__exception_guard_exceptionsIT_EESE_, symObjAddr: 0x2EB0, symBinAddr: 0x100006330, symSize: 0x60 }
  - { offsetInCU: 0x876C, offset: 0x876C, size: 0x8, addend: 0x0, symName: __ZNSt3__1neB8ne180100IPNS_12basic_stringIcNS_11char_traitsIcEENS_9allocatorIcEEEES7_EEbRKNS_16reverse_iteratorIT_EERKNS8_IT0_EE, symObjAddr: 0x2F50, symBinAddr: 0x1000063D0, symSize: 0x40 }
  - { offsetInCU: 0x87B8, offset: 0x87B8, size: 0x8, addend: 0x0, symName: __ZNSt3__112__to_addressB8ne180100INS_16reverse_iteratorIPNS_12basic_stringIcNS_11char_traitsIcEENS_9allocatorIcEEEEEEvEEu7__decayIDTclsr19__to_address_helperIT_EE6__callclsr3stdE7declvalIRKSA_EEEEESC_, symObjAddr: 0x2F90, symBinAddr: 0x100006410, symSize: 0x20 }
  - { offsetInCU: 0x8817, offset: 0x8817, size: 0x8, addend: 0x0, symName: __ZNSt3__14prevB8ne180100IPNS_12basic_stringIcNS_11char_traitsIcEENS_9allocatorIcEEEELi0EEET_S8_NS_15iterator_traitsIS8_E15difference_typeE, symObjAddr: 0x3160, symBinAddr: 0x1000065E0, symSize: 0x30 }
  - { offsetInCU: 0x8860, offset: 0x8860, size: 0x8, addend: 0x0, symName: __ZNSt3__121__convert_to_integralB8ne180100El, symObjAddr: 0x31C0, symBinAddr: 0x100006640, symSize: 0x10 }
  - { offsetInCU: 0x888C, offset: 0x888C, size: 0x8, addend: 0x0, symName: __ZNSt3__19__advanceB8ne180100IPNS_12basic_stringIcNS_11char_traitsIcEENS_9allocatorIcEEEEEEvRT_NS_15iterator_traitsIS8_E15difference_typeENS_26random_access_iterator_tagE, symObjAddr: 0x31D0, symBinAddr: 0x100006650, symSize: 0x20 }
  - { offsetInCU: 0x88D5, offset: 0x88D5, size: 0x8, addend: 0x0, symName: __ZNSt3__119__allocator_destroyB8ne180100INS_9allocatorINS_12basic_stringIcNS_11char_traitsIcEENS1_IcEEEEEENS_16reverse_iteratorINS8_IPS6_EEEESB_EEvRT_T0_T1_, symObjAddr: 0x3320, symBinAddr: 0x1000067A0, symSize: 0x70 }
  - { offsetInCU: 0x8938, offset: 0x8938, size: 0x8, addend: 0x0, symName: __ZNSt3__1neB8ne180100INS_16reverse_iteratorIPNS_12basic_stringIcNS_11char_traitsIcEENS_9allocatorIcEEEEEES9_EEbRKNS1_IT_EERKNS1_IT0_EE, symObjAddr: 0x33C0, symBinAddr: 0x100006840, symSize: 0x50 }
  - { offsetInCU: 0x8984, offset: 0x8984, size: 0x8, addend: 0x0, symName: __ZNSt3__112__to_addressB8ne180100INS_16reverse_iteratorINS1_IPNS_12basic_stringIcNS_11char_traitsIcEENS_9allocatorIcEEEEEEEEvEEu7__decayIDTclsr19__to_address_helperIT_EE6__callclsr3stdE7declvalIRKSB_EEEEESD_, symObjAddr: 0x3410, symBinAddr: 0x100006890, symSize: 0x20 }
  - { offsetInCU: 0x89E3, offset: 0x89E3, size: 0x8, addend: 0x0, symName: __ZNSt3__14prevB8ne180100INS_16reverse_iteratorIPNS_12basic_stringIcNS_11char_traitsIcEENS_9allocatorIcEEEEEELi0EEET_SA_NS_15iterator_traitsISA_E15difference_typeE, symObjAddr: 0x3510, symBinAddr: 0x100006990, symSize: 0x40 }
  - { offsetInCU: 0x8A2C, offset: 0x8A2C, size: 0x8, addend: 0x0, symName: __ZNSt3__19__advanceB8ne180100INS_16reverse_iteratorIPNS_12basic_stringIcNS_11char_traitsIcEENS_9allocatorIcEEEEEEEEvRT_NS_15iterator_traitsISA_E15difference_typeENS_26random_access_iterator_tagE, symObjAddr: 0x3580, symBinAddr: 0x100006A00, symSize: 0x30 }
  - { offsetInCU: 0x901E, offset: 0x901E, size: 0x8, addend: 0x0, symName: __ZNSt3__19use_facetB8ne180100INS_5ctypeIcEEEERKT_RKNS_6localeE, symObjAddr: 0x39B0, symBinAddr: 0x100006E30, symSize: 0x30 }
  - { offsetInCU: 0x93FC, offset: 0x93FC, size: 0x8, addend: 0x0, symName: __ZNSt3__116__pad_and_outputB8ne180100IcNS_11char_traitsIcEEEENS_19ostreambuf_iteratorIT_T0_EES6_PKS4_S8_S8_RNS_8ios_baseES4_, symObjAddr: 0x4060, symBinAddr: 0x1000074E0, symSize: 0x220 }
  - { offsetInCU: 0x94CC, offset: 0x94CC, size: 0x8, addend: 0x0, symName: __ZNSt3__112__to_addressB8ne180100IcEEPT_S2_, symObjAddr: 0x44B0, symBinAddr: 0x100007930, symSize: 0x10 }
  - { offsetInCU: 0x9809, offset: 0x9809, size: 0x8, addend: 0x0, symName: __ZSt28__throw_bad_array_new_lengthB8ne180100v, symObjAddr: 0x1780, symBinAddr: 0x100004C00, symSize: 0x40 }
  - { offsetInCU: 0x9D41, offset: 0x9D41, size: 0x8, addend: 0x0, symName: __ZNSt3__16vectorINS_12basic_stringIcNS_11char_traitsIcEENS_9allocatorIcEEEENS4_IS6_EEE26__swap_out_circular_bufferERNS_14__split_bufferIS6_RS7_EE, symObjAddr: 0x28F0, symBinAddr: 0x100005D70, symSize: 0x120 }
  - { offsetInCU: 0xC265, offset: 0xC265, size: 0x8, addend: 0x0, symName: __Z10GetStringsi, symObjAddr: 0x0, symBinAddr: 0x100003480, symSize: 0xB0 }
  - { offsetInCU: 0xC2AF, offset: 0xC2AF, size: 0x8, addend: 0x0, symName: __ZNSt3__16vectorINS_12basic_stringIcNS_11char_traitsIcEENS_9allocatorIcEEEENS4_IS6_EEEC1Em, symObjAddr: 0xB0, symBinAddr: 0x100003530, symSize: 0x30 }
  - { offsetInCU: 0xC2EA, offset: 0xC2EA, size: 0x8, addend: 0x0, symName: __ZNSt3__16vectorINS_12basic_stringIcNS_11char_traitsIcEENS_9allocatorIcEEEENS4_IS6_EEEixB8ne180100Em, symObjAddr: 0x3D0, symBinAddr: 0x100003850, symSize: 0x20 }
  - { offsetInCU: 0xC321, offset: 0xC321, size: 0x8, addend: 0x0, symName: __ZNSt3__16vectorINS_12basic_stringIcNS_11char_traitsIcEENS_9allocatorIcEEEENS4_IS6_EEED1B8ne180100Ev, symObjAddr: 0x3F0, symBinAddr: 0x100003870, symSize: 0x20 }
  - { offsetInCU: 0xC34A, offset: 0xC34A, size: 0x8, addend: 0x0, symName: __Z21MultiplyStringByCountiRKNSt3__112basic_stringIcNS_11char_traitsIcEENS_9allocatorIcEEEE, symObjAddr: 0x410, symBinAddr: 0x100003890, symSize: 0xC0 }
  - { offsetInCU: 0xC394, offset: 0xC394, size: 0x8, addend: 0x0, symName: __ZNSt3__112basic_stringIcNS_11char_traitsIcEENS_9allocatorIcEEEC1B8ne180100Ev, symObjAddr: 0x4D0, symBinAddr: 0x100003950, symSize: 0x20 }
  - { offsetInCU: 0xC3BE, offset: 0xC3BE, size: 0x8, addend: 0x0, symName: __ZNKSt3__112basic_stringIcNS_11char_traitsIcEENS_9allocatorIcEEE4sizeB8ne180100Ev, symObjAddr: 0x4F0, symBinAddr: 0x100003970, symSize: 0x50 }
  - { offsetInCU: 0xC3E4, offset: 0xC3E4, size: 0x8, addend: 0x0, symName: __ZNSt3__112basic_stringIcNS_11char_traitsIcEENS_9allocatorIcEEEpLB8ne180100ERKS5_, symObjAddr: 0x540, symBinAddr: 0x1000039C0, symSize: 0x30 }
  - { offsetInCU: 0xC418, offset: 0xC418, size: 0x8, addend: 0x0, symName: __Z18FindClosingBracketRKNSt3__112basic_stringIcNS_11char_traitsIcEENS_9allocatorIcEEEEm, symObjAddr: 0x570, symBinAddr: 0x1000039F0, symSize: 0xA0 }
  - { offsetInCU: 0xC461, offset: 0xC461, size: 0x8, addend: 0x0, symName: __ZNKSt3__112basic_stringIcNS_11char_traitsIcEENS_9allocatorIcEEEixB8ne180100Em, symObjAddr: 0x610, symBinAddr: 0x100003A90, symSize: 0x40 }
  - { offsetInCU: 0xC495, offset: 0xC495, size: 0x8, addend: 0x0, symName: __Z6UnPackRKNSt3__112basic_stringIcNS_11char_traitsIcEENS_9allocatorIcEEEE, symObjAddr: 0x650, symBinAddr: 0x100003AD0, symSize: 0x260 }
  - { offsetInCU: 0xC509, offset: 0xC509, size: 0x8, addend: 0x0, symName: __ZNSt3__112basic_stringIcNS_11char_traitsIcEENS_9allocatorIcEEEpLB8ne180100Ec, symObjAddr: 0x8B0, symBinAddr: 0x100003D30, symSize: 0x30 }
  - { offsetInCU: 0xC53E, offset: 0xC53E, size: 0x8, addend: 0x0, symName: __ZNKRSt3__112basic_stringIcNS_11char_traitsIcEENS_9allocatorIcEEE6substrB8ne180100Emm, symObjAddr: 0x8E0, symBinAddr: 0x100003D60, symSize: 0x70 }
  - { offsetInCU: 0xC581, offset: 0xC581, size: 0x8, addend: 0x0, symName: __Z15GetCommonPrefixRKNSt3__16vectorINS_12basic_stringIcNS_11char_traitsIcEENS_9allocatorIcEEEENS4_IS6_EEEE, symObjAddr: 0x950, symBinAddr: 0x100003DD0, symSize: 0x180 }
  - { offsetInCU: 0xC679, offset: 0xC679, size: 0x8, addend: 0x0, symName: __ZNKSt3__16vectorINS_12basic_stringIcNS_11char_traitsIcEENS_9allocatorIcEEEENS4_IS6_EEEixB8ne180100Em, symObjAddr: 0xAD0, symBinAddr: 0x100003F50, symSize: 0x20 }
  - { offsetInCU: 0xC6B0, offset: 0xC6B0, size: 0x8, addend: 0x0, symName: __ZNKSt3__16vectorINS_12basic_stringIcNS_11char_traitsIcEENS_9allocatorIcEEEENS4_IS6_EEE5beginB8ne180100Ev, symObjAddr: 0xAF0, symBinAddr: 0x100003F70, symSize: 0x30 }
  - { offsetInCU: 0xC6D8, offset: 0xC6D8, size: 0x8, addend: 0x0, symName: __ZNKSt3__16vectorINS_12basic_stringIcNS_11char_traitsIcEENS_9allocatorIcEEEENS4_IS6_EEE3endB8ne180100Ev, symObjAddr: 0xB20, symBinAddr: 0x100003FA0, symSize: 0x30 }
  - { offsetInCU: 0xC700, offset: 0xC700, size: 0x8, addend: 0x0, symName: __ZNKSt3__111__wrap_iterIPKNS_12basic_stringIcNS_11char_traitsIcEENS_9allocatorIcEEEEEdeB8ne180100Ev, symObjAddr: 0xB80, symBinAddr: 0x100004000, symSize: 0x20 }
  - { offsetInCU: 0xC726, offset: 0xC726, size: 0x8, addend: 0x0, symName: __ZNSt3__111__wrap_iterIPKNS_12basic_stringIcNS_11char_traitsIcEENS_9allocatorIcEEEEEppB8ne180100Ev, symObjAddr: 0xBD0, symBinAddr: 0x100004050, symSize: 0x20 }
  - { offsetInCU: 0xC74C, offset: 0xC74C, size: 0x8, addend: 0x0, symName: _main, symObjAddr: 0xC80, symBinAddr: 0x100004100, symSize: 0x180 }
  - { offsetInCU: 0xC7DD, offset: 0xC7DD, size: 0x8, addend: 0x0, symName: __ZNSt3__16vectorINS_12basic_stringIcNS_11char_traitsIcEENS_9allocatorIcEEEENS4_IS6_EEEC1B8ne180100Ev, symObjAddr: 0xE00, symBinAddr: 0x100004280, symSize: 0x20 }
  - { offsetInCU: 0xC807, offset: 0xC807, size: 0x8, addend: 0x0, symName: __ZNSt3__16vectorINS_12basic_stringIcNS_11char_traitsIcEENS_9allocatorIcEEEENS4_IS6_EEE5beginB8ne180100Ev, symObjAddr: 0xE20, symBinAddr: 0x1000042A0, symSize: 0x30 }
  - { offsetInCU: 0xC82F, offset: 0xC82F, size: 0x8, addend: 0x0, symName: __ZNSt3__16vectorINS_12basic_stringIcNS_11char_traitsIcEENS_9allocatorIcEEEENS4_IS6_EEE3endB8ne180100Ev, symObjAddr: 0xE50, symBinAddr: 0x1000042D0, symSize: 0x30 }
  - { offsetInCU: 0xC857, offset: 0xC857, size: 0x8, addend: 0x0, symName: __ZNKSt3__111__wrap_iterIPNS_12basic_stringIcNS_11char_traitsIcEENS_9allocatorIcEEEEEdeB8ne180100Ev, symObjAddr: 0xEB0, symBinAddr: 0x100004330, symSize: 0x20 }
  - { offsetInCU: 0xC87D, offset: 0xC87D, size: 0x8, addend: 0x0, symName: __ZNSt3__16vectorINS_12basic_stringIcNS_11char_traitsIcEENS_9allocatorIcEEEENS4_IS6_EEE9push_backB8ne180100EOS6_, symObjAddr: 0xED0, symBinAddr: 0x100004350, symSize: 0x80 }
  - { offsetInCU: 0xC8C3, offset: 0xC8C3, size: 0x8, addend: 0x0, symName: __ZNSt3__111__wrap_iterIPNS_12basic_stringIcNS_11char_traitsIcEENS_9allocatorIcEEEEEppB8ne180100Ev, symObjAddr: 0xF50, symBinAddr: 0x1000043D0, symSize: 0x20 }
  - { offsetInCU: 0xC8E9, offset: 0xC8E9, size: 0x8, addend: 0x0, symName: __ZNSt3__16vectorINS_12basic_stringIcNS_11char_traitsIcEENS_9allocatorIcEEEENS4_IS6_EEEC2Em, symObjAddr: 0xFC0, symBinAddr: 0x100004440, symSize: 0xD0 }
  - { offsetInCU: 0xC943, offset: 0xC943, size: 0x8, addend: 0x0, symName: __ZNSt3__117__compressed_pairIPNS_12basic_stringIcNS_11char_traitsIcEENS_9allocatorIcEEEENS4_IS6_EEEC1B8ne180100IDnNS_18__default_init_tagEEEOT_OT0_, symObjAddr: 0x1090, symBinAddr: 0x100004510, symSize: 0x30 }
  - { offsetInCU: 0xC99B, offset: 0xC99B, size: 0x8, addend: 0x0, symName: __ZNSt3__16vectorINS_12basic_stringIcNS_11char_traitsIcEENS_9allocatorIcEEEENS4_IS6_EEE16__destroy_vectorC1B8ne180100ERS8_, symObjAddr: 0x1100, symBinAddr: 0x100004580, symSize: 0x30 }
  - { offsetInCU: 0xC9D4, offset: 0xC9D4, size: 0x8, addend: 0x0, symName: __ZNSt3__16vectorINS_12basic_stringIcNS_11char_traitsIcEENS_9allocatorIcEEEENS4_IS6_EEE11__vallocateB8ne180100Em, symObjAddr: 0x1130, symBinAddr: 0x1000045B0, symSize: 0xA0 }
  - { offsetInCU: 0xCA18, offset: 0xCA18, size: 0x8, addend: 0x0, symName: __ZNSt3__16vectorINS_12basic_stringIcNS_11char_traitsIcEENS_9allocatorIcEEEENS4_IS6_EEE18__construct_at_endEm, symObjAddr: 0x11D0, symBinAddr: 0x100004650, symSize: 0xC0 }
  - { offsetInCU: 0xCA8A, offset: 0xCA8A, size: 0x8, addend: 0x0, symName: __ZNSt3__128__exception_guard_exceptionsINS_6vectorINS_12basic_stringIcNS_11char_traitsIcEENS_9allocatorIcEEEENS5_IS7_EEE16__destroy_vectorEE10__completeB8ne180100Ev, symObjAddr: 0x1290, symBinAddr: 0x100004710, symSize: 0x20 }
  - { offsetInCU: 0xCAB0, offset: 0xCAB0, size: 0x8, addend: 0x0, symName: __ZNSt3__128__exception_guard_exceptionsINS_6vectorINS_12basic_stringIcNS_11char_traitsIcEENS_9allocatorIcEEEENS5_IS7_EEE16__destroy_vectorEED1B8ne180100Ev, symObjAddr: 0x12B0, symBinAddr: 0x100004730, symSize: 0x20 }
  - { offsetInCU: 0xCADA, offset: 0xCADA, size: 0x8, addend: 0x0, symName: __ZNSt3__117__compressed_pairIPNS_12basic_stringIcNS_11char_traitsIcEENS_9allocatorIcEEEENS4_IS6_EEEC2B8ne180100IDnNS_18__default_init_tagEEEOT_OT0_, symObjAddr: 0x12D0, symBinAddr: 0x100004750, symSize: 0x40 }
  - { offsetInCU: 0xCB32, offset: 0xCB32, size: 0x8, addend: 0x0, symName: __ZNSt3__122__compressed_pair_elemIPNS_12basic_stringIcNS_11char_traitsIcEENS_9allocatorIcEEEELi0ELb0EEC2B8ne180100IDnvEEOT_, symObjAddr: 0x1310, symBinAddr: 0x100004790, symSize: 0x20 }
  - { offsetInCU: 0xCB74, offset: 0xCB74, size: 0x8, addend: 0x0, symName: __ZNSt3__122__compressed_pair_elemINS_9allocatorINS_12basic_stringIcNS_11char_traitsIcEENS1_IcEEEEEELi1ELb1EEC2B8ne180100ENS_18__default_init_tagE, symObjAddr: 0x1330, symBinAddr: 0x1000047B0, symSize: 0x20 }
  - { offsetInCU: 0xCBA8, offset: 0xCBA8, size: 0x8, addend: 0x0, symName: __ZNSt3__19allocatorINS_12basic_stringIcNS_11char_traitsIcEENS0_IcEEEEEC2B8ne180100Ev, symObjAddr: 0x1350, symBinAddr: 0x1000047D0, symSize: 0x20 }
  - { offsetInCU: 0xCBD2, offset: 0xCBD2, size: 0x8, addend: 0x0, symName: __ZNSt3__116__non_trivial_ifILb1ENS_9allocatorINS_12basic_stringIcNS_11char_traitsIcEENS1_IcEEEEEEEC2B8ne180100Ev, symObjAddr: 0x1370, symBinAddr: 0x1000047F0, symSize: 0x10 }
  - { offsetInCU: 0xCBFC, offset: 0xCBFC, size: 0x8, addend: 0x0, symName: __ZNSt3__128__exception_guard_exceptionsINS_6vectorINS_12basic_stringIcNS_11char_traitsIcEENS_9allocatorIcEEEENS5_IS7_EEE16__destroy_vectorEEC1B8ne180100ESA_, symObjAddr: 0x1380, symBinAddr: 0x100004800, symSize: 0x30 }
  - { offsetInCU: 0xCC34, offset: 0xCC34, size: 0x8, addend: 0x0, symName: __ZNSt3__128__exception_guard_exceptionsINS_6vectorINS_12basic_stringIcNS_11char_traitsIcEENS_9allocatorIcEEEENS5_IS7_EEE16__destroy_vectorEEC2B8ne180100ESA_, symObjAddr: 0x13B0, symBinAddr: 0x100004830, symSize: 0x20 }
  - { offsetInCU: 0xCC6C, offset: 0xCC6C, size: 0x8, addend: 0x0, symName: __ZNSt3__16vectorINS_12basic_stringIcNS_11char_traitsIcEENS_9allocatorIcEEEENS4_IS6_EEE16__destroy_vectorC2B8ne180100ERS8_, symObjAddr: 0x13D0, symBinAddr: 0x100004850, symSize: 0x20 }
  - { offsetInCU: 0xCCA5, offset: 0xCCA5, size: 0x8, addend: 0x0, symName: __ZNKSt3__16vectorINS_12basic_stringIcNS_11char_traitsIcEENS_9allocatorIcEEEENS4_IS6_EEE8max_sizeEv, symObjAddr: 0x13F0, symBinAddr: 0x100004870, symSize: 0x60 }
  - { offsetInCU: 0xCCCD, offset: 0xCCCD, size: 0x8, addend: 0x0, symName: __ZNKSt3__16vectorINS_12basic_stringIcNS_11char_traitsIcEENS_9allocatorIcEEEENS4_IS6_EEE20__throw_length_errorB8ne180100Ev, symObjAddr: 0x1450, symBinAddr: 0x1000048D0, symSize: 0x20 }
  - { offsetInCU: 0xCCF3, offset: 0xCCF3, size: 0x8, addend: 0x0, symName: __ZNSt3__16vectorINS_12basic_stringIcNS_11char_traitsIcEENS_9allocatorIcEEEENS4_IS6_EEE7__allocB8ne180100Ev, symObjAddr: 0x14B0, symBinAddr: 0x100004930, symSize: 0x20 }
  - { offsetInCU: 0xCD19, offset: 0xCD19, size: 0x8, addend: 0x0, symName: __ZNSt3__16vectorINS_12basic_stringIcNS_11char_traitsIcEENS_9allocatorIcEEEENS4_IS6_EEE9__end_capB8ne180100Ev, symObjAddr: 0x14D0, symBinAddr: 0x100004950, symSize: 0x20 }
  - { offsetInCU: 0xCD3F, offset: 0xCD3F, size: 0x8, addend: 0x0, symName: __ZNKSt3__16vectorINS_12basic_stringIcNS_11char_traitsIcEENS_9allocatorIcEEEENS4_IS6_EEE14__annotate_newB8ne180100Em, symObjAddr: 0x14F0, symBinAddr: 0x100004970, symSize: 0x10 }
  - { offsetInCU: 0xCD7E, offset: 0xCD7E, size: 0x8, addend: 0x0, symName: __ZNSt3__116allocator_traitsINS_9allocatorINS_12basic_stringIcNS_11char_traitsIcEENS1_IcEEEEEEE8max_sizeB8ne180100IS7_vvEEmRKS7_, symObjAddr: 0x1500, symBinAddr: 0x100004980, symSize: 0x30 }
  - { offsetInCU: 0xCDAA, offset: 0xCDAA, size: 0x8, addend: 0x0, symName: __ZNKSt3__16vectorINS_12basic_stringIcNS_11char_traitsIcEENS_9allocatorIcEEEENS4_IS6_EEE7__allocB8ne180100Ev, symObjAddr: 0x1530, symBinAddr: 0x1000049B0, symSize: 0x20 }
  - { offsetInCU: 0xCDD0, offset: 0xCDD0, size: 0x8, addend: 0x0, symName: __ZNSt3__114numeric_limitsIlE3maxB8ne180100Ev, symObjAddr: 0x1550, symBinAddr: 0x1000049D0, symSize: 0x10 }
  - { offsetInCU: 0xCDE4, offset: 0xCDE4, size: 0x8, addend: 0x0, symName: __ZNSt3__114numeric_limitsImE3maxB8ne180100Ev, symObjAddr: 0x1570, symBinAddr: 0x1000049F0, symSize: 0x10 }
  - { offsetInCU: 0xCDF8, offset: 0xCDF8, size: 0x8, addend: 0x0, symName: __ZNSt3__123__libcpp_numeric_limitsImLb1EE3maxB8ne180100Ev, symObjAddr: 0x1580, symBinAddr: 0x100004A00, symSize: 0x10 }
  - { offsetInCU: 0xCE0C, offset: 0xCE0C, size: 0x8, addend: 0x0, symName: __ZNKSt3__117__compressed_pairIPNS_12basic_stringIcNS_11char_traitsIcEENS_9allocatorIcEEEENS4_IS6_EEE6secondB8ne180100Ev, symObjAddr: 0x1590, symBinAddr: 0x100004A10, symSize: 0x20 }
  - { offsetInCU: 0xCE32, offset: 0xCE32, size: 0x8, addend: 0x0, symName: __ZNKSt3__122__compressed_pair_elemINS_9allocatorINS_12basic_stringIcNS_11char_traitsIcEENS1_IcEEEEEELi1ELb1EE5__getB8ne180100Ev, symObjAddr: 0x15B0, symBinAddr: 0x100004A30, symSize: 0x10 }
  - { offsetInCU: 0xCE58, offset: 0xCE58, size: 0x8, addend: 0x0, symName: __ZNSt3__123__libcpp_numeric_limitsIlLb1EE3maxB8ne180100Ev, symObjAddr: 0x15C0, symBinAddr: 0x100004A40, symSize: 0x10 }
  - { offsetInCU: 0xCE6C, offset: 0xCE6C, size: 0x8, addend: 0x0, symName: __ZNSt12length_errorC1B8ne180100EPKc, symObjAddr: 0x1640, symBinAddr: 0x100004AC0, symSize: 0x30 }
  - { offsetInCU: 0xCEA4, offset: 0xCEA4, size: 0x8, addend: 0x0, symName: __ZNSt12length_errorC2B8ne180100EPKc, symObjAddr: 0x1670, symBinAddr: 0x100004AF0, symSize: 0x40 }
  - { offsetInCU: 0xCEDC, offset: 0xCEDC, size: 0x8, addend: 0x0, symName: __ZNSt3__19allocatorINS_12basic_stringIcNS_11char_traitsIcEENS0_IcEEEEE17allocate_at_leastB8ne180100Em, symObjAddr: 0x16F0, symBinAddr: 0x100004B70, symSize: 0x40 }
  - { offsetInCU: 0xCF10, offset: 0xCF10, size: 0x8, addend: 0x0, symName: __ZNSt3__19allocatorINS_12basic_stringIcNS_11char_traitsIcEENS0_IcEEEEE8allocateB8ne180100Em, symObjAddr: 0x1730, symBinAddr: 0x100004BB0, symSize: 0x50 }
  - { offsetInCU: 0xCF44, offset: 0xCF44, size: 0x8, addend: 0x0, symName: __ZNSt3__117__compressed_pairIPNS_12basic_stringIcNS_11char_traitsIcEENS_9allocatorIcEEEENS4_IS6_EEE6secondB8ne180100Ev, symObjAddr: 0x1890, symBinAddr: 0x100004D10, symSize: 0x20 }
  - { offsetInCU: 0xCF6A, offset: 0xCF6A, size: 0x8, addend: 0x0, symName: __ZNSt3__122__compressed_pair_elemINS_9allocatorINS_12basic_stringIcNS_11char_traitsIcEENS1_IcEEEEEELi1ELb1EE5__getB8ne180100Ev, symObjAddr: 0x18B0, symBinAddr: 0x100004D30, symSize: 0x10 }
  - { offsetInCU: 0xCF90, offset: 0xCF90, size: 0x8, addend: 0x0, symName: __ZNSt3__117__compressed_pairIPNS_12basic_stringIcNS_11char_traitsIcEENS_9allocatorIcEEEENS4_IS6_EEE5firstB8ne180100Ev, symObjAddr: 0x18C0, symBinAddr: 0x100004D40, symSize: 0x20 }
  - { offsetInCU: 0xCFB6, offset: 0xCFB6, size: 0x8, addend: 0x0, symName: __ZNSt3__122__compressed_pair_elemIPNS_12basic_stringIcNS_11char_traitsIcEENS_9allocatorIcEEEELi0ELb0EE5__getB8ne180100Ev, symObjAddr: 0x18E0, symBinAddr: 0x100004D60, symSize: 0x10 }
  - { offsetInCU: 0xCFF5, offset: 0xCFF5, size: 0x8, addend: 0x0, symName: __ZNSt3__16vectorINS_12basic_stringIcNS_11char_traitsIcEENS_9allocatorIcEEEENS4_IS6_EEE21_ConstructTransactionC1B8ne180100ERS8_m, symObjAddr: 0x18F0, symBinAddr: 0x100004D70, symSize: 0x30 }
  - { offsetInCU: 0xD03D, offset: 0xD03D, size: 0x8, addend: 0x0, symName: __ZNSt3__116allocator_traitsINS_9allocatorINS_12basic_stringIcNS_11char_traitsIcEENS1_IcEEEEEEE9constructB8ne180100IS6_JEvvEEvRS7_PT_DpOT0_, symObjAddr: 0x1920, symBinAddr: 0x100004DA0, symSize: 0x20 }
  - { offsetInCU: 0xD07D, offset: 0xD07D, size: 0x8, addend: 0x0, symName: __ZNSt3__16vectorINS_12basic_stringIcNS_11char_traitsIcEENS_9allocatorIcEEEENS4_IS6_EEE21_ConstructTransactionD1B8ne180100Ev, symObjAddr: 0x1950, symBinAddr: 0x100004DD0, symSize: 0x20 }
  - { offsetInCU: 0xD0A7, offset: 0xD0A7, size: 0x8, addend: 0x0, symName: __ZNSt3__16vectorINS_12basic_stringIcNS_11char_traitsIcEENS_9allocatorIcEEEENS4_IS6_EEE21_ConstructTransactionC2B8ne180100ERS8_m, symObjAddr: 0x1970, symBinAddr: 0x100004DF0, symSize: 0x40 }
  - { offsetInCU: 0xD0EF, offset: 0xD0EF, size: 0x8, addend: 0x0, symName: __ZNSt3__16vectorINS_12basic_stringIcNS_11char_traitsIcEENS_9allocatorIcEEEENS4_IS6_EEE21_ConstructTransactionD2B8ne180100Ev, symObjAddr: 0x1A00, symBinAddr: 0x100004E80, symSize: 0x20 }
  - { offsetInCU: 0xD119, offset: 0xD119, size: 0x8, addend: 0x0, symName: __ZNSt3__128__exception_guard_exceptionsINS_6vectorINS_12basic_stringIcNS_11char_traitsIcEENS_9allocatorIcEEEENS5_IS7_EEE16__destroy_vectorEED2B8ne180100Ev, symObjAddr: 0x1A20, symBinAddr: 0x100004EA0, symSize: 0x40 }
  - { offsetInCU: 0xD143, offset: 0xD143, size: 0x8, addend: 0x0, symName: __ZNSt3__16vectorINS_12basic_stringIcNS_11char_traitsIcEENS_9allocatorIcEEEENS4_IS6_EEE16__destroy_vectorclB8ne180100Ev, symObjAddr: 0x1A60, symBinAddr: 0x100004EE0, symSize: 0x80 }
  - { offsetInCU: 0xD169, offset: 0xD169, size: 0x8, addend: 0x0, symName: __ZNSt3__16vectorINS_12basic_stringIcNS_11char_traitsIcEENS_9allocatorIcEEEENS4_IS6_EEE7__clearB8ne180100Ev, symObjAddr: 0x1AE0, symBinAddr: 0x100004F60, symSize: 0x20 }
  - { offsetInCU: 0xD18F, offset: 0xD18F, size: 0x8, addend: 0x0, symName: __ZNKSt3__16vectorINS_12basic_stringIcNS_11char_traitsIcEENS_9allocatorIcEEEENS4_IS6_EEE17__annotate_deleteB8ne180100Ev, symObjAddr: 0x1B00, symBinAddr: 0x100004F80, symSize: 0x10 }
  - { offsetInCU: 0xD1B5, offset: 0xD1B5, size: 0x8, addend: 0x0, symName: __ZNSt3__116allocator_traitsINS_9allocatorINS_12basic_stringIcNS_11char_traitsIcEENS1_IcEEEEEEE10deallocateB8ne180100ERS7_PS6_m, symObjAddr: 0x1B10, symBinAddr: 0x100004F90, symSize: 0x30 }
  - { offsetInCU: 0xD1F7, offset: 0xD1F7, size: 0x8, addend: 0x0, symName: __ZNKSt3__16vectorINS_12basic_stringIcNS_11char_traitsIcEENS_9allocatorIcEEEENS4_IS6_EEE8capacityB8ne180100Ev, symObjAddr: 0x1B40, symBinAddr: 0x100004FC0, symSize: 0x40 }
  - { offsetInCU: 0xD21D, offset: 0xD21D, size: 0x8, addend: 0x0, symName: __ZNSt3__16vectorINS_12basic_stringIcNS_11char_traitsIcEENS_9allocatorIcEEEENS4_IS6_EEE22__base_destruct_at_endB8ne180100EPS6_, symObjAddr: 0x1B80, symBinAddr: 0x100005000, symSize: 0x80 }
  - { offsetInCU: 0xD261, offset: 0xD261, size: 0x8, addend: 0x0, symName: __ZNSt3__116allocator_traitsINS_9allocatorINS_12basic_stringIcNS_11char_traitsIcEENS1_IcEEEEEEE7destroyB8ne180100IS6_vvEEvRS7_PT_, symObjAddr: 0x1C00, symBinAddr: 0x100005080, symSize: 0x20 }
  - { offsetInCU: 0xD29C, offset: 0xD29C, size: 0x8, addend: 0x0, symName: __ZNSt3__19allocatorINS_12basic_stringIcNS_11char_traitsIcEENS0_IcEEEEE10deallocateB8ne180100EPS5_m, symObjAddr: 0x1C40, symBinAddr: 0x1000050C0, symSize: 0x50 }
  - { offsetInCU: 0xD2DE, offset: 0xD2DE, size: 0x8, addend: 0x0, symName: __ZNKSt3__16vectorINS_12basic_stringIcNS_11char_traitsIcEENS_9allocatorIcEEEENS4_IS6_EEE9__end_capB8ne180100Ev, symObjAddr: 0x1D90, symBinAddr: 0x100005210, symSize: 0x20 }
  - { offsetInCU: 0xD304, offset: 0xD304, size: 0x8, addend: 0x0, symName: __ZNKSt3__117__compressed_pairIPNS_12basic_stringIcNS_11char_traitsIcEENS_9allocatorIcEEEENS4_IS6_EEE5firstB8ne180100Ev, symObjAddr: 0x1DB0, symBinAddr: 0x100005230, symSize: 0x20 }
  - { offsetInCU: 0xD32A, offset: 0xD32A, size: 0x8, addend: 0x0, symName: __ZNKSt3__122__compressed_pair_elemIPNS_12basic_stringIcNS_11char_traitsIcEENS_9allocatorIcEEEELi0ELb0EE5__getB8ne180100Ev, symObjAddr: 0x1DD0, symBinAddr: 0x100005250, symSize: 0x10 }
  - { offsetInCU: 0xD350, offset: 0xD350, size: 0x8, addend: 0x0, symName: __ZNSt3__16vectorINS_12basic_stringIcNS_11char_traitsIcEENS_9allocatorIcEEEENS4_IS6_EEED2B8ne180100Ev, symObjAddr: 0x1DE0, symBinAddr: 0x100005260, symSize: 0x40 }
  - { offsetInCU: 0xD37A, offset: 0xD37A, size: 0x8, addend: 0x0, symName: __ZNSt3__112basic_stringIcNS_11char_traitsIcEENS_9allocatorIcEEEC2B8ne180100Ev, symObjAddr: 0x1E20, symBinAddr: 0x1000052A0, symSize: 0x50 }
  - { offsetInCU: 0xD3A9, offset: 0xD3A9, size: 0x8, addend: 0x0, symName: __ZNSt3__117__compressed_pairINS_12basic_stringIcNS_11char_traitsIcEENS_9allocatorIcEEE5__repES5_EC1B8ne180100INS_16__value_init_tagENS_18__default_init_tagEEEOT_OT0_, symObjAddr: 0x1E70, symBinAddr: 0x1000052F0, symSize: 0x30 }
  - { offsetInCU: 0xD401, offset: 0xD401, size: 0x8, addend: 0x0, symName: __ZNKSt3__112basic_stringIcNS_11char_traitsIcEENS_9allocatorIcEEE14__annotate_newB8ne180100Em, symObjAddr: 0x1EA0, symBinAddr: 0x100005320, symSize: 0x10 }
  - { offsetInCU: 0xD436, offset: 0xD436, size: 0x8, addend: 0x0, symName: __ZNSt3__117__compressed_pairINS_12basic_stringIcNS_11char_traitsIcEENS_9allocatorIcEEE5__repES5_EC2B8ne180100INS_16__value_init_tagENS_18__default_init_tagEEEOT_OT0_, symObjAddr: 0x1EB0, symBinAddr: 0x100005330, symSize: 0x30 }
  - { offsetInCU: 0xD48E, offset: 0xD48E, size: 0x8, addend: 0x0, symName: __ZNSt3__122__compressed_pair_elemINS_12basic_stringIcNS_11char_traitsIcEENS_9allocatorIcEEE5__repELi0ELb0EEC2B8ne180100ENS_16__value_init_tagE, symObjAddr: 0x1EE0, symBinAddr: 0x100005360, symSize: 0x30 }
  - { offsetInCU: 0xD4C2, offset: 0xD4C2, size: 0x8, addend: 0x0, symName: __ZNSt3__122__compressed_pair_elemINS_9allocatorIcEELi1ELb1EEC2B8ne180100ENS_18__default_init_tagE, symObjAddr: 0x1F10, symBinAddr: 0x100005390, symSize: 0x20 }
  - { offsetInCU: 0xD4F6, offset: 0xD4F6, size: 0x8, addend: 0x0, symName: __ZNSt3__19allocatorIcEC2B8ne180100Ev, symObjAddr: 0x1F30, symBinAddr: 0x1000053B0, symSize: 0x20 }
  - { offsetInCU: 0xD520, offset: 0xD520, size: 0x8, addend: 0x0, symName: __ZNSt3__116__non_trivial_ifILb1ENS_9allocatorIcEEEC2B8ne180100Ev, symObjAddr: 0x1F50, symBinAddr: 0x1000053D0, symSize: 0x10 }
  - { offsetInCU: 0xD54A, offset: 0xD54A, size: 0x8, addend: 0x0, symName: __ZNKSt3__112basic_stringIcNS_11char_traitsIcEENS_9allocatorIcEEE9__is_longB8ne180100Ev, symObjAddr: 0x1F60, symBinAddr: 0x1000053E0, symSize: 0x30 }
  - { offsetInCU: 0xD570, offset: 0xD570, size: 0x8, addend: 0x0, symName: __ZNKSt3__112basic_stringIcNS_11char_traitsIcEENS_9allocatorIcEEE15__get_long_sizeB8ne180100Ev, symObjAddr: 0x1F90, symBinAddr: 0x100005410, symSize: 0x20 }
  - { offsetInCU: 0xD596, offset: 0xD596, size: 0x8, addend: 0x0, symName: __ZNKSt3__112basic_stringIcNS_11char_traitsIcEENS_9allocatorIcEEE16__get_short_sizeB8ne180100Ev, symObjAddr: 0x1FB0, symBinAddr: 0x100005430, symSize: 0x30 }
  - { offsetInCU: 0xD5BC, offset: 0xD5BC, size: 0x8, addend: 0x0, symName: __ZNKSt3__117__compressed_pairINS_12basic_stringIcNS_11char_traitsIcEENS_9allocatorIcEEE5__repES5_E5firstB8ne180100Ev, symObjAddr: 0x1FE0, symBinAddr: 0x100005460, symSize: 0x20 }
  - { offsetInCU: 0xD5E2, offset: 0xD5E2, size: 0x8, addend: 0x0, symName: __ZNKSt3__122__compressed_pair_elemINS_12basic_stringIcNS_11char_traitsIcEENS_9allocatorIcEEE5__repELi0ELb0EE5__getB8ne180100Ev, symObjAddr: 0x2000, symBinAddr: 0x100005480, symSize: 0x10 }
  - { offsetInCU: 0xD608, offset: 0xD608, size: 0x8, addend: 0x0, symName: __ZNSt3__112basic_stringIcNS_11char_traitsIcEENS_9allocatorIcEEE6appendB8ne180100ERKS5_, symObjAddr: 0x2010, symBinAddr: 0x100005490, symSize: 0x50 }
  - { offsetInCU: 0xD63D, offset: 0xD63D, size: 0x8, addend: 0x0, symName: __ZNKSt3__112basic_stringIcNS_11char_traitsIcEENS_9allocatorIcEEE4dataB8ne180100Ev, symObjAddr: 0x2060, symBinAddr: 0x1000054E0, symSize: 0x30 }
  - { offsetInCU: 0xD663, offset: 0xD663, size: 0x8, addend: 0x0, symName: __ZNKSt3__112basic_stringIcNS_11char_traitsIcEENS_9allocatorIcEEE13__get_pointerB8ne180100Ev, symObjAddr: 0x20A0, symBinAddr: 0x100005520, symSize: 0x50 }
  - { offsetInCU: 0xD689, offset: 0xD689, size: 0x8, addend: 0x0, symName: __ZNKSt3__112basic_stringIcNS_11char_traitsIcEENS_9allocatorIcEEE18__get_long_pointerB8ne180100Ev, symObjAddr: 0x20F0, symBinAddr: 0x100005570, symSize: 0x20 }
  - { offsetInCU: 0xD6AF, offset: 0xD6AF, size: 0x8, addend: 0x0, symName: __ZNKSt3__112basic_stringIcNS_11char_traitsIcEENS_9allocatorIcEEE19__get_short_pointerB8ne180100Ev, symObjAddr: 0x2110, symBinAddr: 0x100005590, symSize: 0x30 }
  - { offsetInCU: 0xD6D5, offset: 0xD6D5, size: 0x8, addend: 0x0, symName: __ZNSt3__114pointer_traitsIPKcE10pointer_toB8ne180100ERS1_, symObjAddr: 0x2140, symBinAddr: 0x1000055C0, symSize: 0x10 }
  - { offsetInCU: 0xD6F8, offset: 0xD6F8, size: 0x8, addend: 0x0, symName: __ZNSt3__112basic_stringIcNS_11char_traitsIcEENS_9allocatorIcEEE13__fits_in_ssoB8ne180100Em, symObjAddr: 0x2150, symBinAddr: 0x1000055D0, symSize: 0x20 }
  - { offsetInCU: 0xD71C, offset: 0xD71C, size: 0x8, addend: 0x0, symName: __ZNSt3__19allocatorIcEC1B8ne180100Ev, symObjAddr: 0x2170, symBinAddr: 0x1000055F0, symSize: 0x20 }
  - { offsetInCU: 0xD746, offset: 0xD746, size: 0x8, addend: 0x0, symName: __ZNKSt3__16vectorINS_12basic_stringIcNS_11char_traitsIcEENS_9allocatorIcEEEENS4_IS6_EEE11__make_iterB8ne180100EPKS6_, symObjAddr: 0x2190, symBinAddr: 0x100005610, symSize: 0x30 }
  - { offsetInCU: 0xD77B, offset: 0xD77B, size: 0x8, addend: 0x0, symName: __ZNSt3__111__wrap_iterIPKNS_12basic_stringIcNS_11char_traitsIcEENS_9allocatorIcEEEEEC1B8ne180100ES8_, symObjAddr: 0x21C0, symBinAddr: 0x100005640, symSize: 0x30 }
  - { offsetInCU: 0xD7B3, offset: 0xD7B3, size: 0x8, addend: 0x0, symName: __ZNSt3__111__wrap_iterIPKNS_12basic_stringIcNS_11char_traitsIcEENS_9allocatorIcEEEEEC2B8ne180100ES8_, symObjAddr: 0x21F0, symBinAddr: 0x100005670, symSize: 0x20 }
  - { offsetInCU: 0xD7EB, offset: 0xD7EB, size: 0x8, addend: 0x0, symName: __ZNKSt3__111__wrap_iterIPKNS_12basic_stringIcNS_11char_traitsIcEENS_9allocatorIcEEEEE4baseB8ne180100Ev, symObjAddr: 0x2250, symBinAddr: 0x1000056D0, symSize: 0x20 }
  - { offsetInCU: 0xD825, offset: 0xD825, size: 0x8, addend: 0x0, symName: __ZNKSt3__16__lessIvvEclB8ne180100ImmEEbRKT_RKT0_, symObjAddr: 0x22C0, symBinAddr: 0x100005740, symSize: 0x30 }
  - { offsetInCU: 0xD883, offset: 0xD883, size: 0x8, addend: 0x0, symName: '__ZZ15GetCommonPrefixRKNSt3__16vectorINS_12basic_stringIcNS_11char_traitsIcEENS_9allocatorIcEEEENS4_IS6_EEEEENK3$_0clIS6_EEDaRKT_', symObjAddr: 0x22F0, symBinAddr: 0x100005770, symSize: 0x40 }
  - { offsetInCU: 0xD8C4, offset: 0xD8C4, size: 0x8, addend: 0x0, symName: __ZNSt3__16vectorINS_12basic_stringIcNS_11char_traitsIcEENS_9allocatorIcEEEENS4_IS6_EEEC2B8ne180100Ev, symObjAddr: 0x2330, symBinAddr: 0x1000057B0, symSize: 0x50 }
  - { offsetInCU: 0xD8EE, offset: 0xD8EE, size: 0x8, addend: 0x0, symName: __ZNSt3__16vectorINS_12basic_stringIcNS_11char_traitsIcEENS_9allocatorIcEEEENS4_IS6_EEE11__make_iterB8ne180100EPS6_, symObjAddr: 0x2380, symBinAddr: 0x100005800, symSize: 0x30 }
  - { offsetInCU: 0xD923, offset: 0xD923, size: 0x8, addend: 0x0, symName: __ZNSt3__111__wrap_iterIPNS_12basic_stringIcNS_11char_traitsIcEENS_9allocatorIcEEEEEC1B8ne180100ES7_, symObjAddr: 0x23B0, symBinAddr: 0x100005830, symSize: 0x30 }
  - { offsetInCU: 0xD95B, offset: 0xD95B, size: 0x8, addend: 0x0, symName: __ZNSt3__111__wrap_iterIPNS_12basic_stringIcNS_11char_traitsIcEENS_9allocatorIcEEEEEC2B8ne180100ES7_, symObjAddr: 0x23E0, symBinAddr: 0x100005860, symSize: 0x20 }
  - { offsetInCU: 0xD993, offset: 0xD993, size: 0x8, addend: 0x0, symName: __ZNKSt3__111__wrap_iterIPNS_12basic_stringIcNS_11char_traitsIcEENS_9allocatorIcEEEEE4baseB8ne180100Ev, symObjAddr: 0x2440, symBinAddr: 0x1000058C0, symSize: 0x20 }
  - { offsetInCU: 0xD9BE, offset: 0xD9BE, size: 0x8, addend: 0x0, symName: __ZNSt3__16vectorINS_12basic_stringIcNS_11char_traitsIcEENS_9allocatorIcEEEENS4_IS6_EEE22__construct_one_at_endB8ne180100IJS6_EEEvDpOT_, symObjAddr: 0x2460, symBinAddr: 0x1000058E0, symSize: 0x90 }
  - { offsetInCU: 0xDA0D, offset: 0xDA0D, size: 0x8, addend: 0x0, symName: __ZNSt3__16vectorINS_12basic_stringIcNS_11char_traitsIcEENS_9allocatorIcEEEENS4_IS6_EEE21__push_back_slow_pathIS6_EEPS6_OT_, symObjAddr: 0x24F0, symBinAddr: 0x100005970, symSize: 0xE0 }
  - { offsetInCU: 0xDA6B, offset: 0xDA6B, size: 0x8, addend: 0x0, symName: __ZNSt3__116allocator_traitsINS_9allocatorINS_12basic_stringIcNS_11char_traitsIcEENS1_IcEEEEEEE9constructB8ne180100IS6_JS6_EvvEEvRS7_PT_DpOT0_, symObjAddr: 0x25D0, symBinAddr: 0x100005A50, symSize: 0x30 }
  - { offsetInCU: 0xDAC0, offset: 0xDAC0, size: 0x8, addend: 0x0, symName: __ZNSt3__112basic_stringIcNS_11char_traitsIcEENS_9allocatorIcEEEC1B8ne180100EOS5_, symObjAddr: 0x2660, symBinAddr: 0x100005AE0, symSize: 0x30 }
  - { offsetInCU: 0xDAF9, offset: 0xDAF9, size: 0x8, addend: 0x0, symName: __ZNSt3__112basic_stringIcNS_11char_traitsIcEENS_9allocatorIcEEEC2B8ne180100EOS5_, symObjAddr: 0x2690, symBinAddr: 0x100005B10, symSize: 0xD0 }
  - { offsetInCU: 0xDB62, offset: 0xDB62, size: 0x8, addend: 0x0, symName: __ZZNSt3__112basic_stringIcNS_11char_traitsIcEENS_9allocatorIcEEEC1B8ne180100EOS5_ENKUlRS5_E_clES7_, symObjAddr: 0x2760, symBinAddr: 0x100005BE0, symSize: 0x40 }
  - { offsetInCU: 0xDB9B, offset: 0xDB9B, size: 0x8, addend: 0x0, symName: __ZNSt3__117__compressed_pairINS_12basic_stringIcNS_11char_traitsIcEENS_9allocatorIcEEE5__repES5_E5firstB8ne180100Ev, symObjAddr: 0x27A0, symBinAddr: 0x100005C20, symSize: 0x20 }
  - { offsetInCU: 0xDBC1, offset: 0xDBC1, size: 0x8, addend: 0x0, symName: __ZNKSt3__112basic_stringIcNS_11char_traitsIcEENS_9allocatorIcEEE17__annotate_deleteB8ne180100Ev, symObjAddr: 0x27C0, symBinAddr: 0x100005C40, symSize: 0x10 }
  - { offsetInCU: 0xDBE7, offset: 0xDBE7, size: 0x8, addend: 0x0, symName: __ZNSt3__122__compressed_pair_elemINS_12basic_stringIcNS_11char_traitsIcEENS_9allocatorIcEEE5__repELi0ELb0EE5__getB8ne180100Ev, symObjAddr: 0x27D0, symBinAddr: 0x100005C50, symSize: 0x10 }
  - { offsetInCU: 0xDC0D, offset: 0xDC0D, size: 0x8, addend: 0x0, symName: __ZNKSt3__16vectorINS_12basic_stringIcNS_11char_traitsIcEENS_9allocatorIcEEEENS4_IS6_EEE11__recommendB8ne180100Em, symObjAddr: 0x27E0, symBinAddr: 0x100005C60, symSize: 0xA0 }
  - { offsetInCU: 0xDC62, offset: 0xDC62, size: 0x8, addend: 0x0, symName: __ZNKSt3__16vectorINS_12basic_stringIcNS_11char_traitsIcEENS_9allocatorIcEEEENS4_IS6_EEE4sizeB8ne180100Ev, symObjAddr: 0x2880, symBinAddr: 0x100005D00, symSize: 0x30 }
  - { offsetInCU: 0xDC88, offset: 0xDC88, size: 0x8, addend: 0x0, symName: __ZNSt3__114__split_bufferINS_12basic_stringIcNS_11char_traitsIcEENS_9allocatorIcEEEERNS4_IS6_EEEC1EmmS8_, symObjAddr: 0x28B0, symBinAddr: 0x100005D30, symSize: 0x40 }
  - { offsetInCU: 0xDCDE, offset: 0xDCDE, size: 0x8, addend: 0x0, symName: __ZNSt3__114__split_bufferINS_12basic_stringIcNS_11char_traitsIcEENS_9allocatorIcEEEERNS4_IS6_EEED1Ev, symObjAddr: 0x2A10, symBinAddr: 0x100005E90, symSize: 0x20 }
  - { offsetInCU: 0xDD0A, offset: 0xDD0A, size: 0x8, addend: 0x0, symName: __ZNSt3__114__split_bufferINS_12basic_stringIcNS_11char_traitsIcEENS_9allocatorIcEEEERNS4_IS6_EEEC2EmmS8_, symObjAddr: 0x2AB0, symBinAddr: 0x100005F30, symSize: 0xC0 }
  - { offsetInCU: 0xDD7D, offset: 0xDD7D, size: 0x8, addend: 0x0, symName: __ZNSt3__117__compressed_pairIPNS_12basic_stringIcNS_11char_traitsIcEENS_9allocatorIcEEEERNS4_IS6_EEEC1B8ne180100IDnS9_EEOT_OT0_, symObjAddr: 0x2B70, symBinAddr: 0x100005FF0, symSize: 0x30 }
  - { offsetInCU: 0xDDD5, offset: 0xDDD5, size: 0x8, addend: 0x0, symName: __ZNSt3__114__split_bufferINS_12basic_stringIcNS_11char_traitsIcEENS_9allocatorIcEEEERNS4_IS6_EEE7__allocB8ne180100Ev, symObjAddr: 0x2BA0, symBinAddr: 0x100006020, symSize: 0x20 }
  - { offsetInCU: 0xDDFB, offset: 0xDDFB, size: 0x8, addend: 0x0, symName: __ZNSt3__114__split_bufferINS_12basic_stringIcNS_11char_traitsIcEENS_9allocatorIcEEEERNS4_IS6_EEE9__end_capB8ne180100Ev, symObjAddr: 0x2BC0, symBinAddr: 0x100006040, symSize: 0x20 }
  - { offsetInCU: 0xDE21, offset: 0xDE21, size: 0x8, addend: 0x0, symName: __ZNSt3__117__compressed_pairIPNS_12basic_stringIcNS_11char_traitsIcEENS_9allocatorIcEEEERNS4_IS6_EEEC2B8ne180100IDnS9_EEOT_OT0_, symObjAddr: 0x2BE0, symBinAddr: 0x100006060, symSize: 0x40 }
  - { offsetInCU: 0xDE79, offset: 0xDE79, size: 0x8, addend: 0x0, symName: __ZNSt3__122__compressed_pair_elemIRNS_9allocatorINS_12basic_stringIcNS_11char_traitsIcEENS1_IcEEEEEELi1ELb0EEC2B8ne180100IS8_vEEOT_, symObjAddr: 0x2C20, symBinAddr: 0x1000060A0, symSize: 0x20 }
  - { offsetInCU: 0xDEBB, offset: 0xDEBB, size: 0x8, addend: 0x0, symName: __ZNSt3__117__compressed_pairIPNS_12basic_stringIcNS_11char_traitsIcEENS_9allocatorIcEEEERNS4_IS6_EEE6secondB8ne180100Ev, symObjAddr: 0x2C40, symBinAddr: 0x1000060C0, symSize: 0x20 }
  - { offsetInCU: 0xDEE1, offset: 0xDEE1, size: 0x8, addend: 0x0, symName: __ZNSt3__122__compressed_pair_elemIRNS_9allocatorINS_12basic_stringIcNS_11char_traitsIcEENS1_IcEEEEEELi1ELb0EE5__getB8ne180100Ev, symObjAddr: 0x2C60, symBinAddr: 0x1000060E0, symSize: 0x20 }
  - { offsetInCU: 0xDF07, offset: 0xDF07, size: 0x8, addend: 0x0, symName: __ZNSt3__117__compressed_pairIPNS_12basic_stringIcNS_11char_traitsIcEENS_9allocatorIcEEEERNS4_IS6_EEE5firstB8ne180100Ev, symObjAddr: 0x2C80, symBinAddr: 0x100006100, symSize: 0x20 }
  - { offsetInCU: 0xDF2D, offset: 0xDF2D, size: 0x8, addend: 0x0, symName: __ZNSt3__116reverse_iteratorIPNS_12basic_stringIcNS_11char_traitsIcEENS_9allocatorIcEEEEEC1B8ne180100ES7_, symObjAddr: 0x2E20, symBinAddr: 0x1000062A0, symSize: 0x30 }
  - { offsetInCU: 0xDF65, offset: 0xDF65, size: 0x8, addend: 0x0, symName: __ZNKSt3__116reverse_iteratorIPNS_12basic_stringIcNS_11char_traitsIcEENS_9allocatorIcEEEEE4baseB8ne180100Ev, symObjAddr: 0x2E50, symBinAddr: 0x1000062D0, symSize: 0x20 }
  - { offsetInCU: 0xDF8B, offset: 0xDF8B, size: 0x8, addend: 0x0, symName: __ZNSt3__129_AllocatorDestroyRangeReverseINS_9allocatorINS_12basic_stringIcNS_11char_traitsIcEENS1_IcEEEEEENS_16reverse_iteratorIPS6_EEEC1B8ne180100ERS7_RSA_SD_, symObjAddr: 0x2F10, symBinAddr: 0x100006390, symSize: 0x40 }
  - { offsetInCU: 0xDFE2, offset: 0xDFE2, size: 0x8, addend: 0x0, symName: __ZNKSt3__116reverse_iteratorIPNS_12basic_stringIcNS_11char_traitsIcEENS_9allocatorIcEEEEEdeB8ne180100Ev, symObjAddr: 0x2FB0, symBinAddr: 0x100006430, symSize: 0x30 }
  - { offsetInCU: 0xE016, offset: 0xE016, size: 0x8, addend: 0x0, symName: __ZNSt3__116reverse_iteratorIPNS_12basic_stringIcNS_11char_traitsIcEENS_9allocatorIcEEEEEppB8ne180100Ev, symObjAddr: 0x2FE0, symBinAddr: 0x100006460, symSize: 0x20 }
  - { offsetInCU: 0xE03C, offset: 0xE03C, size: 0x8, addend: 0x0, symName: __ZNSt3__128__exception_guard_exceptionsINS_29_AllocatorDestroyRangeReverseINS_9allocatorINS_12basic_stringIcNS_11char_traitsIcEENS2_IcEEEEEENS_16reverse_iteratorIPS7_EEEEE10__completeB8ne180100Ev, symObjAddr: 0x3000, symBinAddr: 0x100006480, symSize: 0x20 }
  - { offsetInCU: 0xE062, offset: 0xE062, size: 0x8, addend: 0x0, symName: __ZNSt3__128__exception_guard_exceptionsINS_29_AllocatorDestroyRangeReverseINS_9allocatorINS_12basic_stringIcNS_11char_traitsIcEENS2_IcEEEEEENS_16reverse_iteratorIPS7_EEEEED1B8ne180100Ev, symObjAddr: 0x3020, symBinAddr: 0x1000064A0, symSize: 0x20 }
  - { offsetInCU: 0xE08C, offset: 0xE08C, size: 0x8, addend: 0x0, symName: __ZNSt3__128__exception_guard_exceptionsINS_29_AllocatorDestroyRangeReverseINS_9allocatorINS_12basic_stringIcNS_11char_traitsIcEENS2_IcEEEEEENS_16reverse_iteratorIPS7_EEEEEC1B8ne180100ESC_, symObjAddr: 0x3040, symBinAddr: 0x1000064C0, symSize: 0x40 }
  - { offsetInCU: 0xE0C4, offset: 0xE0C4, size: 0x8, addend: 0x0, symName: __ZNSt3__128__exception_guard_exceptionsINS_29_AllocatorDestroyRangeReverseINS_9allocatorINS_12basic_stringIcNS_11char_traitsIcEENS2_IcEEEEEENS_16reverse_iteratorIPS7_EEEEEC2B8ne180100ESC_, symObjAddr: 0x3080, symBinAddr: 0x100006500, symSize: 0x30 }
  - { offsetInCU: 0xE0FC, offset: 0xE0FC, size: 0x8, addend: 0x0, symName: __ZNSt3__129_AllocatorDestroyRangeReverseINS_9allocatorINS_12basic_stringIcNS_11char_traitsIcEENS1_IcEEEEEENS_16reverse_iteratorIPS6_EEEC2B8ne180100ERS7_RSA_SD_, symObjAddr: 0x30B0, symBinAddr: 0x100006530, symSize: 0x40 }
  - { offsetInCU: 0xE158, offset: 0xE158, size: 0x8, addend: 0x0, symName: __ZNSt3__119__to_address_helperINS_16reverse_iteratorIPNS_12basic_stringIcNS_11char_traitsIcEENS_9allocatorIcEEEEEEvE6__callB8ne180100ERKS9_, symObjAddr: 0x30F0, symBinAddr: 0x100006570, symSize: 0x40 }
  - { offsetInCU: 0xE17B, offset: 0xE17B, size: 0x8, addend: 0x0, symName: __ZNKSt3__116reverse_iteratorIPNS_12basic_stringIcNS_11char_traitsIcEENS_9allocatorIcEEEEEptB8ne180100Ev, symObjAddr: 0x3130, symBinAddr: 0x1000065B0, symSize: 0x30 }
  - { offsetInCU: 0xE1A1, offset: 0xE1A1, size: 0x8, addend: 0x0, symName: __ZNSt3__128__exception_guard_exceptionsINS_29_AllocatorDestroyRangeReverseINS_9allocatorINS_12basic_stringIcNS_11char_traitsIcEENS2_IcEEEEEENS_16reverse_iteratorIPS7_EEEEED2B8ne180100Ev, symObjAddr: 0x31F0, symBinAddr: 0x100006670, symSize: 0x40 }
  - { offsetInCU: 0xE1CB, offset: 0xE1CB, size: 0x8, addend: 0x0, symName: __ZNKSt3__129_AllocatorDestroyRangeReverseINS_9allocatorINS_12basic_stringIcNS_11char_traitsIcEENS1_IcEEEEEENS_16reverse_iteratorIPS6_EEEclB8ne180100Ev, symObjAddr: 0x3230, symBinAddr: 0x1000066B0, symSize: 0xF0 }
  - { offsetInCU: 0xE1F2, offset: 0xE1F2, size: 0x8, addend: 0x0, symName: __ZNSt3__116reverse_iteratorINS0_IPNS_12basic_stringIcNS_11char_traitsIcEENS_9allocatorIcEEEEEEEC1B8ne180100ES8_, symObjAddr: 0x3390, symBinAddr: 0x100006810, symSize: 0x30 }
  - { offsetInCU: 0xE22A, offset: 0xE22A, size: 0x8, addend: 0x0, symName: __ZNSt3__116reverse_iteratorINS0_IPNS_12basic_stringIcNS_11char_traitsIcEENS_9allocatorIcEEEEEEEppB8ne180100Ev, symObjAddr: 0x3430, symBinAddr: 0x1000068B0, symSize: 0x30 }
  - { offsetInCU: 0xE250, offset: 0xE250, size: 0x8, addend: 0x0, symName: __ZNKSt3__116reverse_iteratorINS0_IPNS_12basic_stringIcNS_11char_traitsIcEENS_9allocatorIcEEEEEEE4baseB8ne180100Ev, symObjAddr: 0x3460, symBinAddr: 0x1000068E0, symSize: 0x20 }
  - { offsetInCU: 0xE27B, offset: 0xE27B, size: 0x8, addend: 0x0, symName: __ZNSt3__119__to_address_helperINS_16reverse_iteratorINS1_IPNS_12basic_stringIcNS_11char_traitsIcEENS_9allocatorIcEEEEEEEEvE6__callB8ne180100ERKSA_, symObjAddr: 0x3480, symBinAddr: 0x100006900, symSize: 0x40 }
  - { offsetInCU: 0xE29E, offset: 0xE29E, size: 0x8, addend: 0x0, symName: __ZNKSt3__116reverse_iteratorINS0_IPNS_12basic_stringIcNS_11char_traitsIcEENS_9allocatorIcEEEEEEEptB8ne180100Ev, symObjAddr: 0x34C0, symBinAddr: 0x100006940, symSize: 0x50 }
  - { offsetInCU: 0xE2C4, offset: 0xE2C4, size: 0x8, addend: 0x0, symName: __ZNSt3__116reverse_iteratorIPNS_12basic_stringIcNS_11char_traitsIcEENS_9allocatorIcEEEEEpLB8ne180100El, symObjAddr: 0x35B0, symBinAddr: 0x100006A30, symSize: 0x30 }
  - { offsetInCU: 0xE2F8, offset: 0xE2F8, size: 0x8, addend: 0x0, symName: __ZNSt3__116reverse_iteratorIPNS_12basic_stringIcNS_11char_traitsIcEENS_9allocatorIcEEEEEmmB8ne180100Ev, symObjAddr: 0x35E0, symBinAddr: 0x100006A60, symSize: 0x20 }
  - { offsetInCU: 0xE31E, offset: 0xE31E, size: 0x8, addend: 0x0, symName: __ZNSt3__116reverse_iteratorINS0_IPNS_12basic_stringIcNS_11char_traitsIcEENS_9allocatorIcEEEEEEEC2B8ne180100ES8_, symObjAddr: 0x3600, symBinAddr: 0x100006A80, symSize: 0x40 }
  - { offsetInCU: 0xE356, offset: 0xE356, size: 0x8, addend: 0x0, symName: __ZNSt3__116reverse_iteratorIPNS_12basic_stringIcNS_11char_traitsIcEENS_9allocatorIcEEEEEC2B8ne180100ES7_, symObjAddr: 0x3640, symBinAddr: 0x100006AC0, symSize: 0x30 }
  - { offsetInCU: 0xE38E, offset: 0xE38E, size: 0x8, addend: 0x0, symName: __ZNSt3__114__split_bufferINS_12basic_stringIcNS_11char_traitsIcEENS_9allocatorIcEEEERNS4_IS6_EEED2Ev, symObjAddr: 0x3670, symBinAddr: 0x100006AF0, symSize: 0x70 }
  - { offsetInCU: 0xE3BA, offset: 0xE3BA, size: 0x8, addend: 0x0, symName: __ZNSt3__114__split_bufferINS_12basic_stringIcNS_11char_traitsIcEENS_9allocatorIcEEEERNS4_IS6_EEE5clearB8ne180100Ev, symObjAddr: 0x36E0, symBinAddr: 0x100006B60, symSize: 0x20 }
  - { offsetInCU: 0xE3E0, offset: 0xE3E0, size: 0x8, addend: 0x0, symName: __ZNKSt3__114__split_bufferINS_12basic_stringIcNS_11char_traitsIcEENS_9allocatorIcEEEERNS4_IS6_EEE8capacityB8ne180100Ev, symObjAddr: 0x3700, symBinAddr: 0x100006B80, symSize: 0x40 }
  - { offsetInCU: 0xE406, offset: 0xE406, size: 0x8, addend: 0x0, symName: __ZNSt3__114__split_bufferINS_12basic_stringIcNS_11char_traitsIcEENS_9allocatorIcEEEERNS4_IS6_EEE17__destruct_at_endB8ne180100EPS6_, symObjAddr: 0x3740, symBinAddr: 0x100006BC0, symSize: 0x30 }
  - { offsetInCU: 0xE43A, offset: 0xE43A, size: 0x8, addend: 0x0, symName: __ZNSt3__114__split_bufferINS_12basic_stringIcNS_11char_traitsIcEENS_9allocatorIcEEEERNS4_IS6_EEE17__destruct_at_endB8ne180100EPS6_NS_17integral_constantIbLb0EEE, symObjAddr: 0x3770, symBinAddr: 0x100006BF0, symSize: 0x80 }
  - { offsetInCU: 0xE47A, offset: 0xE47A, size: 0x8, addend: 0x0, symName: __ZNKSt3__114__split_bufferINS_12basic_stringIcNS_11char_traitsIcEENS_9allocatorIcEEEERNS4_IS6_EEE9__end_capB8ne180100Ev, symObjAddr: 0x37F0, symBinAddr: 0x100006C70, symSize: 0x20 }
  - { offsetInCU: 0xE4A0, offset: 0xE4A0, size: 0x8, addend: 0x0, symName: __ZNKSt3__117__compressed_pairIPNS_12basic_stringIcNS_11char_traitsIcEENS_9allocatorIcEEEERNS4_IS6_EEE5firstB8ne180100Ev, symObjAddr: 0x3810, symBinAddr: 0x100006C90, symSize: 0x20 }
  - { offsetInCU: 0xE56F, offset: 0xE56F, size: 0x8, addend: 0x0, symName: __ZNKSt3__113basic_istreamIcNS_11char_traitsIcEEE6sentrycvbB8ne180100Ev, symObjAddr: 0x3830, symBinAddr: 0x100006CB0, symSize: 0x20 }
  - { offsetInCU: 0xE595, offset: 0xE595, size: 0x8, addend: 0x0, symName: __ZNSt3__112basic_stringIcNS_11char_traitsIcEENS_9allocatorIcEEE5clearB8ne180100Ev, symObjAddr: 0x3850, symBinAddr: 0x100006CD0, symSize: 0xA0 }
  - { offsetInCU: 0xE5CC, offset: 0xE5CC, size: 0x8, addend: 0x0, symName: __ZNKSt3__18ios_base5widthB8ne180100Ev, symObjAddr: 0x38F0, symBinAddr: 0x100006D70, symSize: 0x20 }
  - { offsetInCU: 0xE5F4, offset: 0xE5F4, size: 0x8, addend: 0x0, symName: __ZNKSt3__112basic_stringIcNS_11char_traitsIcEENS_9allocatorIcEEE8max_sizeB8ne180100Ev, symObjAddr: 0x3910, symBinAddr: 0x100006D90, symSize: 0xA0 }
  - { offsetInCU: 0xE646, offset: 0xE646, size: 0x8, addend: 0x0, symName: __ZNKSt3__19basic_iosIcNS_11char_traitsIcEEE5rdbufB8ne180100Ev, symObjAddr: 0x39E0, symBinAddr: 0x100006E60, symSize: 0x20 }
  - { offsetInCU: 0xE66E, offset: 0xE66E, size: 0x8, addend: 0x0, symName: __ZNSt3__115basic_streambufIcNS_11char_traitsIcEEE5sgetcB8ne180100Ev, symObjAddr: 0x3A00, symBinAddr: 0x100006E80, symSize: 0x50 }
  - { offsetInCU: 0xE694, offset: 0xE694, size: 0x8, addend: 0x0, symName: __ZNSt3__111char_traitsIcE11eq_int_typeB8ne180100Eii, symObjAddr: 0x3A50, symBinAddr: 0x100006ED0, symSize: 0x20 }
  - { offsetInCU: 0xE6C7, offset: 0xE6C7, size: 0x8, addend: 0x0, symName: __ZNSt3__111char_traitsIcE3eofB8ne180100Ev, symObjAddr: 0x3A70, symBinAddr: 0x100006EF0, symSize: 0x10 }
  - { offsetInCU: 0xE6DB, offset: 0xE6DB, size: 0x8, addend: 0x0, symName: __ZNSt3__111char_traitsIcE12to_char_typeB8ne180100Ei, symObjAddr: 0x3A80, symBinAddr: 0x100006F00, symSize: 0x10 }
  - { offsetInCU: 0xE72C, offset: 0xE72C, size: 0x8, addend: 0x0, symName: __ZNKSt3__15ctypeIcE2isB8ne180100Ejc, symObjAddr: 0x3A90, symBinAddr: 0x100006F10, symSize: 0x70 }
  - { offsetInCU: 0xE770, offset: 0xE770, size: 0x8, addend: 0x0, symName: __ZNSt3__115basic_streambufIcNS_11char_traitsIcEEE6sbumpcB8ne180100Ev, symObjAddr: 0x3B00, symBinAddr: 0x100006F80, symSize: 0x60 }
  - { offsetInCU: 0xE796, offset: 0xE796, size: 0x8, addend: 0x0, symName: __ZNSt3__18ios_base5widthB8ne180100El, symObjAddr: 0x3B60, symBinAddr: 0x100006FE0, symSize: 0x30 }
  - { offsetInCU: 0xE7DC, offset: 0xE7DC, size: 0x8, addend: 0x0, symName: __ZNSt3__18ios_base18__setstate_nothrowB8ne180100Ej, symObjAddr: 0x3B90, symBinAddr: 0x100007010, symSize: 0x50 }
  - { offsetInCU: 0xE811, offset: 0xE811, size: 0x8, addend: 0x0, symName: __ZNKSt3__19basic_iosIcNS_11char_traitsIcEEE10exceptionsB8ne180100Ev, symObjAddr: 0x3BE0, symBinAddr: 0x100007060, symSize: 0x20 }
  - { offsetInCU: 0xE837, offset: 0xE837, size: 0x8, addend: 0x0, symName: __ZNSt3__19basic_iosIcNS_11char_traitsIcEEE8setstateB8ne180100Ej, symObjAddr: 0x3C00, symBinAddr: 0x100007080, symSize: 0x30 }
  - { offsetInCU: 0xE86C, offset: 0xE86C, size: 0x8, addend: 0x0, symName: __ZNSt3__111char_traitsIcE6assignB8ne180100ERcRKc, symObjAddr: 0x3C30, symBinAddr: 0x1000070B0, symSize: 0x20 }
  - { offsetInCU: 0xE89D, offset: 0xE89D, size: 0x8, addend: 0x0, symName: __ZNSt3__112basic_stringIcNS_11char_traitsIcEENS_9allocatorIcEEE18__get_long_pointerB8ne180100Ev, symObjAddr: 0x3C50, symBinAddr: 0x1000070D0, symSize: 0x20 }
  - { offsetInCU: 0xE8C3, offset: 0xE8C3, size: 0x8, addend: 0x0, symName: __ZNSt3__112basic_stringIcNS_11char_traitsIcEENS_9allocatorIcEEE15__set_long_sizeB8ne180100Em, symObjAddr: 0x3C70, symBinAddr: 0x1000070F0, symSize: 0x30 }
  - { offsetInCU: 0xE8F8, offset: 0xE8F8, size: 0x8, addend: 0x0, symName: __ZNSt3__112basic_stringIcNS_11char_traitsIcEENS_9allocatorIcEEE19__get_short_pointerB8ne180100Ev, symObjAddr: 0x3CA0, symBinAddr: 0x100007120, symSize: 0x30 }
  - { offsetInCU: 0xE91E, offset: 0xE91E, size: 0x8, addend: 0x0, symName: __ZNSt3__112basic_stringIcNS_11char_traitsIcEENS_9allocatorIcEEE16__set_short_sizeB8ne180100Em, symObjAddr: 0x3CD0, symBinAddr: 0x100007150, symSize: 0x50 }
  - { offsetInCU: 0xE953, offset: 0xE953, size: 0x8, addend: 0x0, symName: __ZNKSt3__112basic_stringIcNS_11char_traitsIcEENS_9allocatorIcEEE17__annotate_shrinkB8ne180100Em, symObjAddr: 0x3D20, symBinAddr: 0x1000071A0, symSize: 0x10 }
  - { offsetInCU: 0xE988, offset: 0xE988, size: 0x8, addend: 0x0, symName: __ZNSt3__114pointer_traitsIPcE10pointer_toB8ne180100ERc, symObjAddr: 0x3D30, symBinAddr: 0x1000071B0, symSize: 0x10 }
  - { offsetInCU: 0xE9B5, offset: 0xE9B5, size: 0x8, addend: 0x0, symName: __ZNSt3__116allocator_traitsINS_9allocatorIcEEE8max_sizeB8ne180100IS2_vvEEmRKS2_, symObjAddr: 0x3D40, symBinAddr: 0x1000071C0, symSize: 0x20 }
  - { offsetInCU: 0xE9E1, offset: 0xE9E1, size: 0x8, addend: 0x0, symName: __ZNKSt3__112basic_stringIcNS_11char_traitsIcEENS_9allocatorIcEEE7__allocB8ne180100Ev, symObjAddr: 0x3D60, symBinAddr: 0x1000071E0, symSize: 0x20 }
  - { offsetInCU: 0xEA07, offset: 0xEA07, size: 0x8, addend: 0x0, symName: __ZNKSt3__117__compressed_pairINS_12basic_stringIcNS_11char_traitsIcEENS_9allocatorIcEEE5__repES5_E6secondB8ne180100Ev, symObjAddr: 0x3D80, symBinAddr: 0x100007200, symSize: 0x20 }
  - { offsetInCU: 0xEA2D, offset: 0xEA2D, size: 0x8, addend: 0x0, symName: __ZNKSt3__122__compressed_pair_elemINS_9allocatorIcEELi1ELb1EE5__getB8ne180100Ev, symObjAddr: 0x3DA0, symBinAddr: 0x100007220, symSize: 0x10 }
  - { offsetInCU: 0xEA53, offset: 0xEA53, size: 0x8, addend: 0x0, symName: __ZNKSt3__18ios_base5rdbufB8ne180100Ev, symObjAddr: 0x3DB0, symBinAddr: 0x100007230, symSize: 0x20 }
  - { offsetInCU: 0xEA79, offset: 0xEA79, size: 0x8, addend: 0x0, symName: __ZNSt3__111char_traitsIcE11to_int_typeB8ne180100Ec, symObjAddr: 0x3DD0, symBinAddr: 0x100007250, symSize: 0x10 }
  - { offsetInCU: 0xEA9C, offset: 0xEA9C, size: 0x8, addend: 0x0, symName: __Z7isasciii, symObjAddr: 0x3DE0, symBinAddr: 0x100007260, symSize: 0x20 }
  - { offsetInCU: 0xEAC9, offset: 0xEAC9, size: 0x8, addend: 0x0, symName: __ZNKSt3__18ios_base10exceptionsB8ne180100Ev, symObjAddr: 0x3E00, symBinAddr: 0x100007280, symSize: 0x20 }
  - { offsetInCU: 0xEAF1, offset: 0xEAF1, size: 0x8, addend: 0x0, symName: __ZNSt3__18ios_base8setstateB8ne180100Ej, symObjAddr: 0x3E20, symBinAddr: 0x1000072A0, symSize: 0x30 }
  - { offsetInCU: 0xEB46, offset: 0xEB46, size: 0x8, addend: 0x0, symName: __ZNKSt3__113basic_ostreamIcNS_11char_traitsIcEEE6sentrycvbB8ne180100Ev, symObjAddr: 0x4040, symBinAddr: 0x1000074C0, symSize: 0x20 }
  - { offsetInCU: 0xEB6C, offset: 0xEB6C, size: 0x8, addend: 0x0, symName: __ZNSt3__119ostreambuf_iteratorIcNS_11char_traitsIcEEEC1B8ne180100ERNS_13basic_ostreamIcS2_EE, symObjAddr: 0x4280, symBinAddr: 0x100007700, symSize: 0x30 }
  - { offsetInCU: 0xEBA4, offset: 0xEBA4, size: 0x8, addend: 0x0, symName: __ZNKSt3__18ios_base5flagsB8ne180100Ev, symObjAddr: 0x42B0, symBinAddr: 0x100007730, symSize: 0x20 }
  - { offsetInCU: 0xEBCC, offset: 0xEBCC, size: 0x8, addend: 0x0, symName: __ZNKSt3__19basic_iosIcNS_11char_traitsIcEEE4fillB8ne180100Ev, symObjAddr: 0x42D0, symBinAddr: 0x100007750, symSize: 0x70 }
  - { offsetInCU: 0xEBF4, offset: 0xEBF4, size: 0x8, addend: 0x0, symName: __ZNKSt3__119ostreambuf_iteratorIcNS_11char_traitsIcEEE6failedB8ne180100Ev, symObjAddr: 0x4340, symBinAddr: 0x1000077C0, symSize: 0x20 }
  - { offsetInCU: 0xEC1A, offset: 0xEC1A, size: 0x8, addend: 0x0, symName: __ZNSt3__115basic_streambufIcNS_11char_traitsIcEEE5sputnB8ne180100EPKcl, symObjAddr: 0x4360, symBinAddr: 0x1000077E0, symSize: 0x30 }
  - { offsetInCU: 0xEC5C, offset: 0xEC5C, size: 0x8, addend: 0x0, symName: __ZNSt3__112basic_stringIcNS_11char_traitsIcEENS_9allocatorIcEEEC1B8ne180100Emc, symObjAddr: 0x4390, symBinAddr: 0x100007810, symSize: 0x30 }
  - { offsetInCU: 0xECA4, offset: 0xECA4, size: 0x8, addend: 0x0, symName: __ZNSt3__112basic_stringIcNS_11char_traitsIcEENS_9allocatorIcEEE4dataB8ne180100Ev, symObjAddr: 0x43C0, symBinAddr: 0x100007840, symSize: 0x30 }
  - { offsetInCU: 0xECCA, offset: 0xECCA, size: 0x8, addend: 0x0, symName: __ZNSt3__112basic_stringIcNS_11char_traitsIcEENS_9allocatorIcEEEC2B8ne180100Emc, symObjAddr: 0x43F0, symBinAddr: 0x100007870, symSize: 0x50 }
  - { offsetInCU: 0xED12, offset: 0xED12, size: 0x8, addend: 0x0, symName: __ZNSt3__117__compressed_pairINS_12basic_stringIcNS_11char_traitsIcEENS_9allocatorIcEEE5__repES5_EC1B8ne180100INS_18__default_init_tagESA_EEOT_OT0_, symObjAddr: 0x4440, symBinAddr: 0x1000078C0, symSize: 0x30 }
  - { offsetInCU: 0xED6A, offset: 0xED6A, size: 0x8, addend: 0x0, symName: __ZNSt3__117__compressed_pairINS_12basic_stringIcNS_11char_traitsIcEENS_9allocatorIcEEE5__repES5_EC2B8ne180100INS_18__default_init_tagESA_EEOT_OT0_, symObjAddr: 0x4470, symBinAddr: 0x1000078F0, symSize: 0x30 }
  - { offsetInCU: 0xEDC2, offset: 0xEDC2, size: 0x8, addend: 0x0, symName: __ZNSt3__122__compressed_pair_elemINS_12basic_stringIcNS_11char_traitsIcEENS_9allocatorIcEEE5__repELi0ELb0EEC2B8ne180100ENS_18__default_init_tagE, symObjAddr: 0x44A0, symBinAddr: 0x100007920, symSize: 0x10 }
  - { offsetInCU: 0xEDF6, offset: 0xEDF6, size: 0x8, addend: 0x0, symName: __ZNSt3__112basic_stringIcNS_11char_traitsIcEENS_9allocatorIcEEE13__get_pointerB8ne180100Ev, symObjAddr: 0x44C0, symBinAddr: 0x100007940, symSize: 0x50 }
  - { offsetInCU: 0xEE1C, offset: 0xEE1C, size: 0x8, addend: 0x0, symName: __ZNSt3__119ostreambuf_iteratorIcNS_11char_traitsIcEEEC2B8ne180100ERNS_13basic_ostreamIcS2_EE, symObjAddr: 0x4510, symBinAddr: 0x100007990, symSize: 0x50 }
  - { offsetInCU: 0xEE54, offset: 0xEE54, size: 0x8, addend: 0x0, symName: __ZNKSt3__19basic_iosIcNS_11char_traitsIcEEE5widenB8ne180100Ec, symObjAddr: 0x4560, symBinAddr: 0x1000079E0, symSize: 0x80 }
  - { offsetInCU: 0xEE8B, offset: 0xEE8B, size: 0x8, addend: 0x0, symName: __ZNKSt3__15ctypeIcE5widenB8ne180100Ec, symObjAddr: 0x45E0, symBinAddr: 0x100007A60, symSize: 0x2B }
...
